Archive member included because of file (symbol)

../src/asf/avr32/utils/libs/dsplib/at32ucr3fp/gcc\libdsp-at32ucr3fp-dspspeed_opt.a(vect_dsp16_complex_abs.o)
                              src/CustomDevices/ImageProcessor.o (dsp16_vect_complex_abs)
../src/asf/avr32/utils/libs/dsplib/at32ucr3fp/gcc\libdsp-at32ucr3fp-dspspeed_opt.a(op_dsp16_sqrt_at32uc.o)
                              ../src/asf/avr32/utils/libs/dsplib/at32ucr3fp/gcc\libdsp-at32ucr3fp-dspspeed_opt.a(vect_dsp16_complex_abs.o) (dsp16_op_sqrt)
../src/asf/avr32/utils/libs/dsplib/at32ucr3fp/gcc\libdsp-at32ucr3fp-dspspeed_opt.a(trans_dsp16_complex_fft_at32uc.o)
                              src/CustomDevices/ImageProcessor.o (dsp16_trans_complexfft)
../src/asf/avr32/utils/libs/dsplib/at32ucr3fp/gcc\libdsp-at32ucr3fp-dspspeed_opt.a(trans_dsp16_complex_ifft_at32uc.o)
                              src/CustomDevices/ImageProcessor.o (dsp16_trans_complexifft)
../src/asf/avr32/utils/libs/dsplib/at32ucr3fp/gcc\libdsp-at32ucr3fp-dspspeed_opt.a(trans_dsp16_real_complex_fft_at32uc.o)
                              src/CustomDevices/ImageProcessor.o (dsp16_trans_realcomplexfft)
../src/asf/avr32/utils/libs/dsplib/at32ucr3fp/gcc\libdsp-at32ucr3fp-dspspeed_opt.a(vect_dsp16_complex_conj_at32uc.o)
                              ../src/asf/avr32/utils/libs/dsplib/at32ucr3fp/gcc\libdsp-at32ucr3fp-dspspeed_opt.a(trans_dsp16_complex_ifft_at32uc.o) (dsp16_vect_complex_conj)
../src/asf/avr32/utils/libs/dsplib/at32ucr3fp/gcc\libdsp-at32ucr3fp-dspspeed_opt.a(trans_dsp16_twiddle_factors.o)
                              ../src/asf/avr32/utils/libs/dsplib/at32ucr3fp/gcc\libdsp-at32ucr3fp-dspspeed_opt.a(trans_dsp16_complex_fft_at32uc.o) (dsp16_twiddle_factors)
c:/program files (x86)/atmel/atmel studio 6.0/extensions/atmel/avrgcc/3.4.1.95/avrtoolchain/bin/../lib/gcc/avr32/4.4.3/ucr3fp\libgcc.a(_avr32_s32_to_f64.o)
                              src/main.o (__avr32_s32_to_f64)
c:/program files (x86)/atmel/atmel studio 6.0/extensions/atmel/avrgcc/3.4.1.95/avrtoolchain/bin/../lib/gcc/avr32/4.4.3/ucr3fp\libgcc.a(_avr32_f64_cmp_ge.o)
                              src/main.o (__avr32_f64_cmp_ge)
c:/program files (x86)/atmel/atmel studio 6.0/extensions/atmel/avrgcc/3.4.1.95/avrtoolchain/bin/../lib/gcc/avr32/4.4.3/../../../../avr32/lib/ucr3fp\libc.a(lib_a-atoi.o)
                              src/CustomDevices/OV7670.o (atoi)
c:/program files (x86)/atmel/atmel studio 6.0/extensions/atmel/avrgcc/3.4.1.95/avrtoolchain/bin/../lib/gcc/avr32/4.4.3/../../../../avr32/lib/ucr3fp\libc.a(lib_a-ctype_.o)
                              src/asf/avr32/services/fs/fat/navigation.o (__ctype_ptr)
c:/program files (x86)/atmel/atmel studio 6.0/extensions/atmel/avrgcc/3.4.1.95/avrtoolchain/bin/../lib/gcc/avr32/4.4.3/../../../../avr32/lib/ucr3fp\libc.a(lib_a-fprintf.o)
                              src/asf/thirdparty/dlmalloc/dlmalloc.o (fprintf)
c:/program files (x86)/atmel/atmel studio 6.0/extensions/atmel/avrgcc/3.4.1.95/avrtoolchain/bin/../lib/gcc/avr32/4.4.3/../../../../avr32/lib/ucr3fp\libc.a(lib_a-impure.o)
                              src/asf/thirdparty/dlmalloc/dlmalloc.o (_impure_ptr)
c:/program files (x86)/atmel/atmel studio 6.0/extensions/atmel/avrgcc/3.4.1.95/avrtoolchain/bin/../lib/gcc/avr32/4.4.3/../../../../avr32/lib/ucr3fp\libc.a(lib_a-memcmp.o)
                              src/asf/avr32/services/fs/fat/fat_unusual.o (memcmp)
c:/program files (x86)/atmel/atmel studio 6.0/extensions/atmel/avrgcc/3.4.1.95/avrtoolchain/bin/../lib/gcc/avr32/4.4.3/../../../../avr32/lib/ucr3fp\libc.a(lib_a-memcpy.o)
                              src/asf/avr32/drivers/flashc/flashc.o (memcpy)
c:/program files (x86)/atmel/atmel studio 6.0/extensions/atmel/avrgcc/3.4.1.95/avrtoolchain/bin/../lib/gcc/avr32/4.4.3/../../../../avr32/lib/ucr3fp\libc.a(lib_a-memset.o)
                              src/asf/avr32/services/fs/fat/fat.o (memset)
c:/program files (x86)/atmel/atmel studio 6.0/extensions/atmel/avrgcc/3.4.1.95/avrtoolchain/bin/../lib/gcc/avr32/4.4.3/../../../../avr32/lib/ucr3fp\libc.a(lib_a-sprintf.o)
                              src/CustomDevices/OV7670.o (sprintf)
c:/program files (x86)/atmel/atmel studio 6.0/extensions/atmel/avrgcc/3.4.1.95/avrtoolchain/bin/../lib/gcc/avr32/4.4.3/../../../../avr32/lib/ucr3fp\libc.a(lib_a-strtol.o)
                              c:/program files (x86)/atmel/atmel studio 6.0/extensions/atmel/avrgcc/3.4.1.95/avrtoolchain/bin/../lib/gcc/avr32/4.4.3/../../../../avr32/lib/ucr3fp\libc.a(lib_a-atoi.o) (_strtol_r)
c:/program files (x86)/atmel/atmel studio 6.0/extensions/atmel/avrgcc/3.4.1.95/avrtoolchain/bin/../lib/gcc/avr32/4.4.3/../../../../avr32/lib/ucr3fp\libc.a(lib_a-vfprintf.o)
                              c:/program files (x86)/atmel/atmel studio 6.0/extensions/atmel/avrgcc/3.4.1.95/avrtoolchain/bin/../lib/gcc/avr32/4.4.3/../../../../avr32/lib/ucr3fp\libc.a(lib_a-fprintf.o) (_vfprintf_r)
c:/program files (x86)/atmel/atmel studio 6.0/extensions/atmel/avrgcc/3.4.1.95/avrtoolchain/bin/../lib/gcc/avr32/4.4.3/../../../../avr32/lib/ucr3fp\libc.a(lib_a-wsetup.o)
                              c:/program files (x86)/atmel/atmel studio 6.0/extensions/atmel/avrgcc/3.4.1.95/avrtoolchain/bin/../lib/gcc/avr32/4.4.3/../../../../avr32/lib/ucr3fp\libc.a(lib_a-vfprintf.o) (__swsetup_r)
c:/program files (x86)/atmel/atmel studio 6.0/extensions/atmel/avrgcc/3.4.1.95/avrtoolchain/bin/../lib/gcc/avr32/4.4.3/../../../../avr32/lib/ucr3fp\libc.a(lib_a-dtoa.o)
                              c:/program files (x86)/atmel/atmel studio 6.0/extensions/atmel/avrgcc/3.4.1.95/avrtoolchain/bin/../lib/gcc/avr32/4.4.3/../../../../avr32/lib/ucr3fp\libc.a(lib_a-vfprintf.o) (_dtoa_r)
c:/program files (x86)/atmel/atmel studio 6.0/extensions/atmel/avrgcc/3.4.1.95/avrtoolchain/bin/../lib/gcc/avr32/4.4.3/../../../../avr32/lib/ucr3fp\libc.a(lib_a-fflush.o)
                              c:/program files (x86)/atmel/atmel studio 6.0/extensions/atmel/avrgcc/3.4.1.95/avrtoolchain/bin/../lib/gcc/avr32/4.4.3/../../../../avr32/lib/ucr3fp\libc.a(lib_a-vfprintf.o) (_fflush_r)
c:/program files (x86)/atmel/atmel studio 6.0/extensions/atmel/avrgcc/3.4.1.95/avrtoolchain/bin/../lib/gcc/avr32/4.4.3/../../../../avr32/lib/ucr3fp\libc.a(lib_a-findfp.o)
                              c:/program files (x86)/atmel/atmel studio 6.0/extensions/atmel/avrgcc/3.4.1.95/avrtoolchain/bin/../lib/gcc/avr32/4.4.3/../../../../avr32/lib/ucr3fp\libc.a(lib_a-vfprintf.o) (__sinit)
c:/program files (x86)/atmel/atmel studio 6.0/extensions/atmel/avrgcc/3.4.1.95/avrtoolchain/bin/../lib/gcc/avr32/4.4.3/../../../../avr32/lib/ucr3fp\libc.a(lib_a-freer.o)
                              c:/program files (x86)/atmel/atmel studio 6.0/extensions/atmel/avrgcc/3.4.1.95/avrtoolchain/bin/../lib/gcc/avr32/4.4.3/../../../../avr32/lib/ucr3fp\libc.a(lib_a-wsetup.o) (_free_r)
c:/program files (x86)/atmel/atmel studio 6.0/extensions/atmel/avrgcc/3.4.1.95/avrtoolchain/bin/../lib/gcc/avr32/4.4.3/../../../../avr32/lib/ucr3fp\libc.a(lib_a-fvwrite.o)
                              c:/program files (x86)/atmel/atmel studio 6.0/extensions/atmel/avrgcc/3.4.1.95/avrtoolchain/bin/../lib/gcc/avr32/4.4.3/../../../../avr32/lib/ucr3fp\libc.a(lib_a-vfprintf.o) (__sfvwrite_r)
c:/program files (x86)/atmel/atmel studio 6.0/extensions/atmel/avrgcc/3.4.1.95/avrtoolchain/bin/../lib/gcc/avr32/4.4.3/../../../../avr32/lib/ucr3fp\libc.a(lib_a-fwalk.o)
                              c:/program files (x86)/atmel/atmel studio 6.0/extensions/atmel/avrgcc/3.4.1.95/avrtoolchain/bin/../lib/gcc/avr32/4.4.3/../../../../avr32/lib/ucr3fp\libc.a(lib_a-fflush.o) (_fwalk_reent)
c:/program files (x86)/atmel/atmel studio 6.0/extensions/atmel/avrgcc/3.4.1.95/avrtoolchain/bin/../lib/gcc/avr32/4.4.3/../../../../avr32/lib/ucr3fp\libc.a(lib_a-locale.o)
                              c:/program files (x86)/atmel/atmel studio 6.0/extensions/atmel/avrgcc/3.4.1.95/avrtoolchain/bin/../lib/gcc/avr32/4.4.3/../../../../avr32/lib/ucr3fp\libc.a(lib_a-vfprintf.o) (_localeconv_r)
c:/program files (x86)/atmel/atmel studio 6.0/extensions/atmel/avrgcc/3.4.1.95/avrtoolchain/bin/../lib/gcc/avr32/4.4.3/../../../../avr32/lib/ucr3fp\libc.a(lib_a-makebuf.o)
                              c:/program files (x86)/atmel/atmel studio 6.0/extensions/atmel/avrgcc/3.4.1.95/avrtoolchain/bin/../lib/gcc/avr32/4.4.3/../../../../avr32/lib/ucr3fp\libc.a(lib_a-wsetup.o) (__smakebuf_r)
c:/program files (x86)/atmel/atmel studio 6.0/extensions/atmel/avrgcc/3.4.1.95/avrtoolchain/bin/../lib/gcc/avr32/4.4.3/../../../../avr32/lib/ucr3fp\libc.a(lib_a-mallocr.o)
                              c:/program files (x86)/atmel/atmel studio 6.0/extensions/atmel/avrgcc/3.4.1.95/avrtoolchain/bin/../lib/gcc/avr32/4.4.3/../../../../avr32/lib/ucr3fp\libc.a(lib_a-findfp.o) (_malloc_r)
c:/program files (x86)/atmel/atmel studio 6.0/extensions/atmel/avrgcc/3.4.1.95/avrtoolchain/bin/../lib/gcc/avr32/4.4.3/../../../../avr32/lib/ucr3fp\libc.a(lib_a-memchr.o)
                              c:/program files (x86)/atmel/atmel studio 6.0/extensions/atmel/avrgcc/3.4.1.95/avrtoolchain/bin/../lib/gcc/avr32/4.4.3/../../../../avr32/lib/ucr3fp\libc.a(lib_a-vfprintf.o) (memchr)
c:/program files (x86)/atmel/atmel studio 6.0/extensions/atmel/avrgcc/3.4.1.95/avrtoolchain/bin/../lib/gcc/avr32/4.4.3/../../../../avr32/lib/ucr3fp\libc.a(lib_a-memmove.o)
                              c:/program files (x86)/atmel/atmel studio 6.0/extensions/atmel/avrgcc/3.4.1.95/avrtoolchain/bin/../lib/gcc/avr32/4.4.3/../../../../avr32/lib/ucr3fp\libc.a(lib_a-fvwrite.o) (memmove)
c:/program files (x86)/atmel/atmel studio 6.0/extensions/atmel/avrgcc/3.4.1.95/avrtoolchain/bin/../lib/gcc/avr32/4.4.3/../../../../avr32/lib/ucr3fp\libc.a(lib_a-mlock.o)
                              c:/program files (x86)/atmel/atmel studio 6.0/extensions/atmel/avrgcc/3.4.1.95/avrtoolchain/bin/../lib/gcc/avr32/4.4.3/../../../../avr32/lib/ucr3fp\libc.a(lib_a-freer.o) (__malloc_lock)
c:/program files (x86)/atmel/atmel studio 6.0/extensions/atmel/avrgcc/3.4.1.95/avrtoolchain/bin/../lib/gcc/avr32/4.4.3/../../../../avr32/lib/ucr3fp\libc.a(lib_a-mprec.o)
                              c:/program files (x86)/atmel/atmel studio 6.0/extensions/atmel/avrgcc/3.4.1.95/avrtoolchain/bin/../lib/gcc/avr32/4.4.3/../../../../avr32/lib/ucr3fp\libc.a(lib_a-dtoa.o) (__hi0bits)
c:/program files (x86)/atmel/atmel studio 6.0/extensions/atmel/avrgcc/3.4.1.95/avrtoolchain/bin/../lib/gcc/avr32/4.4.3/../../../../avr32/lib/ucr3fp\libc.a(lib_a-reallocr.o)
                              c:/program files (x86)/atmel/atmel studio 6.0/extensions/atmel/avrgcc/3.4.1.95/avrtoolchain/bin/../lib/gcc/avr32/4.4.3/../../../../avr32/lib/ucr3fp\libc.a(lib_a-fvwrite.o) (_realloc_r)
c:/program files (x86)/atmel/atmel studio 6.0/extensions/atmel/avrgcc/3.4.1.95/avrtoolchain/bin/../lib/gcc/avr32/4.4.3/../../../../avr32/lib/ucr3fp\libc.a(lib_a-sbrkr.o)
                              c:/program files (x86)/atmel/atmel studio 6.0/extensions/atmel/avrgcc/3.4.1.95/avrtoolchain/bin/../lib/gcc/avr32/4.4.3/../../../../avr32/lib/ucr3fp\libc.a(lib_a-freer.o) (_sbrk_r)
c:/program files (x86)/atmel/atmel studio 6.0/extensions/atmel/avrgcc/3.4.1.95/avrtoolchain/bin/../lib/gcc/avr32/4.4.3/../../../../avr32/lib/ucr3fp\libc.a(lib_a-s_isinfd.o)
                              c:/program files (x86)/atmel/atmel studio 6.0/extensions/atmel/avrgcc/3.4.1.95/avrtoolchain/bin/../lib/gcc/avr32/4.4.3/../../../../avr32/lib/ucr3fp\libc.a(lib_a-vfprintf.o) (__isinfd)
c:/program files (x86)/atmel/atmel studio 6.0/extensions/atmel/avrgcc/3.4.1.95/avrtoolchain/bin/../lib/gcc/avr32/4.4.3/../../../../avr32/lib/ucr3fp\libc.a(lib_a-s_isnand.o)
                              c:/program files (x86)/atmel/atmel studio 6.0/extensions/atmel/avrgcc/3.4.1.95/avrtoolchain/bin/../lib/gcc/avr32/4.4.3/../../../../avr32/lib/ucr3fp\libc.a(lib_a-vfprintf.o) (__isnand)
c:/program files (x86)/atmel/atmel studio 6.0/extensions/atmel/avrgcc/3.4.1.95/avrtoolchain/bin/../lib/gcc/avr32/4.4.3/../../../../avr32/lib/ucr3fp\libc.a(lib_a-stdio.o)
                              c:/program files (x86)/atmel/atmel studio 6.0/extensions/atmel/avrgcc/3.4.1.95/avrtoolchain/bin/../lib/gcc/avr32/4.4.3/../../../../avr32/lib/ucr3fp\libc.a(lib_a-findfp.o) (__sclose)
c:/program files (x86)/atmel/atmel studio 6.0/extensions/atmel/avrgcc/3.4.1.95/avrtoolchain/bin/../lib/gcc/avr32/4.4.3/../../../../avr32/lib/ucr3fp\libc.a(lib_a-strcmp.o)
                              c:/program files (x86)/atmel/atmel studio 6.0/extensions/atmel/avrgcc/3.4.1.95/avrtoolchain/bin/../lib/gcc/avr32/4.4.3/../../../../avr32/lib/ucr3fp\libc.a(lib_a-locale.o) (strcmp)
c:/program files (x86)/atmel/atmel studio 6.0/extensions/atmel/avrgcc/3.4.1.95/avrtoolchain/bin/../lib/gcc/avr32/4.4.3/../../../../avr32/lib/ucr3fp\libc.a(lib_a-strlen.o)
                              c:/program files (x86)/atmel/atmel studio 6.0/extensions/atmel/avrgcc/3.4.1.95/avrtoolchain/bin/../lib/gcc/avr32/4.4.3/../../../../avr32/lib/ucr3fp\libc.a(lib_a-vfprintf.o) (strlen)
c:/program files (x86)/atmel/atmel studio 6.0/extensions/atmel/avrgcc/3.4.1.95/avrtoolchain/bin/../lib/gcc/avr32/4.4.3/../../../../avr32/lib/ucr3fp\libc.a(lib_a-syscalls.o)
                              c:/program files (x86)/atmel/atmel studio 6.0/extensions/atmel/avrgcc/3.4.1.95/avrtoolchain/bin/../lib/gcc/avr32/4.4.3/../../../../avr32/lib/ucr3fp\libc.a(lib_a-makebuf.o) (isatty)
c:/program files (x86)/atmel/atmel studio 6.0/extensions/atmel/avrgcc/3.4.1.95/avrtoolchain/bin/../lib/gcc/avr32/4.4.3/../../../../avr32/lib/ucr3fp\libc.a(lib_a-writer.o)
                              c:/program files (x86)/atmel/atmel studio 6.0/extensions/atmel/avrgcc/3.4.1.95/avrtoolchain/bin/../lib/gcc/avr32/4.4.3/../../../../avr32/lib/ucr3fp\libc.a(lib_a-stdio.o) (_write_r)
c:/program files (x86)/atmel/atmel studio 6.0/extensions/atmel/avrgcc/3.4.1.95/avrtoolchain/bin/../lib/gcc/avr32/4.4.3/../../../../avr32/lib/ucr3fp\libc.a(lib_a-callocr.o)
                              c:/program files (x86)/atmel/atmel studio 6.0/extensions/atmel/avrgcc/3.4.1.95/avrtoolchain/bin/../lib/gcc/avr32/4.4.3/../../../../avr32/lib/ucr3fp\libc.a(lib_a-mprec.o) (_calloc_r)
c:/program files (x86)/atmel/atmel studio 6.0/extensions/atmel/avrgcc/3.4.1.95/avrtoolchain/bin/../lib/gcc/avr32/4.4.3/../../../../avr32/lib/ucr3fp\libc.a(lib_a-closer.o)
                              c:/program files (x86)/atmel/atmel studio 6.0/extensions/atmel/avrgcc/3.4.1.95/avrtoolchain/bin/../lib/gcc/avr32/4.4.3/../../../../avr32/lib/ucr3fp\libc.a(lib_a-stdio.o) (_close_r)
c:/program files (x86)/atmel/atmel studio 6.0/extensions/atmel/avrgcc/3.4.1.95/avrtoolchain/bin/../lib/gcc/avr32/4.4.3/../../../../avr32/lib/ucr3fp\libc.a(lib_a-errno.o)
                              c:/program files (x86)/atmel/atmel studio 6.0/extensions/atmel/avrgcc/3.4.1.95/avrtoolchain/bin/../lib/gcc/avr32/4.4.3/../../../../avr32/lib/ucr3fp\libc.a(lib_a-syscalls.o) (__errno)
c:/program files (x86)/atmel/atmel studio 6.0/extensions/atmel/avrgcc/3.4.1.95/avrtoolchain/bin/../lib/gcc/avr32/4.4.3/../../../../avr32/lib/ucr3fp\libc.a(lib_a-fclose.o)
                              c:/program files (x86)/atmel/atmel studio 6.0/extensions/atmel/avrgcc/3.4.1.95/avrtoolchain/bin/../lib/gcc/avr32/4.4.3/../../../../avr32/lib/ucr3fp\libc.a(lib_a-findfp.o) (fclose)
c:/program files (x86)/atmel/atmel studio 6.0/extensions/atmel/avrgcc/3.4.1.95/avrtoolchain/bin/../lib/gcc/avr32/4.4.3/../../../../avr32/lib/ucr3fp\libc.a(lib_a-fstatr.o)
                              c:/program files (x86)/atmel/atmel studio 6.0/extensions/atmel/avrgcc/3.4.1.95/avrtoolchain/bin/../lib/gcc/avr32/4.4.3/../../../../avr32/lib/ucr3fp\libc.a(lib_a-makebuf.o) (_fstat_r)
c:/program files (x86)/atmel/atmel studio 6.0/extensions/atmel/avrgcc/3.4.1.95/avrtoolchain/bin/../lib/gcc/avr32/4.4.3/../../../../avr32/lib/ucr3fp\libc.a(lib_a-lseekr.o)
                              c:/program files (x86)/atmel/atmel studio 6.0/extensions/atmel/avrgcc/3.4.1.95/avrtoolchain/bin/../lib/gcc/avr32/4.4.3/../../../../avr32/lib/ucr3fp\libc.a(lib_a-stdio.o) (_lseek_r)
c:/program files (x86)/atmel/atmel studio 6.0/extensions/atmel/avrgcc/3.4.1.95/avrtoolchain/bin/../lib/gcc/avr32/4.4.3/../../../../avr32/lib/ucr3fp\libc.a(lib_a-readr.o)
                              c:/program files (x86)/atmel/atmel studio 6.0/extensions/atmel/avrgcc/3.4.1.95/avrtoolchain/bin/../lib/gcc/avr32/4.4.3/../../../../avr32/lib/ucr3fp\libc.a(lib_a-stdio.o) (_read_r)
c:/program files (x86)/atmel/atmel studio 6.0/extensions/atmel/avrgcc/3.4.1.95/avrtoolchain/bin/../lib/gcc/avr32/4.4.3/../../../../avr32/lib/ucr3fp\libc.a(lib_a-reent.o)
                              c:/program files (x86)/atmel/atmel studio 6.0/extensions/atmel/avrgcc/3.4.1.95/avrtoolchain/bin/../lib/gcc/avr32/4.4.3/../../../../avr32/lib/ucr3fp\libc.a(lib_a-sbrkr.o) (errno)
c:/program files (x86)/atmel/atmel studio 6.0/extensions/atmel/avrgcc/3.4.1.95/avrtoolchain/bin/../lib/gcc/avr32/4.4.3/ucr3fp\libgcc.a(_avr32_f64_mul.o)
                              c:/program files (x86)/atmel/atmel studio 6.0/extensions/atmel/avrgcc/3.4.1.95/avrtoolchain/bin/../lib/gcc/avr32/4.4.3/../../../../avr32/lib/ucr3fp\libc.a(lib_a-dtoa.o) (__avr32_f64_mul)
c:/program files (x86)/atmel/atmel studio 6.0/extensions/atmel/avrgcc/3.4.1.95/avrtoolchain/bin/../lib/gcc/avr32/4.4.3/ucr3fp\libgcc.a(_avr32_f64_addsub.o)
                              c:/program files (x86)/atmel/atmel studio 6.0/extensions/atmel/avrgcc/3.4.1.95/avrtoolchain/bin/../lib/gcc/avr32/4.4.3/../../../../avr32/lib/ucr3fp\libc.a(lib_a-dtoa.o) (__avr32_f64_sub)
c:/program files (x86)/atmel/atmel studio 6.0/extensions/atmel/avrgcc/3.4.1.95/avrtoolchain/bin/../lib/gcc/avr32/4.4.3/ucr3fp\libgcc.a(_avr32_f64_to_s32.o)
                              c:/program files (x86)/atmel/atmel studio 6.0/extensions/atmel/avrgcc/3.4.1.95/avrtoolchain/bin/../lib/gcc/avr32/4.4.3/../../../../avr32/lib/ucr3fp\libc.a(lib_a-dtoa.o) (__avr32_f64_to_s32)
c:/program files (x86)/atmel/atmel studio 6.0/extensions/atmel/avrgcc/3.4.1.95/avrtoolchain/bin/../lib/gcc/avr32/4.4.3/ucr3fp\libgcc.a(_avr32_f64_cmp_eq.o)
                              c:/program files (x86)/atmel/atmel studio 6.0/extensions/atmel/avrgcc/3.4.1.95/avrtoolchain/bin/../lib/gcc/avr32/4.4.3/../../../../avr32/lib/ucr3fp\libc.a(lib_a-vfprintf.o) (__avr32_f64_cmp_eq)
c:/program files (x86)/atmel/atmel studio 6.0/extensions/atmel/avrgcc/3.4.1.95/avrtoolchain/bin/../lib/gcc/avr32/4.4.3/ucr3fp\libgcc.a(_avr32_f64_cmp_lt.o)
                              c:/program files (x86)/atmel/atmel studio 6.0/extensions/atmel/avrgcc/3.4.1.95/avrtoolchain/bin/../lib/gcc/avr32/4.4.3/../../../../avr32/lib/ucr3fp\libc.a(lib_a-vfprintf.o) (__avr32_f64_cmp_lt)
c:/program files (x86)/atmel/atmel studio 6.0/extensions/atmel/avrgcc/3.4.1.95/avrtoolchain/bin/../lib/gcc/avr32/4.4.3/ucr3fp\libgcc.a(_avr32_f64_div.o)
                              c:/program files (x86)/atmel/atmel studio 6.0/extensions/atmel/avrgcc/3.4.1.95/avrtoolchain/bin/../lib/gcc/avr32/4.4.3/../../../../avr32/lib/ucr3fp\libc.a(lib_a-dtoa.o) (__avr32_f64_div)
c:/program files (x86)/atmel/atmel studio 6.0/extensions/atmel/avrgcc/3.4.1.95/avrtoolchain/bin/../lib/gcc/avr32/4.4.3/ucr3fp\libgcc.a(_udivdi3.o)
                              c:/program files (x86)/atmel/atmel studio 6.0/extensions/atmel/avrgcc/3.4.1.95/avrtoolchain/bin/../lib/gcc/avr32/4.4.3/../../../../avr32/lib/ucr3fp\libc.a(lib_a-vfprintf.o) (__avr32_udiv64)
c:/program files (x86)/atmel/atmel studio 6.0/extensions/atmel/avrgcc/3.4.1.95/avrtoolchain/bin/../lib/gcc/avr32/4.4.3/ucr3fp\libgcc.a(_umoddi3.o)
                              c:/program files (x86)/atmel/atmel studio 6.0/extensions/atmel/avrgcc/3.4.1.95/avrtoolchain/bin/../lib/gcc/avr32/4.4.3/../../../../avr32/lib/ucr3fp\libc.a(lib_a-vfprintf.o) (__avr32_umod64)

Allocating common symbols
Common symbol       size              file

g_segment_dest      0xc               src/asf/avr32/services/fs/fat/navigation.o
fs_gu32_addrsector  0x4               src/asf/avr32/services/fs/fat/fat.o
fs_g_nav_entry      0x10              src/asf/avr32/services/fs/fat/fat.o
fs_g_u16_pos_fat    0x2               src/asf/avr32/services/fs/fat/fat.o
data_mem            0x201             src/asf/avr32/components/memory/sd_mmc/sd_mmc_spi/sd_mmc_spi.o
errno               0x4               c:/program files (x86)/atmel/atmel studio 6.0/extensions/atmel/avrgcc/3.4.1.95/avrtoolchain/bin/../lib/gcc/avr32/4.4.3/../../../../avr32/lib/ucr3fp\libc.a(lib_a-reent.o)
g_b_no_check_disk   0x1               src/asf/avr32/services/fs/fat/fat.o
SD_Status           0x8               src/asf/common/boards/user_board/init.o
fs_g_cache_clusterlist
                    0x28              src/asf/avr32/services/fs/fat/fat.o
g_segment_src       0xc               src/asf/avr32/services/fs/fat/navigation.o
end_of_transfer     0x1               src/CustomDevices/SD_Card.o
fs_g_u32_last_mod_fat
                    0x4               src/asf/avr32/services/fs/fat/fat.o
fs_g_sector         0x200             src/asf/avr32/services/fs/fat/fat.o
capacity            0x8               src/asf/avr32/components/memory/sd_mmc/sd_mmc_spi/sd_mmc_spi.o
fs_g_nav            0x34              src/asf/avr32/services/fs/fat/fat.o
fs_g_u32_first_mod_fat
                    0x4               src/asf/avr32/services/fs/fat/fat.o
fs_g_navext_entry   0x10              src/asf/avr32/services/fs/fat/fat.o
fs_g_navext_fast    0x4               src/asf/avr32/services/fs/fat/fat.o
fs_g_nav_fast       0x4               src/asf/avr32/services/fs/fat/fat.o
fs_g_u8_nav_selected
                    0x1               src/asf/avr32/services/fs/fat/navigation.o
fs_g_status         0x1               src/asf/avr32/services/fs/fat/fat.o
g_b_string_length   0x1               src/asf/avr32/services/fs/fat/fat.o
pdca_channeltx      0x4               src/CustomDevices/SD_Card.o
fs_g_u8_current_cache
                    0x1               src/asf/avr32/services/fs/fat/fat.o
pdca_channelrx      0x4               src/CustomDevices/SD_Card.o
ram_buffer          0x3e8             src/CustomDevices/SD_Card.o
fs_s_u32_size_partition
                    0x4               src/asf/avr32/services/fs/fat/fat_unusual.o
capacity_mult       0x2               src/asf/avr32/components/memory/sd_mmc/sd_mmc_spi/sd_mmc_spi.o
fs_g_navext         0x34              src/asf/avr32/services/fs/fat/fat.o
PCA9542A            0x2               src/asf/common/boards/user_board/init.o
fs_g_sectorcache    0x14              src/asf/avr32/services/fs/fat/fat.o
OV7670_Status       0xc               src/CustomDevices/ImageProcessor.o
g_b_unicode         0x1               src/asf/avr32/services/fs/fat/fat.o
fs_g_cluster        0x8               src/asf/avr32/services/fs/fat/fat.o
fs_g_seg            0x8               src/asf/avr32/services/fs/fat/fat.o
erase_group_size    0x2               src/asf/avr32/components/memory/sd_mmc/sd_mmc_spi/sd_mmc_spi.o
sd_mmc_spi_last_block_address
                    0x4               src/asf/avr32/components/memory/sd_mmc/sd_mmc_spi/sd_mmc_spi.o
r2                  0x2               src/asf/avr32/components/memory/sd_mmc/sd_mmc_spi/sd_mmc_spi.o
card_type           0x1               src/asf/avr32/components/memory/sd_mmc/sd_mmc_spi/sd_mmc_spi.o
Columbus_Status     0x14              src/asf/common/boards/user_board/init.o
sdram_msp           0x4               src/asf/common/boards/user_board/init.o
pwm_channel         0x20              src/asf/common/boards/user_board/init.o
pwm_opt             0x1c              src/asf/common/boards/user_board/init.o
csd                 0x10              src/asf/avr32/components/memory/sd_mmc/sd_mmc_spi/sd_mmc_spi.o
Motor_Control       0x10              src/asf/common/boards/user_board/init.o
r1                  0x1               src/asf/avr32/components/memory/sd_mmc/sd_mmc_spi/sd_mmc_spi.o

Discarded input sections

 .text          0x00000000        0x0 src/asf/avr32/components/memory/sd_mmc/sd_mmc_spi/sd_mmc_spi.o
 .data          0x00000000        0x0 src/asf/avr32/components/memory/sd_mmc/sd_mmc_spi/sd_mmc_spi.o
 .bss           0x00000000        0x0 src/asf/avr32/components/memory/sd_mmc/sd_mmc_spi/sd_mmc_spi.o
 .text.sd_mmc_spi_read_close_PDCA
                0x00000000       0x48 src/asf/avr32/components/memory/sd_mmc/sd_mmc_spi/sd_mmc_spi.o
 .text.sd_mmc_spi_get_status
                0x00000000       0xd0 src/asf/avr32/components/memory/sd_mmc/sd_mmc_spi/sd_mmc_spi.o
 .text.is_sd_mmc_spi_write_pwd_locked
                0x00000000       0x40 src/asf/avr32/components/memory/sd_mmc/sd_mmc_spi/sd_mmc_spi.o
 .text.sd_mmc_spi_erase_sector_group
                0x00000000      0x11c src/asf/avr32/components/memory/sd_mmc/sd_mmc_spi/sd_mmc_spi.o
 .text.sd_mmc_spi_read_open_PDCA
                0x00000000       0xd0 src/asf/avr32/components/memory/sd_mmc/sd_mmc_spi/sd_mmc_spi.o
 .text.sd_mmc_spi_lock_operation
                0x00000000      0x1a8 src/asf/avr32/components/memory/sd_mmc/sd_mmc_spi/sd_mmc_spi.o
 .text.sd_mmc_spi_get_cid
                0x00000000       0xfc src/asf/avr32/components/memory/sd_mmc/sd_mmc_spi/sd_mmc_spi.o
 .text.sd_mmc_spi_write_multiple_sector
                0x00000000       0x30 src/asf/avr32/components/memory/sd_mmc/sd_mmc_spi/sd_mmc_spi.o
 .text.sd_mmc_spi_read_multiple_sector
                0x00000000       0x30 src/asf/avr32/components/memory/sd_mmc/sd_mmc_spi/sd_mmc_spi.o
 .bss.sector_buf
                0x00000000      0x200 src/asf/avr32/components/memory/sd_mmc/sd_mmc_spi/sd_mmc_spi.o
 .text          0x00000000        0x0 src/asf/avr32/components/memory/sd_mmc/sd_mmc_spi/sd_mmc_spi_mem.o
 .data          0x00000000        0x0 src/asf/avr32/components/memory/sd_mmc/sd_mmc_spi/sd_mmc_spi_mem.o
 .bss           0x00000000        0x0 src/asf/avr32/components/memory/sd_mmc/sd_mmc_spi/sd_mmc_spi_mem.o
 .text          0x00000000        0x0 src/asf/avr32/drivers/acifa/acifa.o
 .data          0x00000000        0x0 src/asf/avr32/drivers/acifa/acifa.o
 .bss           0x00000000        0x0 src/asf/avr32/drivers/acifa/acifa.o
 .text.acifa_configure_window
                0x00000000       0x36 src/asf/avr32/drivers/acifa/acifa.o
 .text.acifa_enable_output
                0x00000000       0x18 src/asf/avr32/drivers/acifa/acifa.o
 .text.acifa_configure_vccscale
                0x00000000       0x28 src/asf/avr32/drivers/acifa/acifa.o
 .text.acifa_stop
                0x00000000       0x26 src/asf/avr32/drivers/acifa/acifa.o
 .text.acifa_start_window
                0x00000000        0xe src/asf/avr32/drivers/acifa/acifa.o
 .text.acifa_is_ci_inside_window
                0x00000000        0x8 src/asf/avr32/drivers/acifa/acifa.o
 .text.acifa_clear_flags
                0x00000000        0x6 src/asf/avr32/drivers/acifa/acifa.o
 .text.acifa_enable_interrupt_inp_higher
                0x00000000       0x28 src/asf/avr32/drivers/acifa/acifa.o
 .text.acifa_enable_interrupt_inp_lower
                0x00000000       0x28 src/asf/avr32/drivers/acifa/acifa.o
 .text.acifa_enable_interrupt_toggle
                0x00000000       0x28 src/asf/avr32/drivers/acifa/acifa.o
 .text.acifa_enable_interrupt
                0x00000000        0x4 src/asf/avr32/drivers/acifa/acifa.o
 .text          0x00000000        0x0 src/asf/avr32/drivers/ebi/sdramc/sdramc.o
 .data          0x00000000        0x0 src/asf/avr32/drivers/ebi/sdramc/sdramc.o
 .bss           0x00000000        0x0 src/asf/avr32/drivers/ebi/sdramc/sdramc.o
 .text.sdram_enter_self_refresh
                0x00000000        0xa src/asf/avr32/drivers/ebi/sdramc/sdramc.o
 .text.sdram_exit_self_refresh
                0x00000000        0xa src/asf/avr32/drivers/ebi/sdramc/sdramc.o
 .text          0x00000000        0x0 src/asf/avr32/drivers/eic/eic.o
 .data          0x00000000        0x0 src/asf/avr32/drivers/eic/eic.o
 .bss           0x00000000        0x0 src/asf/avr32/drivers/eic/eic.o
 .text.eic_enable_lines
                0x00000000        0x4 src/asf/avr32/drivers/eic/eic.o
 .text.eic_disable_lines
                0x00000000        0x4 src/asf/avr32/drivers/eic/eic.o
 .text.eic_disable_line
                0x00000000        0xa src/asf/avr32/drivers/eic/eic.o
 .text.eic_is_line_enabled
                0x00000000       0x10 src/asf/avr32/drivers/eic/eic.o
 .text.eic_enable_interrupt_lines
                0x00000000        0x4 src/asf/avr32/drivers/eic/eic.o
 .text.eic_is_interrupt_line_enabled
                0x00000000       0x10 src/asf/avr32/drivers/eic/eic.o
 .text.eic_is_interrupt_line_pending
                0x00000000       0x10 src/asf/avr32/drivers/eic/eic.o
 .text.eic_clear_interrupt_lines
                0x00000000       0x10 src/asf/avr32/drivers/eic/eic.o
 .text.eic_disable_interrupt_lines
                0x00000000       0x10 src/asf/avr32/drivers/eic/eic.o
 .text          0x00000000        0x0 src/asf/avr32/drivers/flashc/flashc.o
 .data          0x00000000        0x0 src/asf/avr32/drivers/flashc/flashc.o
 .bss           0x00000000        0x0 src/asf/avr32/drivers/flashc/flashc.o
 .text.flashc_get_flash_size
                0x00000000       0x34 src/asf/avr32/drivers/flashc/flashc.o
 .text.flashc_get_page_count
                0x00000000       0x10 src/asf/avr32/drivers/flashc/flashc.o
 .text.flashc_get_page_count_per_region
                0x00000000       0x10 src/asf/avr32/drivers/flashc/flashc.o
 .text.flashc_get_region_first_page_number
                0x00000000       0x14 src/asf/avr32/drivers/flashc/flashc.o
 .text.flashc_get_wait_state
                0x00000000        0xc src/asf/avr32/drivers/flashc/flashc.o
 .text.flashc_set_bus_freq
                0x00000000       0x24 src/asf/avr32/drivers/flashc/flashc.o
 .text.flashc_is_ready_int_enabled
                0x00000000        0xc src/asf/avr32/drivers/flashc/flashc.o
 .text.flashc_enable_ready_int
                0x00000000        0xe src/asf/avr32/drivers/flashc/flashc.o
 .text.flashc_is_lock_error_int_enabled
                0x00000000        0xc src/asf/avr32/drivers/flashc/flashc.o
 .text.flashc_enable_lock_error_int
                0x00000000        0xe src/asf/avr32/drivers/flashc/flashc.o
 .text.flashc_is_prog_error_int_enabled
                0x00000000        0xc src/asf/avr32/drivers/flashc/flashc.o
 .text.flashc_enable_prog_error_int
                0x00000000        0xe src/asf/avr32/drivers/flashc/flashc.o
 .text.flashc_is_lock_error
                0x00000000       0x10 src/asf/avr32/drivers/flashc/flashc.o
 .text.flashc_is_programming_error
                0x00000000       0x10 src/asf/avr32/drivers/flashc/flashc.o
 .text.flashc_get_command
                0x00000000        0xc src/asf/avr32/drivers/flashc/flashc.o
 .text.flashc_get_page_number
                0x00000000        0xc src/asf/avr32/drivers/flashc/flashc.o
 .text.flashc_get_page_region
                0x00000000       0x28 src/asf/avr32/drivers/flashc/flashc.o
 .text.flashc_no_operation
                0x00000000       0x10 src/asf/avr32/drivers/flashc/flashc.o
 .text.flashc_erase_all
                0x00000000       0x10 src/asf/avr32/drivers/flashc/flashc.o
 .text.flashc_is_security_bit_active
                0x00000000        0xc src/asf/avr32/drivers/flashc/flashc.o
 .text.flashc_activate_security_bit
                0x00000000       0x10 src/asf/avr32/drivers/flashc/flashc.o
 .text.flashc_is_region_locked
                0x00000000       0x1a src/asf/avr32/drivers/flashc/flashc.o
 .text.flashc_is_page_region_locked
                0x00000000       0x14 src/asf/avr32/drivers/flashc/flashc.o
 .text.flashc_lock_page_region
                0x00000000       0x1c src/asf/avr32/drivers/flashc/flashc.o
 .text.flashc_lock_region
                0x00000000       0x1c src/asf/avr32/drivers/flashc/flashc.o
 .text.flashc_lock_all_regions
                0x00000000       0x2c src/asf/avr32/drivers/flashc/flashc.o
 .text.flashc_read_all_gp_fuses
                0x00000000       0x26 src/asf/avr32/drivers/flashc/flashc.o
 .text.flashc_read_gp_fuse_byte
                0x00000000       0x44 src/asf/avr32/drivers/flashc/flashc.o
 .text.flashc_read_gp_fuse_bitfield
                0x00000000       0x74 src/asf/avr32/drivers/flashc/flashc.o
 .text.flashc_get_bootloader_protected_size
                0x00000000       0x20 src/asf/avr32/drivers/flashc/flashc.o
 .text.flashc_read_gp_fuse_bit
                0x00000000       0x3c src/asf/avr32/drivers/flashc/flashc.o
 .text.flashc_is_external_privileged_fetch_locked
                0x00000000       0x14 src/asf/avr32/drivers/flashc/flashc.o
 .text.flashc_erase_gp_fuse_bit
                0x00000000       0x2c src/asf/avr32/drivers/flashc/flashc.o
 .text.flashc_erase_gp_fuse_bitfield
                0x00000000       0x8c src/asf/avr32/drivers/flashc/flashc.o
 .text.flashc_erase_all_gp_fuses
                0x00000000       0x30 src/asf/avr32/drivers/flashc/flashc.o
 .text.flashc_write_gp_fuse_bit
                0x00000000       0x18 src/asf/avr32/drivers/flashc/flashc.o
 .text.flashc_write_gp_fuse_bitfield
                0x00000000       0x4c src/asf/avr32/drivers/flashc/flashc.o
 .text.flashc_write_gp_fuse_byte
                0x00000000       0x18 src/asf/avr32/drivers/flashc/flashc.o
 .text.flashc_erase_gp_fuse_byte
                0x00000000       0x74 src/asf/avr32/drivers/flashc/flashc.o
 .text.flashc_write_all_gp_fuses
                0x00000000       0x3c src/asf/avr32/drivers/flashc/flashc.o
 .text.flashc_set_gp_fuse_bit
                0x00000000       0x20 src/asf/avr32/drivers/flashc/flashc.o
 .text.flashc_lock_external_privileged_fetch
                0x00000000       0x18 src/asf/avr32/drivers/flashc/flashc.o
 .text.flashc_set_gp_fuse_bitfield
                0x00000000       0x4c src/asf/avr32/drivers/flashc/flashc.o
 .text.flashc_set_gp_fuse_byte
                0x00000000       0x4c src/asf/avr32/drivers/flashc/flashc.o
 .text.flashc_set_all_gp_fuses
                0x00000000       0x54 src/asf/avr32/drivers/flashc/flashc.o
 .text.flashc_clear_page_buffer
                0x00000000       0x10 src/asf/avr32/drivers/flashc/flashc.o
 .text.flashc_is_page_erased
                0x00000000        0xc src/asf/avr32/drivers/flashc/flashc.o
 .text.flashc_quick_page_read
                0x00000000       0x18 src/asf/avr32/drivers/flashc/flashc.o
 .text.flashc_erase_page
                0x00000000       0x38 src/asf/avr32/drivers/flashc/flashc.o
 .text.flashc_erase_all_pages
                0x00000000       0x48 src/asf/avr32/drivers/flashc/flashc.o
 .text.flashc_write_page
                0x00000000       0x10 src/asf/avr32/drivers/flashc/flashc.o
 .text.flashc_quick_user_page_read
                0x00000000       0x18 src/asf/avr32/drivers/flashc/flashc.o
 .text.flashc_erase_user_page
                0x00000000       0x28 src/asf/avr32/drivers/flashc/flashc.o
 .text.flashc_write_user_page
                0x00000000       0x10 src/asf/avr32/drivers/flashc/flashc.o
 .text.flashc_memset64
                0x00000000      0x238 src/asf/avr32/drivers/flashc/flashc.o
 .text.flashc_memset32
                0x00000000       0x20 src/asf/avr32/drivers/flashc/flashc.o
 .text.flashc_memset16
                0x00000000       0x10 src/asf/avr32/drivers/flashc/flashc.o
 .text.flashc_memset8
                0x00000000       0x14 src/asf/avr32/drivers/flashc/flashc.o
 .text.flashc_memcpy
                0x00000000      0x100 src/asf/avr32/drivers/flashc/flashc.o
 .text.flashc_set_bootloader_protected_size
                0x00000000       0x54 src/asf/avr32/drivers/flashc/flashc.o
 .rodata.C.35.14427
                0x00000000       0x1e src/asf/avr32/drivers/flashc/flashc.o
 .text          0x00000000        0x0 src/asf/avr32/drivers/gpio/gpio.o
 .data          0x00000000        0x0 src/asf/avr32/drivers/gpio/gpio.o
 .bss           0x00000000        0x0 src/asf/avr32/drivers/gpio/gpio.o
 .text.gpio_enable_gpio_pin
                0x00000000       0x18 src/asf/avr32/drivers/gpio/gpio.o
 .text.gpio_enable_gpio
                0x00000000       0x28 src/asf/avr32/drivers/gpio/gpio.o
 .text.gpio_disable_pin_pull_up
                0x00000000       0x16 src/asf/avr32/drivers/gpio/gpio.o
 .text.gpio_enable_pin_pull_down
                0x00000000       0x1a src/asf/avr32/drivers/gpio/gpio.o
 .text.gpio_disable_pin_pull_down
                0x00000000       0x16 src/asf/avr32/drivers/gpio/gpio.o
 .text.gpio_enable_pin_buskeeper
                0x00000000       0x1a src/asf/avr32/drivers/gpio/gpio.o
 .text.gpio_disable_pin_buskeeper
                0x00000000       0x1a src/asf/avr32/drivers/gpio/gpio.o
 .text.gpio_configure_pin
                0x00000000      0x130 src/asf/avr32/drivers/gpio/gpio.o
 .text.gpio_configure_group
                0x00000000       0xae src/asf/avr32/drivers/gpio/gpio.o
 .text.gpio_get_gpio_pin_output_value
                0x00000000       0x16 src/asf/avr32/drivers/gpio/gpio.o
 .text.gpio_get_gpio_open_drain_pin_output_value
                0x00000000       0x1a src/asf/avr32/drivers/gpio/gpio.o
 .text.gpio_set_pin_high
                0x00000000       0x16 src/asf/avr32/drivers/gpio/gpio.o
 .text.gpio_set_group_high
                0x00000000        0xc src/asf/avr32/drivers/gpio/gpio.o
 .text.gpio_set_pin_low
                0x00000000       0x16 src/asf/avr32/drivers/gpio/gpio.o
 .text.gpio_set_group_low
                0x00000000        0xc src/asf/avr32/drivers/gpio/gpio.o
 .text.gpio_tgl_gpio_pin
                0x00000000       0x1c src/asf/avr32/drivers/gpio/gpio.o
 .text.gpio_toggle_pin
                0x00000000       0x16 src/asf/avr32/drivers/gpio/gpio.o
 .text.gpio_toggle_group
                0x00000000        0xc src/asf/avr32/drivers/gpio/gpio.o
 .text.gpio_set_gpio_open_drain_pin
                0x00000000       0x18 src/asf/avr32/drivers/gpio/gpio.o
 .text.gpio_clr_gpio_open_drain_pin
                0x00000000       0x1c src/asf/avr32/drivers/gpio/gpio.o
 .text.gpio_tgl_gpio_open_drain_pin
                0x00000000       0x1c src/asf/avr32/drivers/gpio/gpio.o
 .text.gpio_enable_pin_glitch_filter
                0x00000000       0x16 src/asf/avr32/drivers/gpio/gpio.o
 .text.gpio_disable_pin_glitch_filter
                0x00000000       0x16 src/asf/avr32/drivers/gpio/gpio.o
 .text.gpio_enable_pin_interrupt
                0x00000000       0x46 src/asf/avr32/drivers/gpio/gpio.o
 .text.gpio_disable_pin_interrupt
                0x00000000       0x16 src/asf/avr32/drivers/gpio/gpio.o
 .text.gpio_get_pin_interrupt_flag
                0x00000000       0x18 src/asf/avr32/drivers/gpio/gpio.o
 .text.gpio_clear_pin_interrupt_flag
                0x00000000       0x16 src/asf/avr32/drivers/gpio/gpio.o
 .text          0x00000000        0x0 src/asf/avr32/drivers/intc/exception.o
 .data          0x00000000        0x0 src/asf/avr32/drivers/intc/exception.o
 .bss           0x00000000        0x0 src/asf/avr32/drivers/intc/exception.o
 .text          0x00000000        0x0 src/asf/avr32/drivers/intc/intc.o
 .data          0x00000000        0x0 src/asf/avr32/drivers/intc/intc.o
 .bss           0x00000000        0x0 src/asf/avr32/drivers/intc/intc.o
 .text          0x00000000        0x0 src/asf/avr32/drivers/pdca/pdca.o
 .data          0x00000000        0x0 src/asf/avr32/drivers/pdca/pdca.o
 .bss           0x00000000        0x0 src/asf/avr32/drivers/pdca/pdca.o
 .debug_abbrev  0x00000000      0x2b5 src/asf/avr32/drivers/pdca/pdca.o
 .debug_info    0x00000000      0xf64 src/asf/avr32/drivers/pdca/pdca.o
 .debug_line    0x00000000      0x964 src/asf/avr32/drivers/pdca/pdca.o
 .debug_macinfo
                0x00000000   0x148e67 src/asf/avr32/drivers/pdca/pdca.o
 .text.pdca_get_handler
                0x00000000       0x14 src/asf/avr32/drivers/pdca/pdca.o
 .text.pdca_get_channel_status
                0x00000000       0x14 src/asf/avr32/drivers/pdca/pdca.o
 .text.pdca_disable
                0x00000000       0x10 src/asf/avr32/drivers/pdca/pdca.o
 .text.pdca_enable
                0x00000000       0x10 src/asf/avr32/drivers/pdca/pdca.o
 .text.pdca_get_load_size
                0x00000000       0x10 src/asf/avr32/drivers/pdca/pdca.o
 .text.pdca_get_reload_size
                0x00000000       0x10 src/asf/avr32/drivers/pdca/pdca.o
 .text.pdca_set_peripheral_select
                0x00000000       0x14 src/asf/avr32/drivers/pdca/pdca.o
 .text.pdca_set_transfer_size
                0x00000000       0x1c src/asf/avr32/drivers/pdca/pdca.o
 .text.pdca_disable_event_trigger
                0x00000000       0x14 src/asf/avr32/drivers/pdca/pdca.o
 .text.pdca_enable_event_trigger
                0x00000000       0x14 src/asf/avr32/drivers/pdca/pdca.o
 .text.pdca_enable_interrupt_transfer_error
                0x00000000       0x10 src/asf/avr32/drivers/pdca/pdca.o
 .text.pdca_enable_interrupt_transfer_complete
                0x00000000       0x10 src/asf/avr32/drivers/pdca/pdca.o
 .text.pdca_enable_interrupt_reload_counter_zero
                0x00000000       0x10 src/asf/avr32/drivers/pdca/pdca.o
 .text.pdca_get_transfer_status
                0x00000000       0x10 src/asf/avr32/drivers/pdca/pdca.o
 .text.pdca_disable_interrupt_reload_counter_zero
                0x00000000       0x1c src/asf/avr32/drivers/pdca/pdca.o
 .text.pdca_disable_interrupt_transfer_complete
                0x00000000       0x1c src/asf/avr32/drivers/pdca/pdca.o
 .text.pdca_disable_interrupt_transfer_error
                0x00000000       0x1c src/asf/avr32/drivers/pdca/pdca.o
 .text.pdca_reload_channel
                0x00000000       0x2c src/asf/avr32/drivers/pdca/pdca.o
 .text.pdca_load_channel
                0x00000000       0x2c src/asf/avr32/drivers/pdca/pdca.o
 .text.pdca_init_channel
                0x00000000       0x5c src/asf/avr32/drivers/pdca/pdca.o
 .debug_frame   0x00000000      0x200 src/asf/avr32/drivers/pdca/pdca.o
 .debug_loc     0x00000000      0x4cf src/asf/avr32/drivers/pdca/pdca.o
 .debug_pubnames
                0x00000000      0x275 src/asf/avr32/drivers/pdca/pdca.o
 .debug_aranges
                0x00000000       0xb8 src/asf/avr32/drivers/pdca/pdca.o
 .debug_ranges  0x00000000       0xb0 src/asf/avr32/drivers/pdca/pdca.o
 .debug_str     0x00000000      0x5f3 src/asf/avr32/drivers/pdca/pdca.o
 .comment       0x00000000       0x31 src/asf/avr32/drivers/pdca/pdca.o
 .text          0x00000000        0x0 src/asf/avr32/drivers/pm/pm_uc3c.o
 .data          0x00000000        0x0 src/asf/avr32/drivers/pm/pm_uc3c.o
 .bss           0x00000000        0x0 src/asf/avr32/drivers/pm/pm_uc3c.o
 .text.pm_wait_for_clk_ready
                0x00000000       0x1c src/asf/avr32/drivers/pm/pm_uc3c.o
 .text.pm_disable_module
                0x00000000       0x3c src/asf/avr32/drivers/pm/pm_uc3c.o
 .text.pm_enable_module
                0x00000000       0x3c src/asf/avr32/drivers/pm/pm_uc3c.o
 .text.pm_disable_clk_domain_div
                0x00000000       0x44 src/asf/avr32/drivers/pm/pm_uc3c.o
 .text.pm_set_clk_domain_div
                0x00000000       0x4c src/asf/avr32/drivers/pm/pm_uc3c.o
 .text.pm_config_mainclk_safety
                0x00000000       0x40 src/asf/avr32/drivers/pm/pm_uc3c.o
 .text          0x00000000        0x0 src/asf/avr32/drivers/pm/power_clocks_lib.o
 .data          0x00000000        0x0 src/asf/avr32/drivers/pm/power_clocks_lib.o
 .bss           0x00000000        0x0 src/asf/avr32/drivers/pm/power_clocks_lib.o
 .text.pcl_read_gplp
                0x00000000        0xc src/asf/avr32/drivers/pm/power_clocks_lib.o
 .text.pcl_write_gplp
                0x00000000        0xc src/asf/avr32/drivers/pm/power_clocks_lib.o
 .text.pcl_configure_usb_clock
                0x00000000       0x5c src/asf/avr32/drivers/pm/power_clocks_lib.o
 .text.pcl_configure_clocks
                0x00000000      0x1e4 src/asf/avr32/drivers/pm/power_clocks_lib.o
 .rodata.C.39.14852
                0x00000000       0x14 src/asf/avr32/drivers/pm/power_clocks_lib.o
 .text          0x00000000        0x0 src/asf/avr32/drivers/pwm/pwm4.o
 .data          0x00000000        0x0 src/asf/avr32/drivers/pwm/pwm4.o
 .bss           0x00000000        0x0 src/asf/avr32/drivers/pwm/pwm4.o
 .text.pwm_write_protect_hw_lock
                0x00000000       0xc8 src/asf/avr32/drivers/pwm/pwm4.o
 .text.pwm_write_protect_sw_lock
                0x00000000       0xbe src/asf/avr32/drivers/pwm/pwm4.o
 .text.pwm_write_protect_status
                0x00000000       0x16 src/asf/avr32/drivers/pwm/pwm4.o
 .text.pwm_update_channel
                0x00000000       0x40 src/asf/avr32/drivers/pwm/pwm4.o
 .text.pwm_interrupt_update_channel
                0x00000000       0x28 src/asf/avr32/drivers/pwm/pwm4.o
 .text.pwm_output_override_setup
                0x00000000       0x32 src/asf/avr32/drivers/pwm/pwm4.o
 .text.pwm_output_override_write
                0x00000000       0x60 src/asf/avr32/drivers/pwm/pwm4.o
 .text.pwm_synchronous_prepare_update
                0x00000000       0x38 src/asf/avr32/drivers/pwm/pwm4.o
 .text.pwm_update_manual_write_manual_update
                0x00000000        0xa src/asf/avr32/drivers/pwm/pwm4.o
 .text.pwm_update_manual_write_auto_update
                0x00000000        0xe src/asf/avr32/drivers/pwm/pwm4.o
 .text.pwm_update_auto_write_auto_update_check_ready
                0x00000000        0xe src/asf/avr32/drivers/pwm/pwm4.o
 .text.pwm_update_auto_write_auto_update_check_eot
                0x00000000        0xe src/asf/avr32/drivers/pwm/pwm4.o
 .text.pwm_fault_lines_polarity_setup
                0x00000000       0xb4 src/asf/avr32/drivers/pwm/pwm4.o
 .text.pwm_fault_lines_level_setup
                0x00000000       0x74 src/asf/avr32/drivers/pwm/pwm4.o
 .text.pwm_fault_lines_enable
                0x00000000       0x38 src/asf/avr32/drivers/pwm/pwm4.o
 .text.pwm_get_fault_status
                0x00000000        0x8 src/asf/avr32/drivers/pwm/pwm4.o
 .text.pwm_clr_fault_status
                0x00000000        0xe src/asf/avr32/drivers/pwm/pwm4.o
 .text.pwm_compare_match_setup
                0x00000000       0x46 src/asf/avr32/drivers/pwm/pwm4.o
 .text.pwm_compare_match_reload_setup
                0x00000000       0x3e src/asf/avr32/drivers/pwm/pwm4.o
 .text.pwm_compare_event_enable
                0x00000000       0x14 src/asf/avr32/drivers/pwm/pwm4.o
 .text.pwm_compare_event_disable
                0x00000000       0x1c src/asf/avr32/drivers/pwm/pwm4.o
 .text          0x00000000        0x0 src/asf/avr32/drivers/scif/scif_uc3c.o
 .data          0x00000000        0x0 src/asf/avr32/drivers/scif/scif_uc3c.o
 .bss           0x00000000        0x0 src/asf/avr32/drivers/scif/scif_uc3c.o
 .text.scif_read_gplp
                0x00000000        0xc src/asf/avr32/drivers/scif/scif_uc3c.o
 .text.scif_write_gplp
                0x00000000       0x16 src/asf/avr32/drivers/scif/scif_uc3c.o
 .text.scif_is_osc_ready
                0x00000000       0x1c src/asf/avr32/drivers/scif/scif_uc3c.o
 .text.scif_start_gclk
                0x00000000       0x3e src/asf/avr32/drivers/scif/scif_uc3c.o
 .text.scif_bod18_enable_irq
                0x00000000        0xa src/asf/avr32/drivers/scif/scif_uc3c.o
 .text.scif_bod18_clear_irq
                0x00000000        0xa src/asf/avr32/drivers/scif/scif_uc3c.o
 .text.scif_bod18_get_irq_status
                0x00000000        0xc src/asf/avr32/drivers/scif/scif_uc3c.o
 .text.scif_bod18_get_irq_enable_bit
                0x00000000        0xc src/asf/avr32/drivers/scif/scif_uc3c.o
 .text.scif_bod18_get_level
                0x00000000        0xc src/asf/avr32/drivers/scif/scif_uc3c.o
 .text.scif_bod33_enable_irq
                0x00000000        0xc src/asf/avr32/drivers/scif/scif_uc3c.o
 .text.scif_bod33_clear_irq
                0x00000000        0xc src/asf/avr32/drivers/scif/scif_uc3c.o
 .text.scif_bod33_get_irq_status
                0x00000000        0xc src/asf/avr32/drivers/scif/scif_uc3c.o
 .text.scif_bod33_get_irq_enable_bit
                0x00000000        0xc src/asf/avr32/drivers/scif/scif_uc3c.o
 .text.scif_bod33_get_level
                0x00000000        0xc src/asf/avr32/drivers/scif/scif_uc3c.o
 .text.scif_bod50_enable_irq
                0x00000000        0xc src/asf/avr32/drivers/scif/scif_uc3c.o
 .text.scif_bod50_clear_irq
                0x00000000        0xc src/asf/avr32/drivers/scif/scif_uc3c.o
 .text.scif_bod50_get_irq_status
                0x00000000        0xc src/asf/avr32/drivers/scif/scif_uc3c.o
 .text.scif_bod50_get_irq_enable_bit
                0x00000000        0xc src/asf/avr32/drivers/scif/scif_uc3c.o
 .text.scif_bod50_get_level
                0x00000000        0xc src/asf/avr32/drivers/scif/scif_uc3c.o
 .text.scif_bod50_disable_irq
                0x00000000       0x2a src/asf/avr32/drivers/scif/scif_uc3c.o
 .text.scif_bod33_disable_irq
                0x00000000       0x2a src/asf/avr32/drivers/scif/scif_uc3c.o
 .text.scif_bod18_disable_irq
                0x00000000       0x26 src/asf/avr32/drivers/scif/scif_uc3c.o
 .text.scif_stop_rc120M
                0x00000000       0x26 src/asf/avr32/drivers/scif/scif_uc3c.o
 .text.scif_start_rc120M
                0x00000000       0x24 src/asf/avr32/drivers/scif/scif_uc3c.o
 .text.scif_stop_rc8M
                0x00000000       0x26 src/asf/avr32/drivers/scif/scif_uc3c.o
 .text.scif_start_rc8M
                0x00000000       0x2e src/asf/avr32/drivers/scif/scif_uc3c.o
 .text.scif_stop_osc32
                0x00000000       0x26 src/asf/avr32/drivers/scif/scif_uc3c.o
 .text.scif_start_osc32
                0x00000000       0x4c src/asf/avr32/drivers/scif/scif_uc3c.o
 .text.scif_pll_disable
                0x00000000       0x44 src/asf/avr32/drivers/scif/scif_uc3c.o
 .text.scif_enable_extosc
                0x00000000       0x44 src/asf/avr32/drivers/scif/scif_uc3c.o
 .text.scif_configure_osc_extmode
                0x00000000       0x44 src/asf/avr32/drivers/scif/scif_uc3c.o
 .text.scif_stop_osc
                0x00000000       0x2c src/asf/avr32/drivers/scif/scif_uc3c.o
 .text.scif_start_osc
                0x00000000       0x94 src/asf/avr32/drivers/scif/scif_uc3c.o
 .text          0x00000000        0x0 src/asf/avr32/drivers/spi/spi.o
 .data          0x00000000        0x0 src/asf/avr32/drivers/spi/spi.o
 .bss           0x00000000        0x0 src/asf/avr32/drivers/spi/spi.o
 .text.spi_initSlave
                0x00000000       0x56 src/asf/avr32/drivers/spi/spi.o
 .text.spi_initTest
                0x00000000       0x10 src/asf/avr32/drivers/spi/spi.o
 .text.spi_disable
                0x00000000        0x6 src/asf/avr32/drivers/spi/spi.o
 .text.spi_is_enabled
                0x00000000        0x8 src/asf/avr32/drivers/spi/spi.o
 .text.spi_writeRegisterEmptyCheck
                0x00000000        0x8 src/asf/avr32/drivers/spi/spi.o
 .text.spi_variableSlaveWrite
                0x00000000       0x54 src/asf/avr32/drivers/spi/spi.o
 .text.spi_writeEndCheck
                0x00000000        0x8 src/asf/avr32/drivers/spi/spi.o
 .text.spi_readRegisterFullCheck
                0x00000000        0x8 src/asf/avr32/drivers/spi/spi.o
 .text.spi_getStatus
                0x00000000       0x2c src/asf/avr32/drivers/spi/spi.o
 .text          0x00000000        0x0 src/asf/avr32/drivers/twim/twim.o
 .data          0x00000000        0x0 src/asf/avr32/drivers/twim/twim.o
 .bss           0x00000000        0x0 src/asf/avr32/drivers/twim/twim.o
 .text.twim_chained_transfer
                0x00000000      0x1dc src/asf/avr32/drivers/twim/twim.o
 .text.twim_write_packet
                0x00000000       0xdc src/asf/avr32/drivers/twim/twim.o
 .text.twim_read
                0x00000000       0xd8 src/asf/avr32/drivers/twim/twim.o
 .text.twim_read_packet
                0x00000000      0x110 src/asf/avr32/drivers/twim/twim.o
 .text          0x00000000        0x0 src/asf/avr32/drivers/usart/usart.o
 .data          0x00000000        0x0 src/asf/avr32/drivers/usart/usart.o
 .bss           0x00000000        0x0 src/asf/avr32/drivers/usart/usart.o
 .text.usart_set_sync_master_baudrate
                0x00000000       0x28 src/asf/avr32/drivers/usart/usart.o
 .text.usart_spi_selectChip
                0x00000000        0x8 src/asf/avr32/drivers/usart/usart.o
 .text.usart_spi_unselectChip
                0x00000000       0x1e src/asf/avr32/drivers/usart/usart.o
 .text.usart_send_address
                0x00000000       0x34 src/asf/avr32/drivers/usart/usart.o
 .text.usart_get_echo_line
                0x00000000       0x50 src/asf/avr32/drivers/usart/usart.o
 .text.usart_init_spi_slave
                0x00000000       0x94 src/asf/avr32/drivers/usart/usart.o
 .text.usart_init_spi_master
                0x00000000       0xb0 src/asf/avr32/drivers/usart/usart.o
 .text.usart_init_lin_slave
                0x00000000       0x38 src/asf/avr32/drivers/usart/usart.o
 .text.usart_init_lin_master
                0x00000000       0x38 src/asf/avr32/drivers/usart/usart.o
 .text.usart_init_iso7816
                0x00000000       0xa4 src/asf/avr32/drivers/usart/usart.o
 .text.usart_init_sync_slave
                0x00000000       0xc8 src/asf/avr32/drivers/usart/usart.o
 .text.usart_init_sync_master
                0x00000000       0xdc src/asf/avr32/drivers/usart/usart.o
 .text.usart_init_rs232_tx_only
                0x00000000       0xd4 src/asf/avr32/drivers/usart/usart.o
 .text.usart_init_IrDA
                0x00000000       0x34 src/asf/avr32/drivers/usart/usart.o
 .text.usart_init_rs485
                0x00000000       0x24 src/asf/avr32/drivers/usart/usart.o
 .text.usart_init_modem
                0x00000000       0x24 src/asf/avr32/drivers/usart/usart.o
 .text.usart_init_hw_handshaking
                0x00000000       0x24 src/asf/avr32/drivers/usart/usart.o
 .rodata.str1.4
                0x00000000        0xc src/asf/avr32/drivers/usart/usart.o
 .text          0x00000000        0x0 src/asf/avr32/services/fs/fat/fat.o
 .data          0x00000000        0x0 src/asf/avr32/services/fs/fat/fat.o
 .bss           0x00000000        0x0 src/asf/avr32/services/fs/fat/fat.o
 .text.fat_entry_checkext
                0x00000000       0xa0 src/asf/avr32/services/fs/fat/fat.o
 .text.fat_check_nav_access_disk
                0x00000000       0x44 src/asf/avr32/services/fs/fat/fat.o
 .text.fat_copy_nav
                0x00000000       0x64 src/asf/avr32/services/fs/fat/fat.o
 .text          0x00000000        0x0 src/asf/avr32/services/fs/fat/fat_unusual.o
 .data          0x00000000        0x0 src/asf/avr32/services/fs/fat/fat_unusual.o
 .bss           0x00000000        0x0 src/asf/avr32/services/fs/fat/fat_unusual.o
 .text.fat_select_filesystem
                0x00000000      0x1b8 src/asf/avr32/services/fs/fat/fat_unusual.o
 .text.fat_translate_number_to_ascii
                0x00000000       0x38 src/asf/avr32/services/fs/fat/fat_unusual.o
 .text.fat_translatedate_number_to_ascii
                0x00000000       0xcc src/asf/avr32/services/fs/fat/fat_unusual.o
 .text.fat_translate_ascii_to_number
                0x00000000       0x7c src/asf/avr32/services/fs/fat/fat_unusual.o
 .text.fat_translatedate_ascii_to_number
                0x00000000       0xac src/asf/avr32/services/fs/fat/fat_unusual.o
 .text.fat_write_MBR
                0x00000000       0xcc src/asf/avr32/services/fs/fat/fat_unusual.o
 .text.fat_set_date
                0x00000000       0x40 src/asf/avr32/services/fs/fat/fat_unusual.o
 .text.fat_get_date
                0x00000000       0x38 src/asf/avr32/services/fs/fat/fat_unusual.o
 .text.fat_initialize_fat
                0x00000000       0x9c src/asf/avr32/services/fs/fat/fat_unusual.o
 .text.fat_write_PBR
                0x00000000      0x198 src/asf/avr32/services/fs/fat/fat_unusual.o
 .text.fat_read_fat32_FSInfo
                0x00000000       0x90 src/asf/avr32/services/fs/fat/fat_unusual.o
 .text.fat_getfreespace
                0x00000000       0xd0 src/asf/avr32/services/fs/fat/fat_unusual.o
 .text.fat_getfreespace_percent
                0x00000000      0x158 src/asf/avr32/services/fs/fat/fat_unusual.o
 .text.fat_entry_label
                0x00000000      0x100 src/asf/avr32/services/fs/fat/fat_unusual.o
 .text.fat_serialnumber
                0x00000000       0x9c src/asf/avr32/services/fs/fat/fat_unusual.o
 .text.fat_clean_zone
                0x00000000       0xc0 src/asf/avr32/services/fs/fat/fat_unusual.o
 .text.fat_format
                0x00000000       0x88 src/asf/avr32/services/fs/fat/fat_unusual.o
 .rodata.TableFAT12
                0x00000000       0x20 src/asf/avr32/services/fs/fat/fat_unusual.o
 .rodata.const_header_pbr
                0x00000000       0x20 src/asf/avr32/services/fs/fat/fat_unusual.o
 .rodata.TableFAT16
                0x00000000       0x40 src/asf/avr32/services/fs/fat/fat_unusual.o
 .rodata.const_header_fat12
                0x00000000        0x4 src/asf/avr32/services/fs/fat/fat_unusual.o
 .rodata.TableFAT32
                0x00000000       0x30 src/asf/avr32/services/fs/fat/fat_unusual.o
 .rodata.const_header_fat16
                0x00000000        0x4 src/asf/avr32/services/fs/fat/fat_unusual.o
 .rodata.const_header_fat32
                0x00000000        0xc src/asf/avr32/services/fs/fat/fat_unusual.o
 .rodata.const_tail_pbr
                0x00000000       0x1c src/asf/avr32/services/fs/fat/fat_unusual.o
 COMMON         0x00000000        0x4 src/asf/avr32/services/fs/fat/fat_unusual.o
 .text          0x00000000        0x0 src/asf/avr32/services/fs/fat/file.o
 .data          0x00000000        0x0 src/asf/avr32/services/fs/fat/file.o
 .bss           0x00000000        0x0 src/asf/avr32/services/fs/fat/file.o
 .text.file_load_segment_value
                0x00000000       0x1c src/asf/avr32/services/fs/fat/file.o
 .text.file_bof
                0x00000000       0x20 src/asf/avr32/services/fs/fat/file.o
 .text.file_getpos
                0x00000000       0x18 src/asf/avr32/services/fs/fat/file.o
 .text.file_flush
                0x00000000       0x1c src/asf/avr32/services/fs/fat/file.o
 .text.file_write
                0x00000000       0x80 src/asf/avr32/services/fs/fat/file.o
 .text.file_putc
                0x00000000       0x70 src/asf/avr32/services/fs/fat/file.o
 .text.file_set_eof
                0x00000000       0x44 src/asf/avr32/services/fs/fat/file.o
 .text.file_read
                0x00000000       0xf4 src/asf/avr32/services/fs/fat/file.o
 .text.file_ispresent
                0x00000000       0x18 src/asf/avr32/services/fs/fat/file.o
 .text          0x00000000        0x0 src/asf/avr32/services/fs/fat/navigation.o
 .data          0x00000000        0x0 src/asf/avr32/services/fs/fat/navigation.o
 .bss           0x00000000        0x0 src/asf/avr32/services/fs/fat/navigation.o
 .text.nav_string_length_enable
                0x00000000        0xc src/asf/avr32/services/fs/fat/navigation.o
 .text.nav_string_length_disable
                0x00000000        0xc src/asf/avr32/services/fs/fat/navigation.o
 .text.nav_checkdisk_disable
                0x00000000        0xc src/asf/avr32/services/fs/fat/navigation.o
 .text.nav_checkdisk_enable
                0x00000000        0xc src/asf/avr32/services/fs/fat/navigation.o
 .text.nav_get  0x00000000        0xc src/asf/avr32/services/fs/fat/navigation.o
 .text.nav_drive_get
                0x00000000        0xc src/asf/avr32/services/fs/fat/navigation.o
 .text.nav_drive_getname
                0x00000000       0x1c src/asf/avr32/services/fs/fat/navigation.o
 .text.nav_partition_cluster_size
                0x00000000        0xc src/asf/avr32/services/fs/fat/navigation.o
 .text.nav_filelist_get
                0x00000000        0xc src/asf/avr32/services/fs/fat/navigation.o
 .text.nav_file_lgt
                0x00000000        0xc src/asf/avr32/services/fs/fat/navigation.o
 .text.nav_file_lgtsector
                0x00000000       0x10 src/asf/avr32/services/fs/fat/navigation.o
 .text.nav_file_attributget
                0x00000000        0xc src/asf/avr32/services/fs/fat/navigation.o
 .text.nav_filelist_validpos
                0x00000000        0xc src/asf/avr32/services/fs/fat/navigation.o
 .text.nav_file_attributset
                0x00000000       0x48 src/asf/avr32/services/fs/fat/navigation.o
 .text.nav_file_dateset
                0x00000000       0x38 src/asf/avr32/services/fs/fat/navigation.o
 .text.nav_file_dateget
                0x00000000       0x30 src/asf/avr32/services/fs/fat/navigation.o
 .text.nav_file_checkext
                0x00000000       0x2c src/asf/avr32/services/fs/fat/navigation.o
 .text.nav_file_isreadonly
                0x00000000       0x30 src/asf/avr32/services/fs/fat/navigation.o
 .text.nav_file_getname
                0x00000000       0x10 src/asf/avr32/services/fs/fat/navigation.o
 .text.nav_filelist_fileisnotopen
                0x00000000        0xc src/asf/avr32/services/fs/fat/navigation.o
 .text.nav_dir_is_root
                0x00000000       0x1c src/asf/avr32/services/fs/fat/navigation.o
 .text.nav_filelist_bol
                0x00000000       0x1c src/asf/avr32/services/fs/fat/navigation.o
 .text.nav_filelist_eol
                0x00000000       0x48 src/asf/avr32/services/fs/fat/navigation.o
 .text.nav_dir_name
                0x00000000      0x104 src/asf/avr32/services/fs/fat/navigation.o
 .text.nav_file_rename
                0x00000000       0x90 src/asf/avr32/services/fs/fat/navigation.o
 .text.nav_filelist_exist
                0x00000000       0x3c src/asf/avr32/services/fs/fat/navigation.o
 .text.nav_filelist_goto
                0x00000000       0x8c src/asf/avr32/services/fs/fat/navigation.o
 .text.nav_filelist_single_disable
                0x00000000       0x18 src/asf/avr32/services/fs/fat/navigation.o
 .text.nav_filelist_single_enable
                0x00000000       0x28 src/asf/avr32/services/fs/fat/navigation.o
 .text.nav_partition_space
                0x00000000       0x2c src/asf/avr32/services/fs/fat/navigation.o
 .text.nav_partition_freespace_percent
                0x00000000       0x28 src/asf/avr32/services/fs/fat/navigation.o
 .text.nav_partition_freespace
                0x00000000       0x28 src/asf/avr32/services/fs/fat/navigation.o
 .text.nav_partition_serialnumber
                0x00000000       0x24 src/asf/avr32/services/fs/fat/navigation.o
 .text.nav_partition_type
                0x00000000       0x28 src/asf/avr32/services/fs/fat/navigation.o
 .text.nav_drive_format
                0x00000000       0x38 src/asf/avr32/services/fs/fat/navigation.o
 .text.nav_getcwd
                0x00000000      0x18c src/asf/avr32/services/fs/fat/navigation.o
 .text.nav_partition_label
                0x00000000       0xac src/asf/avr32/services/fs/fat/navigation.o
 .text.nav_copy
                0x00000000       0x28 src/asf/avr32/services/fs/fat/navigation.o
 .text.nav_file_copy
                0x00000000       0x24 src/asf/avr32/services/fs/fat/navigation.o
 .text.nav_file_paste_state
                0x00000000      0x1e0 src/asf/avr32/services/fs/fat/navigation.o
 .text.nav_file_paste_start
                0x00000000       0x84 src/asf/avr32/services/fs/fat/navigation.o
 .text.nav_exit
                0x00000000       0x28 src/asf/avr32/services/fs/fat/navigation.o
 .data.g_id_trans_memtomem
                0x00000000        0x1 src/asf/avr32/services/fs/fat/navigation.o
 .rodata.CSWTCH.77
                0x00000000        0x4 src/asf/avr32/services/fs/fat/navigation.o
 .text          0x00000000        0x0 src/asf/avr32/utils/debug/print_funcs.o
 .data          0x00000000        0x0 src/asf/avr32/utils/debug/print_funcs.o
 .bss           0x00000000        0x0 src/asf/avr32/utils/debug/print_funcs.o
 .text.print_short_hex
                0x00000000       0x4c src/asf/avr32/utils/debug/print_funcs.o
 .text.print_dbg_short_hex
                0x00000000       0x14 src/asf/avr32/utils/debug/print_funcs.o
 .text.print_char_hex
                0x00000000       0x30 src/asf/avr32/utils/debug/print_funcs.o
 .text.print_dbg_char_hex
                0x00000000       0x14 src/asf/avr32/utils/debug/print_funcs.o
 .text          0x00000000        0x0 src/asf/avr32/utils/startup/startup_uc3.o
 .data          0x00000000        0x0 src/asf/avr32/utils/startup/startup_uc3.o
 .bss           0x00000000        0x0 src/asf/avr32/utils/startup/startup_uc3.o
 .reset         0x00000000        0x8 src/asf/avr32/utils/startup/startup_uc3.o
 .text          0x00000000        0x0 src/asf/avr32/utils/startup/trampoline_uc3.o
 .data          0x00000000        0x0 src/asf/avr32/utils/startup/trampoline_uc3.o
 .bss           0x00000000        0x0 src/asf/avr32/utils/startup/trampoline_uc3.o
 .text          0x00000000        0x0 src/asf/common/boards/user_board/init.o
 .data          0x00000000        0x0 src/asf/common/boards/user_board/init.o
 .bss           0x00000000        0x0 src/asf/common/boards/user_board/init.o
 .text          0x00000000        0x0 src/asf/common/services/clock/uc3c/osc.o
 .data          0x00000000        0x0 src/asf/common/services/clock/uc3c/osc.o
 .bss           0x00000000        0x0 src/asf/common/services/clock/uc3c/osc.o
 .debug_abbrev  0x00000000      0x1b9 src/asf/common/services/clock/uc3c/osc.o
 .debug_info    0x00000000     0x146b src/asf/common/services/clock/uc3c/osc.o
 .debug_line    0x00000000      0x963 src/asf/common/services/clock/uc3c/osc.o
 .debug_macinfo
                0x00000000   0x14ac06 src/asf/common/services/clock/uc3c/osc.o
 .text.osc_priv_disable_rc120m
                0x00000000       0x1e src/asf/common/services/clock/uc3c/osc.o
 .text.osc_priv_enable_rc120m
                0x00000000       0x1e src/asf/common/services/clock/uc3c/osc.o
 .text.osc_priv_disable_rc8m
                0x00000000       0x26 src/asf/common/services/clock/uc3c/osc.o
 .text.osc_priv_enable_rc8m
                0x00000000       0x3a src/asf/common/services/clock/uc3c/osc.o
 .text.osc_priv_disable_osc32
                0x00000000       0x1e src/asf/common/services/clock/uc3c/osc.o
 .text.osc_priv_enable_osc32
                0x00000000       0x20 src/asf/common/services/clock/uc3c/osc.o
 .text.osc_priv_disable_osc0
                0x00000000       0x1c src/asf/common/services/clock/uc3c/osc.o
 .text.osc_priv_enable_osc0
                0x00000000       0x1e src/asf/common/services/clock/uc3c/osc.o
 .debug_frame   0x00000000       0x90 src/asf/common/services/clock/uc3c/osc.o
 .debug_loc     0x00000000       0x1e src/asf/common/services/clock/uc3c/osc.o
 .debug_pubnames
                0x00000000       0xe4 src/asf/common/services/clock/uc3c/osc.o
 .debug_aranges
                0x00000000       0x58 src/asf/common/services/clock/uc3c/osc.o
 .debug_ranges  0x00000000       0x50 src/asf/common/services/clock/uc3c/osc.o
 .debug_str     0x00000000      0x66f src/asf/common/services/clock/uc3c/osc.o
 .comment       0x00000000       0x31 src/asf/common/services/clock/uc3c/osc.o
 .text          0x00000000        0x0 src/asf/common/services/clock/uc3c/pll.o
 .data          0x00000000        0x0 src/asf/common/services/clock/uc3c/pll.o
 .bss           0x00000000        0x0 src/asf/common/services/clock/uc3c/pll.o
 .debug_abbrev  0x00000000      0x1e0 src/asf/common/services/clock/uc3c/pll.o
 .debug_info    0x00000000     0x12e8 src/asf/common/services/clock/uc3c/pll.o
 .debug_line    0x00000000      0x89b src/asf/common/services/clock/uc3c/pll.o
 .debug_macinfo
                0x00000000   0x14afb8 src/asf/common/services/clock/uc3c/pll.o
 .text.pll_disable
                0x00000000       0x22 src/asf/common/services/clock/uc3c/pll.o
 .text.pll_enable
                0x00000000       0x24 src/asf/common/services/clock/uc3c/pll.o
 .text.pll_config_write
                0x00000000       0x22 src/asf/common/services/clock/uc3c/pll.o
 .debug_frame   0x00000000       0x40 src/asf/common/services/clock/uc3c/pll.o
 .debug_loc     0x00000000       0x39 src/asf/common/services/clock/uc3c/pll.o
 .debug_pubnames
                0x00000000       0x46 src/asf/common/services/clock/uc3c/pll.o
 .debug_aranges
                0x00000000       0x30 src/asf/common/services/clock/uc3c/pll.o
 .debug_ranges  0x00000000       0x28 src/asf/common/services/clock/uc3c/pll.o
 .debug_str     0x00000000      0x5e6 src/asf/common/services/clock/uc3c/pll.o
 .comment       0x00000000       0x31 src/asf/common/services/clock/uc3c/pll.o
 .text          0x00000000        0x0 src/asf/common/services/clock/uc3c/sysclk.o
 .data          0x00000000        0x0 src/asf/common/services/clock/uc3c/sysclk.o
 .bss           0x00000000        0x0 src/asf/common/services/clock/uc3c/sysclk.o
 .debug_abbrev  0x00000000      0x2b4 src/asf/common/services/clock/uc3c/sysclk.o
 .debug_info    0x00000000     0x24f5 src/asf/common/services/clock/uc3c/sysclk.o
 .debug_line    0x00000000      0x9c6 src/asf/common/services/clock/uc3c/sysclk.o
 .debug_macinfo
                0x00000000   0x14c04e src/asf/common/services/clock/uc3c/sysclk.o
 .text.sysclk_disable_usb
                0x00000000        0xc src/asf/common/services/clock/uc3c/sysclk.o
 .text.sysclk_set_source
                0x00000000       0x1a src/asf/common/services/clock/uc3c/sysclk.o
 .text.sysclk_set_prescalers
                0x00000000       0x66 src/asf/common/services/clock/uc3c/sysclk.o
 .text.sysclk_priv_disable_module
                0x00000000       0x36 src/asf/common/services/clock/uc3c/sysclk.o
 .text.sysclk_priv_enable_module
                0x00000000       0x34 src/asf/common/services/clock/uc3c/sysclk.o
 .text.sysclk_enable_usb
                0x00000000       0x78 src/asf/common/services/clock/uc3c/sysclk.o
 .text.sysclk_init
                0x00000000       0x34 src/asf/common/services/clock/uc3c/sysclk.o
 .debug_frame   0x00000000       0xb0 src/asf/common/services/clock/uc3c/sysclk.o
 .debug_loc     0x00000000      0x1f3 src/asf/common/services/clock/uc3c/sysclk.o
 .debug_pubnames
                0x00000000       0xbc src/asf/common/services/clock/uc3c/sysclk.o
 .debug_aranges
                0x00000000       0x50 src/asf/common/services/clock/uc3c/sysclk.o
 .debug_ranges  0x00000000       0x48 src/asf/common/services/clock/uc3c/sysclk.o
 .debug_str     0x00000000      0xc6d src/asf/common/services/clock/uc3c/sysclk.o
 .comment       0x00000000       0x31 src/asf/common/services/clock/uc3c/sysclk.o
 .text          0x00000000        0x0 src/asf/common/services/storage/ctrl_access/ctrl_access.o
 .data          0x00000000        0x0 src/asf/common/services/storage/ctrl_access/ctrl_access.o
 .bss           0x00000000        0x0 src/asf/common/services/storage/ctrl_access/ctrl_access.o
 .text.get_cur_lun
                0x00000000        0x2 src/asf/common/services/storage/ctrl_access/ctrl_access.o
 .text.mem_removal
                0x00000000       0x14 src/asf/common/services/storage/ctrl_access/ctrl_access.o
 .text.mem_name
                0x00000000       0x10 src/asf/common/services/storage/ctrl_access/ctrl_access.o
 .text.stream_mem_to_mem
                0x00000000       0x4c src/asf/common/services/storage/ctrl_access/ctrl_access.o
 .text.stream_state
                0x00000000        0x2 src/asf/common/services/storage/ctrl_access/ctrl_access.o
 .text.stream_stop
                0x00000000        0x2 src/asf/common/services/storage/ctrl_access/ctrl_access.o
 .bss.sector_buf.14654
                0x00000000      0x200 src/asf/common/services/storage/ctrl_access/ctrl_access.o
 .text          0x00000000        0x0 src/asf/thirdparty/dlmalloc/dlmalloc.o
 .data          0x00000000        0x0 src/asf/thirdparty/dlmalloc/dlmalloc.o
 .bss           0x00000000        0x0 src/asf/thirdparty/dlmalloc/dlmalloc.o
 .text.change_mparam
                0x00000000       0x50 src/asf/thirdparty/dlmalloc/dlmalloc.o
 .text.internal_mallinfo
                0x00000000       0xc6 src/asf/thirdparty/dlmalloc/dlmalloc.o
 .text.malloc_footprint
                0x00000000        0xc src/asf/thirdparty/dlmalloc/dlmalloc.o
 .text.malloc_max_footprint
                0x00000000        0xc src/asf/thirdparty/dlmalloc/dlmalloc.o
 .text.mallinfo
                0x00000000       0x1c src/asf/thirdparty/dlmalloc/dlmalloc.o
 .text.malloc_usable_size
                0x00000000       0x30 src/asf/thirdparty/dlmalloc/dlmalloc.o
 .text.mallopt  0x00000000        0xc src/asf/thirdparty/dlmalloc/dlmalloc.o
 .text.mspace_footprint
                0x00000000        0x6 src/asf/thirdparty/dlmalloc/dlmalloc.o
 .text.mspace_max_footprint
                0x00000000        0x6 src/asf/thirdparty/dlmalloc/dlmalloc.o
 .text.mspace_mallinfo
                0x00000000       0x14 src/asf/thirdparty/dlmalloc/dlmalloc.o
 .text.mspace_mallopt
                0x00000000        0xc src/asf/thirdparty/dlmalloc/dlmalloc.o
 .text.internal_malloc_stats
                0x00000000       0xd0 src/asf/thirdparty/dlmalloc/dlmalloc.o
 .text.mspace_malloc_stats
                0x00000000        0xc src/asf/thirdparty/dlmalloc/dlmalloc.o
 .text.malloc_stats
                0x00000000       0x14 src/asf/thirdparty/dlmalloc/dlmalloc.o
 .text.destroy_mspace
                0x00000000       0x38 src/asf/thirdparty/dlmalloc/dlmalloc.o
 .text.mspace_trim
                0x00000000        0xc src/asf/thirdparty/dlmalloc/dlmalloc.o
 .text.malloc_trim
                0x00000000       0x14 src/asf/thirdparty/dlmalloc/dlmalloc.o
 .text.ialloc   0x00000000      0x188 src/asf/thirdparty/dlmalloc/dlmalloc.o
 .text.mspace_independent_comalloc
                0x00000000       0x10 src/asf/thirdparty/dlmalloc/dlmalloc.o
 .text.mspace_independent_calloc
                0x00000000       0x20 src/asf/thirdparty/dlmalloc/dlmalloc.o
 .text.independent_comalloc
                0x00000000       0x1c src/asf/thirdparty/dlmalloc/dlmalloc.o
 .text.independent_calloc
                0x00000000       0x28 src/asf/thirdparty/dlmalloc/dlmalloc.o
 .text.internal_memalign
                0x00000000      0x1a4 src/asf/thirdparty/dlmalloc/dlmalloc.o
 .text.mspace_memalign
                0x00000000        0xc src/asf/thirdparty/dlmalloc/dlmalloc.o
 .text.memalign
                0x00000000       0x18 src/asf/thirdparty/dlmalloc/dlmalloc.o
 .text.pvalloc  0x00000000       0x34 src/asf/thirdparty/dlmalloc/dlmalloc.o
 .text.valloc   0x00000000       0x24 src/asf/thirdparty/dlmalloc/dlmalloc.o
 .text.internal_realloc
                0x00000000      0x1a4 src/asf/thirdparty/dlmalloc/dlmalloc.o
 .text.mspace_realloc
                0x00000000       0x1c src/asf/thirdparty/dlmalloc/dlmalloc.o
 .text.mspace_calloc
                0x00000000       0x74 src/asf/thirdparty/dlmalloc/dlmalloc.o
 .text.realloc  0x00000000       0x28 src/asf/thirdparty/dlmalloc/dlmalloc.o
 .text.calloc   0x00000000       0x5c src/asf/thirdparty/dlmalloc/dlmalloc.o
 .text.create_mspace
                0x00000000       0x70 src/asf/thirdparty/dlmalloc/dlmalloc.o
 .rodata.str1.4
                0x00000000       0x54 src/asf/thirdparty/dlmalloc/dlmalloc.o
 .text          0x00000000        0x0 src/asf/thirdparty/dlmalloc/dlsbrk.o
 .data          0x00000000        0x0 src/asf/thirdparty/dlmalloc/dlsbrk.o
 .bss           0x00000000        0x0 src/asf/thirdparty/dlmalloc/dlsbrk.o
 .text          0x00000000        0x0 src/CustomDevices/Bitmap.o
 .data          0x00000000        0x0 src/CustomDevices/Bitmap.o
 .bss           0x00000000        0x0 src/CustomDevices/Bitmap.o
 .text          0x00000000        0x0 src/CustomDevices/ImageProcessor.o
 .data          0x00000000        0x0 src/CustomDevices/ImageProcessor.o
 .bss           0x00000000        0x0 src/CustomDevices/ImageProcessor.o
 .text.ComplexMultiply
                0x00000000       0x6e src/CustomDevices/ImageProcessor.o
 .text.IFFT2D   0x00000000      0x148 src/CustomDevices/ImageProcessor.o
 .text.PrepareImage
                0x00000000       0x7c src/CustomDevices/ImageProcessor.o
 .text.Complex_Abs
                0x00000000       0x60 src/CustomDevices/ImageProcessor.o
 .text          0x00000000        0x0 src/CustomDevices/MotorDriver.o
 .data          0x00000000        0x0 src/CustomDevices/MotorDriver.o
 .bss           0x00000000        0x0 src/CustomDevices/MotorDriver.o
 .text          0x00000000        0x0 src/CustomDevices/OV7670.o
 .data          0x00000000        0x0 src/CustomDevices/OV7670.o
 .bss           0x00000000        0x0 src/CustomDevices/OV7670.o
 .text.Read_Reg
                0x00000000       0x48 src/CustomDevices/OV7670.o
 .text          0x00000000        0x0 src/CustomDevices/OV7670_Setup.o
 .data          0x00000000        0x0 src/CustomDevices/OV7670_Setup.o
 .bss           0x00000000        0x0 src/CustomDevices/OV7670_Setup.o
 .text          0x00000000        0x0 src/CustomDevices/PCA9542A.o
 .data          0x00000000        0x0 src/CustomDevices/PCA9542A.o
 .bss           0x00000000        0x0 src/CustomDevices/PCA9542A.o
 .text.PCA9542A_Init
                0x00000000       0x4c src/CustomDevices/PCA9542A.o
 .text          0x00000000        0x0 src/CustomDevices/SD_Card.o
 .data          0x00000000        0x0 src/CustomDevices/SD_Card.o
 .bss           0x00000000        0x0 src/CustomDevices/SD_Card.o
 .text.wait     0x00000000       0x24 src/CustomDevices/SD_Card.o
 .text.Log_Write
                0x00000000       0x44 src/CustomDevices/SD_Card.o
 .text.Log_Write_ulong
                0x00000000       0x4c src/CustomDevices/SD_Card.o
 .text.local_pdca_init
                0x00000000       0x70 src/CustomDevices/SD_Card.o
 .text.pdca_int_handler
                0x00000000       0x3c src/CustomDevices/SD_Card.o
 .rodata.dummy_data
                0x00000000      0x404 src/CustomDevices/SD_Card.o
 COMMON         0x00000000      0x3f4 src/CustomDevices/SD_Card.o
 .text          0x00000000        0x0 src/CustomDevices/TWI.o
 .data          0x00000000        0x0 src/CustomDevices/TWI.o
 .bss           0x00000000        0x0 src/CustomDevices/TWI.o
 .text          0x00000000        0x0 src/main.o
 .data          0x00000000        0x0 src/main.o
 .bss           0x00000000        0x0 src/main.o
 .text          0x00000000        0x0 ../src/asf/avr32/utils/libs/dsplib/at32ucr3fp/gcc\libdsp-at32ucr3fp-dspspeed_opt.a(vect_dsp16_complex_abs.o)
 .data          0x00000000        0x0 ../src/asf/avr32/utils/libs/dsplib/at32ucr3fp/gcc\libdsp-at32ucr3fp-dspspeed_opt.a(vect_dsp16_complex_abs.o)
 .bss           0x00000000        0x0 ../src/asf/avr32/utils/libs/dsplib/at32ucr3fp/gcc\libdsp-at32ucr3fp-dspspeed_opt.a(vect_dsp16_complex_abs.o)
 .text          0x00000000        0x0 ../src/asf/avr32/utils/libs/dsplib/at32ucr3fp/gcc\libdsp-at32ucr3fp-dspspeed_opt.a(op_dsp16_sqrt_at32uc.o)
 .data          0x00000000        0x0 ../src/asf/avr32/utils/libs/dsplib/at32ucr3fp/gcc\libdsp-at32ucr3fp-dspspeed_opt.a(op_dsp16_sqrt_at32uc.o)
 .bss           0x00000000        0x0 ../src/asf/avr32/utils/libs/dsplib/at32ucr3fp/gcc\libdsp-at32ucr3fp-dspspeed_opt.a(op_dsp16_sqrt_at32uc.o)
 .text          0x00000000        0x0 ../src/asf/avr32/utils/libs/dsplib/at32ucr3fp/gcc\libdsp-at32ucr3fp-dspspeed_opt.a(trans_dsp16_complex_fft_at32uc.o)
 .data          0x00000000        0x0 ../src/asf/avr32/utils/libs/dsplib/at32ucr3fp/gcc\libdsp-at32ucr3fp-dspspeed_opt.a(trans_dsp16_complex_fft_at32uc.o)
 .bss           0x00000000        0x0 ../src/asf/avr32/utils/libs/dsplib/at32ucr3fp/gcc\libdsp-at32ucr3fp-dspspeed_opt.a(trans_dsp16_complex_fft_at32uc.o)
 .text          0x00000000        0x0 ../src/asf/avr32/utils/libs/dsplib/at32ucr3fp/gcc\libdsp-at32ucr3fp-dspspeed_opt.a(trans_dsp16_complex_ifft_at32uc.o)
 .data          0x00000000        0x0 ../src/asf/avr32/utils/libs/dsplib/at32ucr3fp/gcc\libdsp-at32ucr3fp-dspspeed_opt.a(trans_dsp16_complex_ifft_at32uc.o)
 .bss           0x00000000        0x0 ../src/asf/avr32/utils/libs/dsplib/at32ucr3fp/gcc\libdsp-at32ucr3fp-dspspeed_opt.a(trans_dsp16_complex_ifft_at32uc.o)
 .text.dsp16_trans_complexifft_ex
                0x00000000      0x254 ../src/asf/avr32/utils/libs/dsplib/at32ucr3fp/gcc\libdsp-at32ucr3fp-dspspeed_opt.a(trans_dsp16_complex_ifft_at32uc.o)
 .text.dsp16_trans_complexifft
                0x00000000       0x28 ../src/asf/avr32/utils/libs/dsplib/at32ucr3fp/gcc\libdsp-at32ucr3fp-dspspeed_opt.a(trans_dsp16_complex_ifft_at32uc.o)
 .comment       0x00000000       0x31 ../src/asf/avr32/utils/libs/dsplib/at32ucr3fp/gcc\libdsp-at32ucr3fp-dspspeed_opt.a(trans_dsp16_complex_ifft_at32uc.o)
 .text          0x00000000        0x0 ../src/asf/avr32/utils/libs/dsplib/at32ucr3fp/gcc\libdsp-at32ucr3fp-dspspeed_opt.a(trans_dsp16_real_complex_fft_at32uc.o)
 .data          0x00000000        0x0 ../src/asf/avr32/utils/libs/dsplib/at32ucr3fp/gcc\libdsp-at32ucr3fp-dspspeed_opt.a(trans_dsp16_real_complex_fft_at32uc.o)
 .bss           0x00000000        0x0 ../src/asf/avr32/utils/libs/dsplib/at32ucr3fp/gcc\libdsp-at32ucr3fp-dspspeed_opt.a(trans_dsp16_real_complex_fft_at32uc.o)
 .text          0x00000000        0x0 ../src/asf/avr32/utils/libs/dsplib/at32ucr3fp/gcc\libdsp-at32ucr3fp-dspspeed_opt.a(vect_dsp16_complex_conj_at32uc.o)
 .data          0x00000000        0x0 ../src/asf/avr32/utils/libs/dsplib/at32ucr3fp/gcc\libdsp-at32ucr3fp-dspspeed_opt.a(vect_dsp16_complex_conj_at32uc.o)
 .bss           0x00000000        0x0 ../src/asf/avr32/utils/libs/dsplib/at32ucr3fp/gcc\libdsp-at32ucr3fp-dspspeed_opt.a(vect_dsp16_complex_conj_at32uc.o)
 .text.dsp16_vect_conj_kernel_ext
                0x00000000       0x34 ../src/asf/avr32/utils/libs/dsplib/at32ucr3fp/gcc\libdsp-at32ucr3fp-dspspeed_opt.a(vect_dsp16_complex_conj_at32uc.o)
 .text.dsp16_vect_conj_end_kernel_x0
                0x00000000        0x4 ../src/asf/avr32/utils/libs/dsplib/at32ucr3fp/gcc\libdsp-at32ucr3fp-dspspeed_opt.a(vect_dsp16_complex_conj_at32uc.o)
 .text.dsp16_vect_conj_end_kernel_x1
                0x00000000        0xa ../src/asf/avr32/utils/libs/dsplib/at32ucr3fp/gcc\libdsp-at32ucr3fp-dspspeed_opt.a(vect_dsp16_complex_conj_at32uc.o)
 .text.dsp16_vect_conj_end_kernel_x2
                0x00000000       0x10 ../src/asf/avr32/utils/libs/dsplib/at32ucr3fp/gcc\libdsp-at32ucr3fp-dspspeed_opt.a(vect_dsp16_complex_conj_at32uc.o)
 .text.dsp16_vect_conj_end_kernel_x3
                0x00000000       0x16 ../src/asf/avr32/utils/libs/dsplib/at32ucr3fp/gcc\libdsp-at32ucr3fp-dspspeed_opt.a(vect_dsp16_complex_conj_at32uc.o)
 .text.dsp16_vect_complex_conj
                0x00000000       0x34 ../src/asf/avr32/utils/libs/dsplib/at32ucr3fp/gcc\libdsp-at32ucr3fp-dspspeed_opt.a(vect_dsp16_complex_conj_at32uc.o)
 .rodata.conj_end_kernel_opti.15243
                0x00000000       0x10 ../src/asf/avr32/utils/libs/dsplib/at32ucr3fp/gcc\libdsp-at32ucr3fp-dspspeed_opt.a(vect_dsp16_complex_conj_at32uc.o)
 .comment       0x00000000       0x31 ../src/asf/avr32/utils/libs/dsplib/at32ucr3fp/gcc\libdsp-at32ucr3fp-dspspeed_opt.a(vect_dsp16_complex_conj_at32uc.o)
 .text          0x00000000        0x0 ../src/asf/avr32/utils/libs/dsplib/at32ucr3fp/gcc\libdsp-at32ucr3fp-dspspeed_opt.a(trans_dsp16_twiddle_factors.o)
 .data          0x00000000        0x0 ../src/asf/avr32/utils/libs/dsplib/at32ucr3fp/gcc\libdsp-at32ucr3fp-dspspeed_opt.a(trans_dsp16_twiddle_factors.o)
 .bss           0x00000000        0x0 ../src/asf/avr32/utils/libs/dsplib/at32ucr3fp/gcc\libdsp-at32ucr3fp-dspspeed_opt.a(trans_dsp16_twiddle_factors.o)
 .data          0x00000000        0x0 c:/program files (x86)/atmel/atmel studio 6.0/extensions/atmel/avrgcc/3.4.1.95/avrtoolchain/bin/../lib/gcc/avr32/4.4.3/ucr3fp\libgcc.a(_avr32_s32_to_f64.o)
 .bss           0x00000000        0x0 c:/program files (x86)/atmel/atmel studio 6.0/extensions/atmel/avrgcc/3.4.1.95/avrtoolchain/bin/../lib/gcc/avr32/4.4.3/ucr3fp\libgcc.a(_avr32_s32_to_f64.o)
 .data          0x00000000        0x0 c:/program files (x86)/atmel/atmel studio 6.0/extensions/atmel/avrgcc/3.4.1.95/avrtoolchain/bin/../lib/gcc/avr32/4.4.3/ucr3fp\libgcc.a(_avr32_f64_cmp_ge.o)
 .bss           0x00000000        0x0 c:/program files (x86)/atmel/atmel studio 6.0/extensions/atmel/avrgcc/3.4.1.95/avrtoolchain/bin/../lib/gcc/avr32/4.4.3/ucr3fp\libgcc.a(_avr32_f64_cmp_ge.o)
 .text          0x00000000        0x0 c:/program files (x86)/atmel/atmel studio 6.0/extensions/atmel/avrgcc/3.4.1.95/avrtoolchain/bin/../lib/gcc/avr32/4.4.3/../../../../avr32/lib/ucr3fp\libc.a(lib_a-atoi.o)
 .data          0x00000000        0x0 c:/program files (x86)/atmel/atmel studio 6.0/extensions/atmel/avrgcc/3.4.1.95/avrtoolchain/bin/../lib/gcc/avr32/4.4.3/../../../../avr32/lib/ucr3fp\libc.a(lib_a-atoi.o)
 .bss           0x00000000        0x0 c:/program files (x86)/atmel/atmel studio 6.0/extensions/atmel/avrgcc/3.4.1.95/avrtoolchain/bin/../lib/gcc/avr32/4.4.3/../../../../avr32/lib/ucr3fp\libc.a(lib_a-atoi.o)
 .text._atoi_r  0x00000000       0x10 c:/program files (x86)/atmel/atmel studio 6.0/extensions/atmel/avrgcc/3.4.1.95/avrtoolchain/bin/../lib/gcc/avr32/4.4.3/../../../../avr32/lib/ucr3fp\libc.a(lib_a-atoi.o)
 .text          0x00000000        0x0 c:/program files (x86)/atmel/atmel studio 6.0/extensions/atmel/avrgcc/3.4.1.95/avrtoolchain/bin/../lib/gcc/avr32/4.4.3/../../../../avr32/lib/ucr3fp\libc.a(lib_a-ctype_.o)
 .data          0x00000000        0x0 c:/program files (x86)/atmel/atmel studio 6.0/extensions/atmel/avrgcc/3.4.1.95/avrtoolchain/bin/../lib/gcc/avr32/4.4.3/../../../../avr32/lib/ucr3fp\libc.a(lib_a-ctype_.o)
 .bss           0x00000000        0x0 c:/program files (x86)/atmel/atmel studio 6.0/extensions/atmel/avrgcc/3.4.1.95/avrtoolchain/bin/../lib/gcc/avr32/4.4.3/../../../../avr32/lib/ucr3fp\libc.a(lib_a-ctype_.o)
 .text          0x00000000        0x0 c:/program files (x86)/atmel/atmel studio 6.0/extensions/atmel/avrgcc/3.4.1.95/avrtoolchain/bin/../lib/gcc/avr32/4.4.3/../../../../avr32/lib/ucr3fp\libc.a(lib_a-fprintf.o)
 .data          0x00000000        0x0 c:/program files (x86)/atmel/atmel studio 6.0/extensions/atmel/avrgcc/3.4.1.95/avrtoolchain/bin/../lib/gcc/avr32/4.4.3/../../../../avr32/lib/ucr3fp\libc.a(lib_a-fprintf.o)
 .bss           0x00000000        0x0 c:/program files (x86)/atmel/atmel studio 6.0/extensions/atmel/avrgcc/3.4.1.95/avrtoolchain/bin/../lib/gcc/avr32/4.4.3/../../../../avr32/lib/ucr3fp\libc.a(lib_a-fprintf.o)
 .debug_abbrev  0x00000000      0x195 c:/program files (x86)/atmel/atmel studio 6.0/extensions/atmel/avrgcc/3.4.1.95/avrtoolchain/bin/../lib/gcc/avr32/4.4.3/../../../../avr32/lib/ucr3fp\libc.a(lib_a-fprintf.o)
 .debug_info    0x00000000      0x968 c:/program files (x86)/atmel/atmel studio 6.0/extensions/atmel/avrgcc/3.4.1.95/avrtoolchain/bin/../lib/gcc/avr32/4.4.3/../../../../avr32/lib/ucr3fp\libc.a(lib_a-fprintf.o)
 .debug_line    0x00000000      0x206 c:/program files (x86)/atmel/atmel studio 6.0/extensions/atmel/avrgcc/3.4.1.95/avrtoolchain/bin/../lib/gcc/avr32/4.4.3/../../../../avr32/lib/ucr3fp\libc.a(lib_a-fprintf.o)
 .text.fprintf  0x00000000       0x1c c:/program files (x86)/atmel/atmel studio 6.0/extensions/atmel/avrgcc/3.4.1.95/avrtoolchain/bin/../lib/gcc/avr32/4.4.3/../../../../avr32/lib/ucr3fp\libc.a(lib_a-fprintf.o)
 .text._fprintf_r
                0x00000000       0x10 c:/program files (x86)/atmel/atmel studio 6.0/extensions/atmel/avrgcc/3.4.1.95/avrtoolchain/bin/../lib/gcc/avr32/4.4.3/../../../../avr32/lib/ucr3fp\libc.a(lib_a-fprintf.o)
 .debug_frame   0x00000000       0x40 c:/program files (x86)/atmel/atmel studio 6.0/extensions/atmel/avrgcc/3.4.1.95/avrtoolchain/bin/../lib/gcc/avr32/4.4.3/../../../../avr32/lib/ucr3fp\libc.a(lib_a-fprintf.o)
 .debug_loc     0x00000000       0x9d c:/program files (x86)/atmel/atmel studio 6.0/extensions/atmel/avrgcc/3.4.1.95/avrtoolchain/bin/../lib/gcc/avr32/4.4.3/../../../../avr32/lib/ucr3fp\libc.a(lib_a-fprintf.o)
 .debug_pubnames
                0x00000000       0x2d c:/program files (x86)/atmel/atmel studio 6.0/extensions/atmel/avrgcc/3.4.1.95/avrtoolchain/bin/../lib/gcc/avr32/4.4.3/../../../../avr32/lib/ucr3fp\libc.a(lib_a-fprintf.o)
 .debug_aranges
                0x00000000       0x28 c:/program files (x86)/atmel/atmel studio 6.0/extensions/atmel/avrgcc/3.4.1.95/avrtoolchain/bin/../lib/gcc/avr32/4.4.3/../../../../avr32/lib/ucr3fp\libc.a(lib_a-fprintf.o)
 .debug_ranges  0x00000000       0x20 c:/program files (x86)/atmel/atmel studio 6.0/extensions/atmel/avrgcc/3.4.1.95/avrtoolchain/bin/../lib/gcc/avr32/4.4.3/../../../../avr32/lib/ucr3fp\libc.a(lib_a-fprintf.o)
 .debug_str     0x00000000      0x4d0 c:/program files (x86)/atmel/atmel studio 6.0/extensions/atmel/avrgcc/3.4.1.95/avrtoolchain/bin/../lib/gcc/avr32/4.4.3/../../../../avr32/lib/ucr3fp\libc.a(lib_a-fprintf.o)
 .comment       0x00000000       0x31 c:/program files (x86)/atmel/atmel studio 6.0/extensions/atmel/avrgcc/3.4.1.95/avrtoolchain/bin/../lib/gcc/avr32/4.4.3/../../../../avr32/lib/ucr3fp\libc.a(lib_a-fprintf.o)
 .text          0x00000000        0x0 c:/program files (x86)/atmel/atmel studio 6.0/extensions/atmel/avrgcc/3.4.1.95/avrtoolchain/bin/../lib/gcc/avr32/4.4.3/../../../../avr32/lib/ucr3fp\libc.a(lib_a-impure.o)
 .data          0x00000000        0x0 c:/program files (x86)/atmel/atmel studio 6.0/extensions/atmel/avrgcc/3.4.1.95/avrtoolchain/bin/../lib/gcc/avr32/4.4.3/../../../../avr32/lib/ucr3fp\libc.a(lib_a-impure.o)
 .bss           0x00000000        0x0 c:/program files (x86)/atmel/atmel studio 6.0/extensions/atmel/avrgcc/3.4.1.95/avrtoolchain/bin/../lib/gcc/avr32/4.4.3/../../../../avr32/lib/ucr3fp\libc.a(lib_a-impure.o)
 .text          0x00000000        0x0 c:/program files (x86)/atmel/atmel studio 6.0/extensions/atmel/avrgcc/3.4.1.95/avrtoolchain/bin/../lib/gcc/avr32/4.4.3/../../../../avr32/lib/ucr3fp\libc.a(lib_a-memcmp.o)
 .data          0x00000000        0x0 c:/program files (x86)/atmel/atmel studio 6.0/extensions/atmel/avrgcc/3.4.1.95/avrtoolchain/bin/../lib/gcc/avr32/4.4.3/../../../../avr32/lib/ucr3fp\libc.a(lib_a-memcmp.o)
 .bss           0x00000000        0x0 c:/program files (x86)/atmel/atmel studio 6.0/extensions/atmel/avrgcc/3.4.1.95/avrtoolchain/bin/../lib/gcc/avr32/4.4.3/../../../../avr32/lib/ucr3fp\libc.a(lib_a-memcmp.o)
 .data          0x00000000        0x0 c:/program files (x86)/atmel/atmel studio 6.0/extensions/atmel/avrgcc/3.4.1.95/avrtoolchain/bin/../lib/gcc/avr32/4.4.3/../../../../avr32/lib/ucr3fp\libc.a(lib_a-memcpy.o)
 .bss           0x00000000        0x0 c:/program files (x86)/atmel/atmel studio 6.0/extensions/atmel/avrgcc/3.4.1.95/avrtoolchain/bin/../lib/gcc/avr32/4.4.3/../../../../avr32/lib/ucr3fp\libc.a(lib_a-memcpy.o)
 .text          0x00000000        0x0 c:/program files (x86)/atmel/atmel studio 6.0/extensions/atmel/avrgcc/3.4.1.95/avrtoolchain/bin/../lib/gcc/avr32/4.4.3/../../../../avr32/lib/ucr3fp\libc.a(lib_a-memset.o)
 .data          0x00000000        0x0 c:/program files (x86)/atmel/atmel studio 6.0/extensions/atmel/avrgcc/3.4.1.95/avrtoolchain/bin/../lib/gcc/avr32/4.4.3/../../../../avr32/lib/ucr3fp\libc.a(lib_a-memset.o)
 .bss           0x00000000        0x0 c:/program files (x86)/atmel/atmel studio 6.0/extensions/atmel/avrgcc/3.4.1.95/avrtoolchain/bin/../lib/gcc/avr32/4.4.3/../../../../avr32/lib/ucr3fp\libc.a(lib_a-memset.o)
 .text          0x00000000        0x0 c:/program files (x86)/atmel/atmel studio 6.0/extensions/atmel/avrgcc/3.4.1.95/avrtoolchain/bin/../lib/gcc/avr32/4.4.3/../../../../avr32/lib/ucr3fp\libc.a(lib_a-sprintf.o)
 .data          0x00000000        0x0 c:/program files (x86)/atmel/atmel studio 6.0/extensions/atmel/avrgcc/3.4.1.95/avrtoolchain/bin/../lib/gcc/avr32/4.4.3/../../../../avr32/lib/ucr3fp\libc.a(lib_a-sprintf.o)
 .bss           0x00000000        0x0 c:/program files (x86)/atmel/atmel studio 6.0/extensions/atmel/avrgcc/3.4.1.95/avrtoolchain/bin/../lib/gcc/avr32/4.4.3/../../../../avr32/lib/ucr3fp\libc.a(lib_a-sprintf.o)
 .text._sprintf_r
                0x00000000       0x38 c:/program files (x86)/atmel/atmel studio 6.0/extensions/atmel/avrgcc/3.4.1.95/avrtoolchain/bin/../lib/gcc/avr32/4.4.3/../../../../avr32/lib/ucr3fp\libc.a(lib_a-sprintf.o)
 .text          0x00000000        0x0 c:/program files (x86)/atmel/atmel studio 6.0/extensions/atmel/avrgcc/3.4.1.95/avrtoolchain/bin/../lib/gcc/avr32/4.4.3/../../../../avr32/lib/ucr3fp\libc.a(lib_a-strtol.o)
 .data          0x00000000        0x0 c:/program files (x86)/atmel/atmel studio 6.0/extensions/atmel/avrgcc/3.4.1.95/avrtoolchain/bin/../lib/gcc/avr32/4.4.3/../../../../avr32/lib/ucr3fp\libc.a(lib_a-strtol.o)
 .bss           0x00000000        0x0 c:/program files (x86)/atmel/atmel studio 6.0/extensions/atmel/avrgcc/3.4.1.95/avrtoolchain/bin/../lib/gcc/avr32/4.4.3/../../../../avr32/lib/ucr3fp\libc.a(lib_a-strtol.o)
 .text          0x00000000        0x0 c:/program files (x86)/atmel/atmel studio 6.0/extensions/atmel/avrgcc/3.4.1.95/avrtoolchain/bin/../lib/gcc/avr32/4.4.3/../../../../avr32/lib/ucr3fp\libc.a(lib_a-vfprintf.o)
 .data          0x00000000        0x0 c:/program files (x86)/atmel/atmel studio 6.0/extensions/atmel/avrgcc/3.4.1.95/avrtoolchain/bin/../lib/gcc/avr32/4.4.3/../../../../avr32/lib/ucr3fp\libc.a(lib_a-vfprintf.o)
 .bss           0x00000000        0x0 c:/program files (x86)/atmel/atmel studio 6.0/extensions/atmel/avrgcc/3.4.1.95/avrtoolchain/bin/../lib/gcc/avr32/4.4.3/../../../../avr32/lib/ucr3fp\libc.a(lib_a-vfprintf.o)
 .text.vfprintf
                0x00000000       0x1c c:/program files (x86)/atmel/atmel studio 6.0/extensions/atmel/avrgcc/3.4.1.95/avrtoolchain/bin/../lib/gcc/avr32/4.4.3/../../../../avr32/lib/ucr3fp\libc.a(lib_a-vfprintf.o)
 .text          0x00000000        0x0 c:/program files (x86)/atmel/atmel studio 6.0/extensions/atmel/avrgcc/3.4.1.95/avrtoolchain/bin/../lib/gcc/avr32/4.4.3/../../../../avr32/lib/ucr3fp\libc.a(lib_a-wsetup.o)
 .data          0x00000000        0x0 c:/program files (x86)/atmel/atmel studio 6.0/extensions/atmel/avrgcc/3.4.1.95/avrtoolchain/bin/../lib/gcc/avr32/4.4.3/../../../../avr32/lib/ucr3fp\libc.a(lib_a-wsetup.o)
 .bss           0x00000000        0x0 c:/program files (x86)/atmel/atmel studio 6.0/extensions/atmel/avrgcc/3.4.1.95/avrtoolchain/bin/../lib/gcc/avr32/4.4.3/../../../../avr32/lib/ucr3fp\libc.a(lib_a-wsetup.o)
 .text          0x00000000        0x0 c:/program files (x86)/atmel/atmel studio 6.0/extensions/atmel/avrgcc/3.4.1.95/avrtoolchain/bin/../lib/gcc/avr32/4.4.3/../../../../avr32/lib/ucr3fp\libc.a(lib_a-dtoa.o)
 .data          0x00000000        0x0 c:/program files (x86)/atmel/atmel studio 6.0/extensions/atmel/avrgcc/3.4.1.95/avrtoolchain/bin/../lib/gcc/avr32/4.4.3/../../../../avr32/lib/ucr3fp\libc.a(lib_a-dtoa.o)
 .bss           0x00000000        0x0 c:/program files (x86)/atmel/atmel studio 6.0/extensions/atmel/avrgcc/3.4.1.95/avrtoolchain/bin/../lib/gcc/avr32/4.4.3/../../../../avr32/lib/ucr3fp\libc.a(lib_a-dtoa.o)
 .text          0x00000000        0x0 c:/program files (x86)/atmel/atmel studio 6.0/extensions/atmel/avrgcc/3.4.1.95/avrtoolchain/bin/../lib/gcc/avr32/4.4.3/../../../../avr32/lib/ucr3fp\libc.a(lib_a-fflush.o)
 .data          0x00000000        0x0 c:/program files (x86)/atmel/atmel studio 6.0/extensions/atmel/avrgcc/3.4.1.95/avrtoolchain/bin/../lib/gcc/avr32/4.4.3/../../../../avr32/lib/ucr3fp\libc.a(lib_a-fflush.o)
 .bss           0x00000000        0x0 c:/program files (x86)/atmel/atmel studio 6.0/extensions/atmel/avrgcc/3.4.1.95/avrtoolchain/bin/../lib/gcc/avr32/4.4.3/../../../../avr32/lib/ucr3fp\libc.a(lib_a-fflush.o)
 .text.fflush   0x00000000       0x30 c:/program files (x86)/atmel/atmel studio 6.0/extensions/atmel/avrgcc/3.4.1.95/avrtoolchain/bin/../lib/gcc/avr32/4.4.3/../../../../avr32/lib/ucr3fp\libc.a(lib_a-fflush.o)
 .text          0x00000000        0x0 c:/program files (x86)/atmel/atmel studio 6.0/extensions/atmel/avrgcc/3.4.1.95/avrtoolchain/bin/../lib/gcc/avr32/4.4.3/../../../../avr32/lib/ucr3fp\libc.a(lib_a-findfp.o)
 .data          0x00000000        0x0 c:/program files (x86)/atmel/atmel studio 6.0/extensions/atmel/avrgcc/3.4.1.95/avrtoolchain/bin/../lib/gcc/avr32/4.4.3/../../../../avr32/lib/ucr3fp\libc.a(lib_a-findfp.o)
 .bss           0x00000000        0x0 c:/program files (x86)/atmel/atmel studio 6.0/extensions/atmel/avrgcc/3.4.1.95/avrtoolchain/bin/../lib/gcc/avr32/4.4.3/../../../../avr32/lib/ucr3fp\libc.a(lib_a-findfp.o)
 .text.__sinit_lock_acquire
                0x00000000        0x2 c:/program files (x86)/atmel/atmel studio 6.0/extensions/atmel/avrgcc/3.4.1.95/avrtoolchain/bin/../lib/gcc/avr32/4.4.3/../../../../avr32/lib/ucr3fp\libc.a(lib_a-findfp.o)
 .text.__sinit_lock_release
                0x00000000        0x2 c:/program files (x86)/atmel/atmel studio 6.0/extensions/atmel/avrgcc/3.4.1.95/avrtoolchain/bin/../lib/gcc/avr32/4.4.3/../../../../avr32/lib/ucr3fp\libc.a(lib_a-findfp.o)
 .text.__fp_lock
                0x00000000        0x2 c:/program files (x86)/atmel/atmel studio 6.0/extensions/atmel/avrgcc/3.4.1.95/avrtoolchain/bin/../lib/gcc/avr32/4.4.3/../../../../avr32/lib/ucr3fp\libc.a(lib_a-findfp.o)
 .text.__fp_unlock
                0x00000000        0x2 c:/program files (x86)/atmel/atmel studio 6.0/extensions/atmel/avrgcc/3.4.1.95/avrtoolchain/bin/../lib/gcc/avr32/4.4.3/../../../../avr32/lib/ucr3fp\libc.a(lib_a-findfp.o)
 .text.__fp_unlock_all
                0x00000000       0x1c c:/program files (x86)/atmel/atmel studio 6.0/extensions/atmel/avrgcc/3.4.1.95/avrtoolchain/bin/../lib/gcc/avr32/4.4.3/../../../../avr32/lib/ucr3fp\libc.a(lib_a-findfp.o)
 .text.__fp_lock_all
                0x00000000       0x1c c:/program files (x86)/atmel/atmel studio 6.0/extensions/atmel/avrgcc/3.4.1.95/avrtoolchain/bin/../lib/gcc/avr32/4.4.3/../../../../avr32/lib/ucr3fp\libc.a(lib_a-findfp.o)
 .text._cleanup
                0x00000000       0x14 c:/program files (x86)/atmel/atmel studio 6.0/extensions/atmel/avrgcc/3.4.1.95/avrtoolchain/bin/../lib/gcc/avr32/4.4.3/../../../../avr32/lib/ucr3fp\libc.a(lib_a-findfp.o)
 .text          0x00000000        0x0 c:/program files (x86)/atmel/atmel studio 6.0/extensions/atmel/avrgcc/3.4.1.95/avrtoolchain/bin/../lib/gcc/avr32/4.4.3/../../../../avr32/lib/ucr3fp\libc.a(lib_a-freer.o)
 .data          0x00000000        0x0 c:/program files (x86)/atmel/atmel studio 6.0/extensions/atmel/avrgcc/3.4.1.95/avrtoolchain/bin/../lib/gcc/avr32/4.4.3/../../../../avr32/lib/ucr3fp\libc.a(lib_a-freer.o)
 .bss           0x00000000        0x0 c:/program files (x86)/atmel/atmel studio 6.0/extensions/atmel/avrgcc/3.4.1.95/avrtoolchain/bin/../lib/gcc/avr32/4.4.3/../../../../avr32/lib/ucr3fp\libc.a(lib_a-freer.o)
 .text          0x00000000        0x0 c:/program files (x86)/atmel/atmel studio 6.0/extensions/atmel/avrgcc/3.4.1.95/avrtoolchain/bin/../lib/gcc/avr32/4.4.3/../../../../avr32/lib/ucr3fp\libc.a(lib_a-fvwrite.o)
 .data          0x00000000        0x0 c:/program files (x86)/atmel/atmel studio 6.0/extensions/atmel/avrgcc/3.4.1.95/avrtoolchain/bin/../lib/gcc/avr32/4.4.3/../../../../avr32/lib/ucr3fp\libc.a(lib_a-fvwrite.o)
 .bss           0x00000000        0x0 c:/program files (x86)/atmel/atmel studio 6.0/extensions/atmel/avrgcc/3.4.1.95/avrtoolchain/bin/../lib/gcc/avr32/4.4.3/../../../../avr32/lib/ucr3fp\libc.a(lib_a-fvwrite.o)
 .text          0x00000000        0x0 c:/program files (x86)/atmel/atmel studio 6.0/extensions/atmel/avrgcc/3.4.1.95/avrtoolchain/bin/../lib/gcc/avr32/4.4.3/../../../../avr32/lib/ucr3fp\libc.a(lib_a-fwalk.o)
 .data          0x00000000        0x0 c:/program files (x86)/atmel/atmel studio 6.0/extensions/atmel/avrgcc/3.4.1.95/avrtoolchain/bin/../lib/gcc/avr32/4.4.3/../../../../avr32/lib/ucr3fp\libc.a(lib_a-fwalk.o)
 .bss           0x00000000        0x0 c:/program files (x86)/atmel/atmel studio 6.0/extensions/atmel/avrgcc/3.4.1.95/avrtoolchain/bin/../lib/gcc/avr32/4.4.3/../../../../avr32/lib/ucr3fp\libc.a(lib_a-fwalk.o)
 .text._fwalk_reent
                0x00000000       0x58 c:/program files (x86)/atmel/atmel studio 6.0/extensions/atmel/avrgcc/3.4.1.95/avrtoolchain/bin/../lib/gcc/avr32/4.4.3/../../../../avr32/lib/ucr3fp\libc.a(lib_a-fwalk.o)
 .text          0x00000000        0x0 c:/program files (x86)/atmel/atmel studio 6.0/extensions/atmel/avrgcc/3.4.1.95/avrtoolchain/bin/../lib/gcc/avr32/4.4.3/../../../../avr32/lib/ucr3fp\libc.a(lib_a-locale.o)
 .data          0x00000000        0x0 c:/program files (x86)/atmel/atmel studio 6.0/extensions/atmel/avrgcc/3.4.1.95/avrtoolchain/bin/../lib/gcc/avr32/4.4.3/../../../../avr32/lib/ucr3fp\libc.a(lib_a-locale.o)
 .bss           0x00000000        0x0 c:/program files (x86)/atmel/atmel studio 6.0/extensions/atmel/avrgcc/3.4.1.95/avrtoolchain/bin/../lib/gcc/avr32/4.4.3/../../../../avr32/lib/ucr3fp\libc.a(lib_a-locale.o)
 .text.__locale_charset
                0x00000000        0xc c:/program files (x86)/atmel/atmel studio 6.0/extensions/atmel/avrgcc/3.4.1.95/avrtoolchain/bin/../lib/gcc/avr32/4.4.3/../../../../avr32/lib/ucr3fp\libc.a(lib_a-locale.o)
 .text.localeconv
                0x00000000        0x8 c:/program files (x86)/atmel/atmel studio 6.0/extensions/atmel/avrgcc/3.4.1.95/avrtoolchain/bin/../lib/gcc/avr32/4.4.3/../../../../avr32/lib/ucr3fp\libc.a(lib_a-locale.o)
 .text._setlocale_r
                0x00000000       0x3c c:/program files (x86)/atmel/atmel studio 6.0/extensions/atmel/avrgcc/3.4.1.95/avrtoolchain/bin/../lib/gcc/avr32/4.4.3/../../../../avr32/lib/ucr3fp\libc.a(lib_a-locale.o)
 .text.setlocale
                0x00000000       0x18 c:/program files (x86)/atmel/atmel studio 6.0/extensions/atmel/avrgcc/3.4.1.95/avrtoolchain/bin/../lib/gcc/avr32/4.4.3/../../../../avr32/lib/ucr3fp\libc.a(lib_a-locale.o)
 .rodata.charset
                0x00000000        0x4 c:/program files (x86)/atmel/atmel studio 6.0/extensions/atmel/avrgcc/3.4.1.95/avrtoolchain/bin/../lib/gcc/avr32/4.4.3/../../../../avr32/lib/ucr3fp\libc.a(lib_a-locale.o)
 .bss.__nlocale_changed
                0x00000000        0x4 c:/program files (x86)/atmel/atmel studio 6.0/extensions/atmel/avrgcc/3.4.1.95/avrtoolchain/bin/../lib/gcc/avr32/4.4.3/../../../../avr32/lib/ucr3fp\libc.a(lib_a-locale.o)
 .bss.__mlocale_changed
                0x00000000        0x4 c:/program files (x86)/atmel/atmel studio 6.0/extensions/atmel/avrgcc/3.4.1.95/avrtoolchain/bin/../lib/gcc/avr32/4.4.3/../../../../avr32/lib/ucr3fp\libc.a(lib_a-locale.o)
 .bss._PathLocale
                0x00000000        0x4 c:/program files (x86)/atmel/atmel studio 6.0/extensions/atmel/avrgcc/3.4.1.95/avrtoolchain/bin/../lib/gcc/avr32/4.4.3/../../../../avr32/lib/ucr3fp\libc.a(lib_a-locale.o)
 .data.__lc_ctype
                0x00000000        0xc c:/program files (x86)/atmel/atmel studio 6.0/extensions/atmel/avrgcc/3.4.1.95/avrtoolchain/bin/../lib/gcc/avr32/4.4.3/../../../../avr32/lib/ucr3fp\libc.a(lib_a-locale.o)
 .data.__mb_cur_max
                0x00000000        0x4 c:/program files (x86)/atmel/atmel studio 6.0/extensions/atmel/avrgcc/3.4.1.95/avrtoolchain/bin/../lib/gcc/avr32/4.4.3/../../../../avr32/lib/ucr3fp\libc.a(lib_a-locale.o)
 .text          0x00000000        0x0 c:/program files (x86)/atmel/atmel studio 6.0/extensions/atmel/avrgcc/3.4.1.95/avrtoolchain/bin/../lib/gcc/avr32/4.4.3/../../../../avr32/lib/ucr3fp\libc.a(lib_a-makebuf.o)
 .data          0x00000000        0x0 c:/program files (x86)/atmel/atmel studio 6.0/extensions/atmel/avrgcc/3.4.1.95/avrtoolchain/bin/../lib/gcc/avr32/4.4.3/../../../../avr32/lib/ucr3fp\libc.a(lib_a-makebuf.o)
 .bss           0x00000000        0x0 c:/program files (x86)/atmel/atmel studio 6.0/extensions/atmel/avrgcc/3.4.1.95/avrtoolchain/bin/../lib/gcc/avr32/4.4.3/../../../../avr32/lib/ucr3fp\libc.a(lib_a-makebuf.o)
 .text          0x00000000        0x0 c:/program files (x86)/atmel/atmel studio 6.0/extensions/atmel/avrgcc/3.4.1.95/avrtoolchain/bin/../lib/gcc/avr32/4.4.3/../../../../avr32/lib/ucr3fp\libc.a(lib_a-mallocr.o)
 .data          0x00000000        0x0 c:/program files (x86)/atmel/atmel studio 6.0/extensions/atmel/avrgcc/3.4.1.95/avrtoolchain/bin/../lib/gcc/avr32/4.4.3/../../../../avr32/lib/ucr3fp\libc.a(lib_a-mallocr.o)
 .bss           0x00000000        0x0 c:/program files (x86)/atmel/atmel studio 6.0/extensions/atmel/avrgcc/3.4.1.95/avrtoolchain/bin/../lib/gcc/avr32/4.4.3/../../../../avr32/lib/ucr3fp\libc.a(lib_a-mallocr.o)
 .text          0x00000000        0x0 c:/program files (x86)/atmel/atmel studio 6.0/extensions/atmel/avrgcc/3.4.1.95/avrtoolchain/bin/../lib/gcc/avr32/4.4.3/../../../../avr32/lib/ucr3fp\libc.a(lib_a-memchr.o)
 .data          0x00000000        0x0 c:/program files (x86)/atmel/atmel studio 6.0/extensions/atmel/avrgcc/3.4.1.95/avrtoolchain/bin/../lib/gcc/avr32/4.4.3/../../../../avr32/lib/ucr3fp\libc.a(lib_a-memchr.o)
 .bss           0x00000000        0x0 c:/program files (x86)/atmel/atmel studio 6.0/extensions/atmel/avrgcc/3.4.1.95/avrtoolchain/bin/../lib/gcc/avr32/4.4.3/../../../../avr32/lib/ucr3fp\libc.a(lib_a-memchr.o)
 .text          0x00000000        0x0 c:/program files (x86)/atmel/atmel studio 6.0/extensions/atmel/avrgcc/3.4.1.95/avrtoolchain/bin/../lib/gcc/avr32/4.4.3/../../../../avr32/lib/ucr3fp\libc.a(lib_a-memmove.o)
 .data          0x00000000        0x0 c:/program files (x86)/atmel/atmel studio 6.0/extensions/atmel/avrgcc/3.4.1.95/avrtoolchain/bin/../lib/gcc/avr32/4.4.3/../../../../avr32/lib/ucr3fp\libc.a(lib_a-memmove.o)
 .bss           0x00000000        0x0 c:/program files (x86)/atmel/atmel studio 6.0/extensions/atmel/avrgcc/3.4.1.95/avrtoolchain/bin/../lib/gcc/avr32/4.4.3/../../../../avr32/lib/ucr3fp\libc.a(lib_a-memmove.o)
 .text          0x00000000        0x0 c:/program files (x86)/atmel/atmel studio 6.0/extensions/atmel/avrgcc/3.4.1.95/avrtoolchain/bin/../lib/gcc/avr32/4.4.3/../../../../avr32/lib/ucr3fp\libc.a(lib_a-mlock.o)
 .data          0x00000000        0x0 c:/program files (x86)/atmel/atmel studio 6.0/extensions/atmel/avrgcc/3.4.1.95/avrtoolchain/bin/../lib/gcc/avr32/4.4.3/../../../../avr32/lib/ucr3fp\libc.a(lib_a-mlock.o)
 .bss           0x00000000        0x0 c:/program files (x86)/atmel/atmel studio 6.0/extensions/atmel/avrgcc/3.4.1.95/avrtoolchain/bin/../lib/gcc/avr32/4.4.3/../../../../avr32/lib/ucr3fp\libc.a(lib_a-mlock.o)
 .text          0x00000000        0x0 c:/program files (x86)/atmel/atmel studio 6.0/extensions/atmel/avrgcc/3.4.1.95/avrtoolchain/bin/../lib/gcc/avr32/4.4.3/../../../../avr32/lib/ucr3fp\libc.a(lib_a-mprec.o)
 .data          0x00000000        0x0 c:/program files (x86)/atmel/atmel studio 6.0/extensions/atmel/avrgcc/3.4.1.95/avrtoolchain/bin/../lib/gcc/avr32/4.4.3/../../../../avr32/lib/ucr3fp\libc.a(lib_a-mprec.o)
 .bss           0x00000000        0x0 c:/program files (x86)/atmel/atmel studio 6.0/extensions/atmel/avrgcc/3.4.1.95/avrtoolchain/bin/../lib/gcc/avr32/4.4.3/../../../../avr32/lib/ucr3fp\libc.a(lib_a-mprec.o)
 .text.__ulp    0x00000000       0x48 c:/program files (x86)/atmel/atmel studio 6.0/extensions/atmel/avrgcc/3.4.1.95/avrtoolchain/bin/../lib/gcc/avr32/4.4.3/../../../../avr32/lib/ucr3fp\libc.a(lib_a-mprec.o)
 .text.__b2d    0x00000000       0xa0 c:/program files (x86)/atmel/atmel studio 6.0/extensions/atmel/avrgcc/3.4.1.95/avrtoolchain/bin/../lib/gcc/avr32/4.4.3/../../../../avr32/lib/ucr3fp\libc.a(lib_a-mprec.o)
 .text.__ratio  0x00000000       0x5c c:/program files (x86)/atmel/atmel studio 6.0/extensions/atmel/avrgcc/3.4.1.95/avrtoolchain/bin/../lib/gcc/avr32/4.4.3/../../../../avr32/lib/ucr3fp\libc.a(lib_a-mprec.o)
 .text._mprec_log10
                0x00000000       0x34 c:/program files (x86)/atmel/atmel studio 6.0/extensions/atmel/avrgcc/3.4.1.95/avrtoolchain/bin/../lib/gcc/avr32/4.4.3/../../../../avr32/lib/ucr3fp\libc.a(lib_a-mprec.o)
 .text.__copybits
                0x00000000       0x2e c:/program files (x86)/atmel/atmel studio 6.0/extensions/atmel/avrgcc/3.4.1.95/avrtoolchain/bin/../lib/gcc/avr32/4.4.3/../../../../avr32/lib/ucr3fp\libc.a(lib_a-mprec.o)
 .text.__any_on
                0x00000000       0x4c c:/program files (x86)/atmel/atmel studio 6.0/extensions/atmel/avrgcc/3.4.1.95/avrtoolchain/bin/../lib/gcc/avr32/4.4.3/../../../../avr32/lib/ucr3fp\libc.a(lib_a-mprec.o)
 .text.__s2b    0x00000000       0x84 c:/program files (x86)/atmel/atmel studio 6.0/extensions/atmel/avrgcc/3.4.1.95/avrtoolchain/bin/../lib/gcc/avr32/4.4.3/../../../../avr32/lib/ucr3fp\libc.a(lib_a-mprec.o)
 .rodata.__mprec_tinytens
                0x00000000       0x28 c:/program files (x86)/atmel/atmel studio 6.0/extensions/atmel/avrgcc/3.4.1.95/avrtoolchain/bin/../lib/gcc/avr32/4.4.3/../../../../avr32/lib/ucr3fp\libc.a(lib_a-mprec.o)
 .text          0x00000000        0x0 c:/program files (x86)/atmel/atmel studio 6.0/extensions/atmel/avrgcc/3.4.1.95/avrtoolchain/bin/../lib/gcc/avr32/4.4.3/../../../../avr32/lib/ucr3fp\libc.a(lib_a-reallocr.o)
 .data          0x00000000        0x0 c:/program files (x86)/atmel/atmel studio 6.0/extensions/atmel/avrgcc/3.4.1.95/avrtoolchain/bin/../lib/gcc/avr32/4.4.3/../../../../avr32/lib/ucr3fp\libc.a(lib_a-reallocr.o)
 .bss           0x00000000        0x0 c:/program files (x86)/atmel/atmel studio 6.0/extensions/atmel/avrgcc/3.4.1.95/avrtoolchain/bin/../lib/gcc/avr32/4.4.3/../../../../avr32/lib/ucr3fp\libc.a(lib_a-reallocr.o)
 .text          0x00000000        0x0 c:/program files (x86)/atmel/atmel studio 6.0/extensions/atmel/avrgcc/3.4.1.95/avrtoolchain/bin/../lib/gcc/avr32/4.4.3/../../../../avr32/lib/ucr3fp\libc.a(lib_a-sbrkr.o)
 .data          0x00000000        0x0 c:/program files (x86)/atmel/atmel studio 6.0/extensions/atmel/avrgcc/3.4.1.95/avrtoolchain/bin/../lib/gcc/avr32/4.4.3/../../../../avr32/lib/ucr3fp\libc.a(lib_a-sbrkr.o)
 .bss           0x00000000        0x0 c:/program files (x86)/atmel/atmel studio 6.0/extensions/atmel/avrgcc/3.4.1.95/avrtoolchain/bin/../lib/gcc/avr32/4.4.3/../../../../avr32/lib/ucr3fp\libc.a(lib_a-sbrkr.o)
 .text          0x00000000        0x0 c:/program files (x86)/atmel/atmel studio 6.0/extensions/atmel/avrgcc/3.4.1.95/avrtoolchain/bin/../lib/gcc/avr32/4.4.3/../../../../avr32/lib/ucr3fp\libc.a(lib_a-s_isinfd.o)
 .data          0x00000000        0x0 c:/program files (x86)/atmel/atmel studio 6.0/extensions/atmel/avrgcc/3.4.1.95/avrtoolchain/bin/../lib/gcc/avr32/4.4.3/../../../../avr32/lib/ucr3fp\libc.a(lib_a-s_isinfd.o)
 .bss           0x00000000        0x0 c:/program files (x86)/atmel/atmel studio 6.0/extensions/atmel/avrgcc/3.4.1.95/avrtoolchain/bin/../lib/gcc/avr32/4.4.3/../../../../avr32/lib/ucr3fp\libc.a(lib_a-s_isinfd.o)
 .text          0x00000000        0x0 c:/program files (x86)/atmel/atmel studio 6.0/extensions/atmel/avrgcc/3.4.1.95/avrtoolchain/bin/../lib/gcc/avr32/4.4.3/../../../../avr32/lib/ucr3fp\libc.a(lib_a-s_isnand.o)
 .data          0x00000000        0x0 c:/program files (x86)/atmel/atmel studio 6.0/extensions/atmel/avrgcc/3.4.1.95/avrtoolchain/bin/../lib/gcc/avr32/4.4.3/../../../../avr32/lib/ucr3fp\libc.a(lib_a-s_isnand.o)
 .bss           0x00000000        0x0 c:/program files (x86)/atmel/atmel studio 6.0/extensions/atmel/avrgcc/3.4.1.95/avrtoolchain/bin/../lib/gcc/avr32/4.4.3/../../../../avr32/lib/ucr3fp\libc.a(lib_a-s_isnand.o)
 .text          0x00000000        0x0 c:/program files (x86)/atmel/atmel studio 6.0/extensions/atmel/avrgcc/3.4.1.95/avrtoolchain/bin/../lib/gcc/avr32/4.4.3/../../../../avr32/lib/ucr3fp\libc.a(lib_a-stdio.o)
 .data          0x00000000        0x0 c:/program files (x86)/atmel/atmel studio 6.0/extensions/atmel/avrgcc/3.4.1.95/avrtoolchain/bin/../lib/gcc/avr32/4.4.3/../../../../avr32/lib/ucr3fp\libc.a(lib_a-stdio.o)
 .bss           0x00000000        0x0 c:/program files (x86)/atmel/atmel studio 6.0/extensions/atmel/avrgcc/3.4.1.95/avrtoolchain/bin/../lib/gcc/avr32/4.4.3/../../../../avr32/lib/ucr3fp\libc.a(lib_a-stdio.o)
 .text          0x00000000       0xa8 c:/program files (x86)/atmel/atmel studio 6.0/extensions/atmel/avrgcc/3.4.1.95/avrtoolchain/bin/../lib/gcc/avr32/4.4.3/../../../../avr32/lib/ucr3fp\libc.a(lib_a-strcmp.o)
 .data          0x00000000        0x0 c:/program files (x86)/atmel/atmel studio 6.0/extensions/atmel/avrgcc/3.4.1.95/avrtoolchain/bin/../lib/gcc/avr32/4.4.3/../../../../avr32/lib/ucr3fp\libc.a(lib_a-strcmp.o)
 .bss           0x00000000        0x0 c:/program files (x86)/atmel/atmel studio 6.0/extensions/atmel/avrgcc/3.4.1.95/avrtoolchain/bin/../lib/gcc/avr32/4.4.3/../../../../avr32/lib/ucr3fp\libc.a(lib_a-strcmp.o)
 .text          0x00000000        0x0 c:/program files (x86)/atmel/atmel studio 6.0/extensions/atmel/avrgcc/3.4.1.95/avrtoolchain/bin/../lib/gcc/avr32/4.4.3/../../../../avr32/lib/ucr3fp\libc.a(lib_a-strlen.o)
 .data          0x00000000        0x0 c:/program files (x86)/atmel/atmel studio 6.0/extensions/atmel/avrgcc/3.4.1.95/avrtoolchain/bin/../lib/gcc/avr32/4.4.3/../../../../avr32/lib/ucr3fp\libc.a(lib_a-strlen.o)
 .bss           0x00000000        0x0 c:/program files (x86)/atmel/atmel studio 6.0/extensions/atmel/avrgcc/3.4.1.95/avrtoolchain/bin/../lib/gcc/avr32/4.4.3/../../../../avr32/lib/ucr3fp\libc.a(lib_a-strlen.o)
 .text          0x00000000        0x0 c:/program files (x86)/atmel/atmel studio 6.0/extensions/atmel/avrgcc/3.4.1.95/avrtoolchain/bin/../lib/gcc/avr32/4.4.3/../../../../avr32/lib/ucr3fp\libc.a(lib_a-syscalls.o)
 .data          0x00000000        0x0 c:/program files (x86)/atmel/atmel studio 6.0/extensions/atmel/avrgcc/3.4.1.95/avrtoolchain/bin/../lib/gcc/avr32/4.4.3/../../../../avr32/lib/ucr3fp\libc.a(lib_a-syscalls.o)
 .bss           0x00000000        0x0 c:/program files (x86)/atmel/atmel studio 6.0/extensions/atmel/avrgcc/3.4.1.95/avrtoolchain/bin/../lib/gcc/avr32/4.4.3/../../../../avr32/lib/ucr3fp\libc.a(lib_a-syscalls.o)
 .text._init_startup
                0x00000000        0x2 c:/program files (x86)/atmel/atmel studio 6.0/extensions/atmel/avrgcc/3.4.1.95/avrtoolchain/bin/../lib/gcc/avr32/4.4.3/../../../../avr32/lib/ucr3fp\libc.a(lib_a-syscalls.o)
 .text._init_argv
                0x00000000        0xa c:/program files (x86)/atmel/atmel studio 6.0/extensions/atmel/avrgcc/3.4.1.95/avrtoolchain/bin/../lib/gcc/avr32/4.4.3/../../../../avr32/lib/ucr3fp\libc.a(lib_a-syscalls.o)
 .text._exit    0x00000000        0xa c:/program files (x86)/atmel/atmel studio 6.0/extensions/atmel/avrgcc/3.4.1.95/avrtoolchain/bin/../lib/gcc/avr32/4.4.3/../../../../avr32/lib/ucr3fp\libc.a(lib_a-syscalls.o)
 .text._open    0x00000000       0x18 c:/program files (x86)/atmel/atmel studio 6.0/extensions/atmel/avrgcc/3.4.1.95/avrtoolchain/bin/../lib/gcc/avr32/4.4.3/../../../../avr32/lib/ucr3fp\libc.a(lib_a-syscalls.o)
 .text._stat_host
                0x00000000       0x18 c:/program files (x86)/atmel/atmel studio 6.0/extensions/atmel/avrgcc/3.4.1.95/avrtoolchain/bin/../lib/gcc/avr32/4.4.3/../../../../avr32/lib/ucr3fp\libc.a(lib_a-syscalls.o)
 .text._stat    0x00000000       0x50 c:/program files (x86)/atmel/atmel studio 6.0/extensions/atmel/avrgcc/3.4.1.95/avrtoolchain/bin/../lib/gcc/avr32/4.4.3/../../../../avr32/lib/ucr3fp\libc.a(lib_a-syscalls.o)
 .text._gettimeofday_host
                0x00000000       0x18 c:/program files (x86)/atmel/atmel studio 6.0/extensions/atmel/avrgcc/3.4.1.95/avrtoolchain/bin/../lib/gcc/avr32/4.4.3/../../../../avr32/lib/ucr3fp\libc.a(lib_a-syscalls.o)
 .text._gettimeofday
                0x00000000       0x24 c:/program files (x86)/atmel/atmel studio 6.0/extensions/atmel/avrgcc/3.4.1.95/avrtoolchain/bin/../lib/gcc/avr32/4.4.3/../../../../avr32/lib/ucr3fp\libc.a(lib_a-syscalls.o)
 .text._unlink  0x00000000       0x18 c:/program files (x86)/atmel/atmel studio 6.0/extensions/atmel/avrgcc/3.4.1.95/avrtoolchain/bin/../lib/gcc/avr32/4.4.3/../../../../avr32/lib/ucr3fp\libc.a(lib_a-syscalls.o)
 .text._system  0x00000000       0x18 c:/program files (x86)/atmel/atmel studio 6.0/extensions/atmel/avrgcc/3.4.1.95/avrtoolchain/bin/../lib/gcc/avr32/4.4.3/../../../../avr32/lib/ucr3fp\libc.a(lib_a-syscalls.o)
 .text._execve  0x00000000        0x2 c:/program files (x86)/atmel/atmel studio 6.0/extensions/atmel/avrgcc/3.4.1.95/avrtoolchain/bin/../lib/gcc/avr32/4.4.3/../../../../avr32/lib/ucr3fp\libc.a(lib_a-syscalls.o)
 .text._fork    0x00000000        0x2 c:/program files (x86)/atmel/atmel studio 6.0/extensions/atmel/avrgcc/3.4.1.95/avrtoolchain/bin/../lib/gcc/avr32/4.4.3/../../../../avr32/lib/ucr3fp\libc.a(lib_a-syscalls.o)
 .text._wait    0x00000000        0x2 c:/program files (x86)/atmel/atmel studio 6.0/extensions/atmel/avrgcc/3.4.1.95/avrtoolchain/bin/../lib/gcc/avr32/4.4.3/../../../../avr32/lib/ucr3fp\libc.a(lib_a-syscalls.o)
 .text.sigfillset
                0x00000000        0x2 c:/program files (x86)/atmel/atmel studio 6.0/extensions/atmel/avrgcc/3.4.1.95/avrtoolchain/bin/../lib/gcc/avr32/4.4.3/../../../../avr32/lib/ucr3fp\libc.a(lib_a-syscalls.o)
 .text.sigprocmask
                0x00000000        0x2 c:/program files (x86)/atmel/atmel studio 6.0/extensions/atmel/avrgcc/3.4.1.95/avrtoolchain/bin/../lib/gcc/avr32/4.4.3/../../../../avr32/lib/ucr3fp\libc.a(lib_a-syscalls.o)
 .text._fcntl   0x00000000        0x2 c:/program files (x86)/atmel/atmel studio 6.0/extensions/atmel/avrgcc/3.4.1.95/avrtoolchain/bin/../lib/gcc/avr32/4.4.3/../../../../avr32/lib/ucr3fp\libc.a(lib_a-syscalls.o)
 .text._link    0x00000000        0x2 c:/program files (x86)/atmel/atmel studio 6.0/extensions/atmel/avrgcc/3.4.1.95/avrtoolchain/bin/../lib/gcc/avr32/4.4.3/../../../../avr32/lib/ucr3fp\libc.a(lib_a-syscalls.o)
 .text._kill    0x00000000        0x2 c:/program files (x86)/atmel/atmel studio 6.0/extensions/atmel/avrgcc/3.4.1.95/avrtoolchain/bin/../lib/gcc/avr32/4.4.3/../../../../avr32/lib/ucr3fp\libc.a(lib_a-syscalls.o)
 .text._getpid  0x00000000        0x2 c:/program files (x86)/atmel/atmel studio 6.0/extensions/atmel/avrgcc/3.4.1.95/avrtoolchain/bin/../lib/gcc/avr32/4.4.3/../../../../avr32/lib/ucr3fp\libc.a(lib_a-syscalls.o)
 .text._times   0x00000000       0x12 c:/program files (x86)/atmel/atmel studio 6.0/extensions/atmel/avrgcc/3.4.1.95/avrtoolchain/bin/../lib/gcc/avr32/4.4.3/../../../../avr32/lib/ucr3fp\libc.a(lib_a-syscalls.o)
 .text          0x00000000        0x0 c:/program files (x86)/atmel/atmel studio 6.0/extensions/atmel/avrgcc/3.4.1.95/avrtoolchain/bin/../lib/gcc/avr32/4.4.3/../../../../avr32/lib/ucr3fp\libc.a(lib_a-writer.o)
 .data          0x00000000        0x0 c:/program files (x86)/atmel/atmel studio 6.0/extensions/atmel/avrgcc/3.4.1.95/avrtoolchain/bin/../lib/gcc/avr32/4.4.3/../../../../avr32/lib/ucr3fp\libc.a(lib_a-writer.o)
 .bss           0x00000000        0x0 c:/program files (x86)/atmel/atmel studio 6.0/extensions/atmel/avrgcc/3.4.1.95/avrtoolchain/bin/../lib/gcc/avr32/4.4.3/../../../../avr32/lib/ucr3fp\libc.a(lib_a-writer.o)
 .text          0x00000000        0x0 c:/program files (x86)/atmel/atmel studio 6.0/extensions/atmel/avrgcc/3.4.1.95/avrtoolchain/bin/../lib/gcc/avr32/4.4.3/../../../../avr32/lib/ucr3fp\libc.a(lib_a-callocr.o)
 .data          0x00000000        0x0 c:/program files (x86)/atmel/atmel studio 6.0/extensions/atmel/avrgcc/3.4.1.95/avrtoolchain/bin/../lib/gcc/avr32/4.4.3/../../../../avr32/lib/ucr3fp\libc.a(lib_a-callocr.o)
 .bss           0x00000000        0x0 c:/program files (x86)/atmel/atmel studio 6.0/extensions/atmel/avrgcc/3.4.1.95/avrtoolchain/bin/../lib/gcc/avr32/4.4.3/../../../../avr32/lib/ucr3fp\libc.a(lib_a-callocr.o)
 .text          0x00000000        0x0 c:/program files (x86)/atmel/atmel studio 6.0/extensions/atmel/avrgcc/3.4.1.95/avrtoolchain/bin/../lib/gcc/avr32/4.4.3/../../../../avr32/lib/ucr3fp\libc.a(lib_a-closer.o)
 .data          0x00000000        0x0 c:/program files (x86)/atmel/atmel studio 6.0/extensions/atmel/avrgcc/3.4.1.95/avrtoolchain/bin/../lib/gcc/avr32/4.4.3/../../../../avr32/lib/ucr3fp\libc.a(lib_a-closer.o)
 .bss           0x00000000        0x0 c:/program files (x86)/atmel/atmel studio 6.0/extensions/atmel/avrgcc/3.4.1.95/avrtoolchain/bin/../lib/gcc/avr32/4.4.3/../../../../avr32/lib/ucr3fp\libc.a(lib_a-closer.o)
 .text          0x00000000        0x0 c:/program files (x86)/atmel/atmel studio 6.0/extensions/atmel/avrgcc/3.4.1.95/avrtoolchain/bin/../lib/gcc/avr32/4.4.3/../../../../avr32/lib/ucr3fp\libc.a(lib_a-errno.o)
 .data          0x00000000        0x0 c:/program files (x86)/atmel/atmel studio 6.0/extensions/atmel/avrgcc/3.4.1.95/avrtoolchain/bin/../lib/gcc/avr32/4.4.3/../../../../avr32/lib/ucr3fp\libc.a(lib_a-errno.o)
 .bss           0x00000000        0x0 c:/program files (x86)/atmel/atmel studio 6.0/extensions/atmel/avrgcc/3.4.1.95/avrtoolchain/bin/../lib/gcc/avr32/4.4.3/../../../../avr32/lib/ucr3fp\libc.a(lib_a-errno.o)
 .text          0x00000000        0x0 c:/program files (x86)/atmel/atmel studio 6.0/extensions/atmel/avrgcc/3.4.1.95/avrtoolchain/bin/../lib/gcc/avr32/4.4.3/../../../../avr32/lib/ucr3fp\libc.a(lib_a-fclose.o)
 .data          0x00000000        0x0 c:/program files (x86)/atmel/atmel studio 6.0/extensions/atmel/avrgcc/3.4.1.95/avrtoolchain/bin/../lib/gcc/avr32/4.4.3/../../../../avr32/lib/ucr3fp\libc.a(lib_a-fclose.o)
 .bss           0x00000000        0x0 c:/program files (x86)/atmel/atmel studio 6.0/extensions/atmel/avrgcc/3.4.1.95/avrtoolchain/bin/../lib/gcc/avr32/4.4.3/../../../../avr32/lib/ucr3fp\libc.a(lib_a-fclose.o)
 .text          0x00000000        0x0 c:/program files (x86)/atmel/atmel studio 6.0/extensions/atmel/avrgcc/3.4.1.95/avrtoolchain/bin/../lib/gcc/avr32/4.4.3/../../../../avr32/lib/ucr3fp\libc.a(lib_a-fstatr.o)
 .data          0x00000000        0x0 c:/program files (x86)/atmel/atmel studio 6.0/extensions/atmel/avrgcc/3.4.1.95/avrtoolchain/bin/../lib/gcc/avr32/4.4.3/../../../../avr32/lib/ucr3fp\libc.a(lib_a-fstatr.o)
 .bss           0x00000000        0x0 c:/program files (x86)/atmel/atmel studio 6.0/extensions/atmel/avrgcc/3.4.1.95/avrtoolchain/bin/../lib/gcc/avr32/4.4.3/../../../../avr32/lib/ucr3fp\libc.a(lib_a-fstatr.o)
 .text          0x00000000        0x0 c:/program files (x86)/atmel/atmel studio 6.0/extensions/atmel/avrgcc/3.4.1.95/avrtoolchain/bin/../lib/gcc/avr32/4.4.3/../../../../avr32/lib/ucr3fp\libc.a(lib_a-lseekr.o)
 .data          0x00000000        0x0 c:/program files (x86)/atmel/atmel studio 6.0/extensions/atmel/avrgcc/3.4.1.95/avrtoolchain/bin/../lib/gcc/avr32/4.4.3/../../../../avr32/lib/ucr3fp\libc.a(lib_a-lseekr.o)
 .bss           0x00000000        0x0 c:/program files (x86)/atmel/atmel studio 6.0/extensions/atmel/avrgcc/3.4.1.95/avrtoolchain/bin/../lib/gcc/avr32/4.4.3/../../../../avr32/lib/ucr3fp\libc.a(lib_a-lseekr.o)
 .text          0x00000000        0x0 c:/program files (x86)/atmel/atmel studio 6.0/extensions/atmel/avrgcc/3.4.1.95/avrtoolchain/bin/../lib/gcc/avr32/4.4.3/../../../../avr32/lib/ucr3fp\libc.a(lib_a-readr.o)
 .data          0x00000000        0x0 c:/program files (x86)/atmel/atmel studio 6.0/extensions/atmel/avrgcc/3.4.1.95/avrtoolchain/bin/../lib/gcc/avr32/4.4.3/../../../../avr32/lib/ucr3fp\libc.a(lib_a-readr.o)
 .bss           0x00000000        0x0 c:/program files (x86)/atmel/atmel studio 6.0/extensions/atmel/avrgcc/3.4.1.95/avrtoolchain/bin/../lib/gcc/avr32/4.4.3/../../../../avr32/lib/ucr3fp\libc.a(lib_a-readr.o)
 .text          0x00000000        0x0 c:/program files (x86)/atmel/atmel studio 6.0/extensions/atmel/avrgcc/3.4.1.95/avrtoolchain/bin/../lib/gcc/avr32/4.4.3/../../../../avr32/lib/ucr3fp\libc.a(lib_a-reent.o)
 .data          0x00000000        0x0 c:/program files (x86)/atmel/atmel studio 6.0/extensions/atmel/avrgcc/3.4.1.95/avrtoolchain/bin/../lib/gcc/avr32/4.4.3/../../../../avr32/lib/ucr3fp\libc.a(lib_a-reent.o)
 .bss           0x00000000        0x0 c:/program files (x86)/atmel/atmel studio 6.0/extensions/atmel/avrgcc/3.4.1.95/avrtoolchain/bin/../lib/gcc/avr32/4.4.3/../../../../avr32/lib/ucr3fp\libc.a(lib_a-reent.o)
 .text._wrapup_reent
                0x00000000       0x3c c:/program files (x86)/atmel/atmel studio 6.0/extensions/atmel/avrgcc/3.4.1.95/avrtoolchain/bin/../lib/gcc/avr32/4.4.3/../../../../avr32/lib/ucr3fp\libc.a(lib_a-reent.o)
 .text.cleanup_glue
                0x00000000       0x24 c:/program files (x86)/atmel/atmel studio 6.0/extensions/atmel/avrgcc/3.4.1.95/avrtoolchain/bin/../lib/gcc/avr32/4.4.3/../../../../avr32/lib/ucr3fp\libc.a(lib_a-reent.o)
 .text._reclaim_reent
                0x00000000       0xd4 c:/program files (x86)/atmel/atmel studio 6.0/extensions/atmel/avrgcc/3.4.1.95/avrtoolchain/bin/../lib/gcc/avr32/4.4.3/../../../../avr32/lib/ucr3fp\libc.a(lib_a-reent.o)
 .data          0x00000000        0x0 c:/program files (x86)/atmel/atmel studio 6.0/extensions/atmel/avrgcc/3.4.1.95/avrtoolchain/bin/../lib/gcc/avr32/4.4.3/ucr3fp\libgcc.a(_avr32_f64_mul.o)
 .bss           0x00000000        0x0 c:/program files (x86)/atmel/atmel studio 6.0/extensions/atmel/avrgcc/3.4.1.95/avrtoolchain/bin/../lib/gcc/avr32/4.4.3/ucr3fp\libgcc.a(_avr32_f64_mul.o)
 .data          0x00000000        0x0 c:/program files (x86)/atmel/atmel studio 6.0/extensions/atmel/avrgcc/3.4.1.95/avrtoolchain/bin/../lib/gcc/avr32/4.4.3/ucr3fp\libgcc.a(_avr32_f64_addsub.o)
 .bss           0x00000000        0x0 c:/program files (x86)/atmel/atmel studio 6.0/extensions/atmel/avrgcc/3.4.1.95/avrtoolchain/bin/../lib/gcc/avr32/4.4.3/ucr3fp\libgcc.a(_avr32_f64_addsub.o)
 .data          0x00000000        0x0 c:/program files (x86)/atmel/atmel studio 6.0/extensions/atmel/avrgcc/3.4.1.95/avrtoolchain/bin/../lib/gcc/avr32/4.4.3/ucr3fp\libgcc.a(_avr32_f64_to_s32.o)
 .bss           0x00000000        0x0 c:/program files (x86)/atmel/atmel studio 6.0/extensions/atmel/avrgcc/3.4.1.95/avrtoolchain/bin/../lib/gcc/avr32/4.4.3/ucr3fp\libgcc.a(_avr32_f64_to_s32.o)
 .data          0x00000000        0x0 c:/program files (x86)/atmel/atmel studio 6.0/extensions/atmel/avrgcc/3.4.1.95/avrtoolchain/bin/../lib/gcc/avr32/4.4.3/ucr3fp\libgcc.a(_avr32_f64_cmp_eq.o)
 .bss           0x00000000        0x0 c:/program files (x86)/atmel/atmel studio 6.0/extensions/atmel/avrgcc/3.4.1.95/avrtoolchain/bin/../lib/gcc/avr32/4.4.3/ucr3fp\libgcc.a(_avr32_f64_cmp_eq.o)
 .data          0x00000000        0x0 c:/program files (x86)/atmel/atmel studio 6.0/extensions/atmel/avrgcc/3.4.1.95/avrtoolchain/bin/../lib/gcc/avr32/4.4.3/ucr3fp\libgcc.a(_avr32_f64_cmp_lt.o)
 .bss           0x00000000        0x0 c:/program files (x86)/atmel/atmel studio 6.0/extensions/atmel/avrgcc/3.4.1.95/avrtoolchain/bin/../lib/gcc/avr32/4.4.3/ucr3fp\libgcc.a(_avr32_f64_cmp_lt.o)
 .data          0x00000000        0x0 c:/program files (x86)/atmel/atmel studio 6.0/extensions/atmel/avrgcc/3.4.1.95/avrtoolchain/bin/../lib/gcc/avr32/4.4.3/ucr3fp\libgcc.a(_avr32_f64_div.o)
 .bss           0x00000000        0x0 c:/program files (x86)/atmel/atmel studio 6.0/extensions/atmel/avrgcc/3.4.1.95/avrtoolchain/bin/../lib/gcc/avr32/4.4.3/ucr3fp\libgcc.a(_avr32_f64_div.o)
 .data          0x00000000        0x0 c:/program files (x86)/atmel/atmel studio 6.0/extensions/atmel/avrgcc/3.4.1.95/avrtoolchain/bin/../lib/gcc/avr32/4.4.3/ucr3fp\libgcc.a(_udivdi3.o)
 .bss           0x00000000        0x0 c:/program files (x86)/atmel/atmel studio 6.0/extensions/atmel/avrgcc/3.4.1.95/avrtoolchain/bin/../lib/gcc/avr32/4.4.3/ucr3fp\libgcc.a(_udivdi3.o)
 .data          0x00000000        0x0 c:/program files (x86)/atmel/atmel studio 6.0/extensions/atmel/avrgcc/3.4.1.95/avrtoolchain/bin/../lib/gcc/avr32/4.4.3/ucr3fp\libgcc.a(_umoddi3.o)
 .bss           0x00000000        0x0 c:/program files (x86)/atmel/atmel studio 6.0/extensions/atmel/avrgcc/3.4.1.95/avrtoolchain/bin/../lib/gcc/avr32/4.4.3/ucr3fp\libgcc.a(_umoddi3.o)

Memory Configuration

Name             Origin             Length             Attributes
FLASH            0x80000000         0x00080000         axrl !w
CPUSRAM          0x00000004         0x0000fffc         axw !rl
USERPAGE         0x80800000         0x00000200
FACTORYPAGE      0x80800200         0x00000200
FLASHVAULT_FLASH_SIZE 0x80800400         0x00000008         r
FLASHVAULT_RAM_SIZE 0x80800408         0x00000008         r
*default*        0x00000000         0xffffffff

Linker script and memory map

                0x00001000                _stack_size = 0x1000
LOAD src/asf/avr32/components/memory/sd_mmc/sd_mmc_spi/sd_mmc_spi.o
LOAD src/asf/avr32/components/memory/sd_mmc/sd_mmc_spi/sd_mmc_spi_mem.o
LOAD src/asf/avr32/drivers/acifa/acifa.o
LOAD src/asf/avr32/drivers/ebi/sdramc/sdramc.o
LOAD src/asf/avr32/drivers/eic/eic.o
LOAD src/asf/avr32/drivers/flashc/flashc.o
LOAD src/asf/avr32/drivers/gpio/gpio.o
LOAD src/asf/avr32/drivers/intc/exception.o
LOAD src/asf/avr32/drivers/intc/intc.o
LOAD src/asf/avr32/drivers/pdca/pdca.o
LOAD src/asf/avr32/drivers/pm/pm_uc3c.o
LOAD src/asf/avr32/drivers/pm/power_clocks_lib.o
LOAD src/asf/avr32/drivers/pwm/pwm4.o
LOAD src/asf/avr32/drivers/scif/scif_uc3c.o
LOAD src/asf/avr32/drivers/spi/spi.o
LOAD src/asf/avr32/drivers/twim/twim.o
LOAD src/asf/avr32/drivers/usart/usart.o
LOAD src/asf/avr32/services/fs/fat/fat.o
LOAD src/asf/avr32/services/fs/fat/fat_unusual.o
LOAD src/asf/avr32/services/fs/fat/file.o
LOAD src/asf/avr32/services/fs/fat/navigation.o
LOAD src/asf/avr32/utils/debug/print_funcs.o
LOAD src/asf/avr32/utils/startup/startup_uc3.o
LOAD src/asf/avr32/utils/startup/trampoline_uc3.o
LOAD src/asf/common/boards/user_board/init.o
LOAD src/asf/common/services/clock/uc3c/osc.o
LOAD src/asf/common/services/clock/uc3c/pll.o
LOAD src/asf/common/services/clock/uc3c/sysclk.o
LOAD src/asf/common/services/storage/ctrl_access/ctrl_access.o
LOAD src/asf/thirdparty/dlmalloc/dlmalloc.o
LOAD src/asf/thirdparty/dlmalloc/dlsbrk.o
LOAD src/CustomDevices/Bitmap.o
LOAD src/CustomDevices/ImageProcessor.o
LOAD src/CustomDevices/MotorDriver.o
LOAD src/CustomDevices/OV7670.o
LOAD src/CustomDevices/OV7670_Setup.o
LOAD src/CustomDevices/PCA9542A.o
LOAD src/CustomDevices/SD_Card.o
LOAD src/CustomDevices/TWI.o
LOAD src/main.o
START GROUP
LOAD ../src/asf/avr32/utils/libs/dsplib/at32ucr3fp/gcc\libdsp-at32ucr3fp-dspspeed_opt.a
END GROUP
LOAD c:/program files (x86)/atmel/atmel studio 6.0/extensions/atmel/avrgcc/3.4.1.95/avrtoolchain/bin/../lib/gcc/avr32/4.4.3/ucr3fp\libgcc.a
LOAD c:/program files (x86)/atmel/atmel studio 6.0/extensions/atmel/avrgcc/3.4.1.95/avrtoolchain/bin/../lib/gcc/avr32/4.4.3/../../../../avr32/lib/ucr3fp\libc.a
LOAD c:/program files (x86)/atmel/atmel studio 6.0/extensions/atmel/avrgcc/3.4.1.95/avrtoolchain/bin/../lib/gcc/avr32/4.4.3/ucr3fp\libgcc.a
                0x80000000                PROVIDE (__executable_start, 0x80000000)
                0x80000000                . = 0x80000000

.interp
 *(.interp)

.reset          0x80000000     0x2004
 *(.reset)
 .reset         0x80000000     0x2004 src/asf/avr32/utils/startup/trampoline_uc3.o
                               0x2008 (size before relaxing)
                0x80000000                _trampoline

.hash
 *(.hash)

.dynsym
 *(.dynsym)

.dynstr
 *(.dynstr)

.gnu.version
 *(.gnu.version)

.gnu.version_d
 *(.gnu.version_d)

.gnu.version_r
 *(.gnu.version_r)

.rel.init
 *(.rel.init)

.rela.init
 *(.rela.init)

.rel.text
 *(.rel.text .rel.text.* .rel.gnu.linkonce.t.*)

.rela.text
 *(.rela.text .rela.text.* .rela.gnu.linkonce.t.*)

.rel.fini
 *(.rel.fini)

.rela.fini
 *(.rela.fini)

.rel.rodata
 *(.rel.rodata .rel.rodata.* .rel.gnu.linkonce.r.*)

.rela.rodata
 *(.rela.rodata .rela.rodata.* .rela.gnu.linkonce.r.*)

.rel.data.rel.ro
 *(.rel.data.rel.ro*)

.rela.data.rel.ro
 *(.rel.data.rel.ro*)

.rel.data
 *(.rel.data .rel.data.* .rel.gnu.linkonce.d.*)

.rela.data
 *(.rela.data .rela.data.* .rela.gnu.linkonce.d.*)

.rel.tdata
 *(.rel.tdata .rel.tdata.* .rel.gnu.linkonce.td.*)

.rela.tdata
 *(.rela.tdata .rela.tdata.* .rela.gnu.linkonce.td.*)

.rel.tbss
 *(.rel.tbss .rel.tbss.* .rel.gnu.linkonce.tb.*)

.rela.tbss
 *(.rela.tbss .rela.tbss.* .rela.gnu.linkonce.tb.*)

.rel.ctors
 *(.rel.ctors)

.rela.ctors
 *(.rela.ctors)

.rel.dtors
 *(.rel.dtors)

.rela.dtors
 *(.rela.dtors)

.rel.got
 *(.rel.got)

.rela.got       0x80002004        0x0
 *(.rela.got)
 .rela.got      0x80002004        0x0 src/asf/avr32/drivers/flashc/flashc.o

.rel.bss
 *(.rel.bss .rel.bss.* .rel.gnu.linkonce.b.*)

.rela.bss
 *(.rela.bss .rela.bss.* .rela.gnu.linkonce.b.*)

.rel.plt
 *(.rel.plt)

.rela.plt
 *(.rela.plt)

.init
 *(.init)

.plt
 *(.plt)

.text           0x80002004    0x1031c
 *(.text .stub .text.* .gnu.linkonce.t.*)
 .text.sd_mmc_spi_get_capacity
                0x80002004      0x11c src/asf/avr32/components/memory/sd_mmc/sd_mmc_spi/sd_mmc_spi.o
                0x80002004                sd_mmc_spi_get_capacity
 .text.sd_mmc_spi_write_close
                0x80002120        0x2 src/asf/avr32/components/memory/sd_mmc/sd_mmc_spi/sd_mmc_spi.o
                0x80002120                sd_mmc_spi_write_close
 *fill*         0x80002122        0x2 d703d703
 .text.sd_mmc_spi_send_and_read
                0x80002124       0x34 src/asf/avr32/components/memory/sd_mmc/sd_mmc_spi/sd_mmc_spi.o
                0x80002124                sd_mmc_spi_send_and_read
 .text.sd_mmc_spi_wait_not_busy
                0x80002158       0x58 src/asf/avr32/components/memory/sd_mmc/sd_mmc_spi/sd_mmc_spi.o
                0x80002158                sd_mmc_spi_wait_not_busy
 .text.sd_mmc_spi_write_open
                0x800021b0       0x18 src/asf/avr32/components/memory/sd_mmc/sd_mmc_spi/sd_mmc_spi.o
                0x800021b0                sd_mmc_spi_write_open
 .text.sd_mmc_spi_read_close
                0x800021c8        0xc src/asf/avr32/components/memory/sd_mmc/sd_mmc_spi/sd_mmc_spi.o
                0x800021c8                sd_mmc_spi_read_close
 .text.sd_mmc_spi_read_open
                0x800021d4       0x18 src/asf/avr32/components/memory/sd_mmc/sd_mmc_spi/sd_mmc_spi.o
                0x800021d4                sd_mmc_spi_read_open
 .text.sd_mmc_spi_command
                0x800021ec       0xc8 src/asf/avr32/components/memory/sd_mmc/sd_mmc_spi/sd_mmc_spi.o
                0x800021ec                sd_mmc_spi_command
 .text.sd_mmc_spi_send_command
                0x800022b4       0x40 src/asf/avr32/components/memory/sd_mmc/sd_mmc_spi/sd_mmc_spi.o
                0x800022b4                sd_mmc_spi_send_command
 .text.sd_mmc_spi_check_presence
                0x800022f4       0x7c src/asf/avr32/components/memory/sd_mmc/sd_mmc_spi/sd_mmc_spi.o
                0x800022f4                sd_mmc_spi_check_presence
 .text.sd_mmc_spi_write_sector_from_ram
                0x80002370      0x14c src/asf/avr32/components/memory/sd_mmc/sd_mmc_spi/sd_mmc_spi.o
                0x80002370                sd_mmc_spi_write_sector_from_ram
 .text.sd_mmc_spi_check_hc
                0x800024bc       0x8c src/asf/avr32/components/memory/sd_mmc/sd_mmc_spi/sd_mmc_spi.o
                0x800024bc                sd_mmc_spi_check_hc
 .text.sd_mmc_spi_get_if
                0x80002548       0xb8 src/asf/avr32/components/memory/sd_mmc/sd_mmc_spi/sd_mmc_spi.o
                0x80002548                sd_mmc_spi_get_if
 .text.sd_mmc_spi_read_sector_to_ram
                0x80002600      0x150 src/asf/avr32/components/memory/sd_mmc/sd_mmc_spi/sd_mmc_spi.o
                0x80002600                sd_mmc_spi_read_sector_to_ram
 .text.sd_mmc_spi_get_csd
                0x80002750       0xf4 src/asf/avr32/components/memory/sd_mmc/sd_mmc_spi/sd_mmc_spi.o
                0x80002750                sd_mmc_spi_get_csd
 .text.sd_mmc_spi_internal_init
                0x80002844      0x2a4 src/asf/avr32/components/memory/sd_mmc/sd_mmc_spi/sd_mmc_spi.o
                0x80002844                sd_mmc_spi_internal_init
 .text.sd_mmc_spi_mem_check
                0x80002ae8       0x28 src/asf/avr32/components/memory/sd_mmc/sd_mmc_spi/sd_mmc_spi.o
                0x80002ae8                sd_mmc_spi_mem_check
 .text.sd_mmc_spi_init
                0x80002b10       0x34 src/asf/avr32/components/memory/sd_mmc/sd_mmc_spi/sd_mmc_spi.o
                0x80002b10                sd_mmc_spi_init
 .text.sd_mmc_spi_wr_protect
                0x80002b44        0x2 src/asf/avr32/components/memory/sd_mmc/sd_mmc_spi/sd_mmc_spi_mem.o
                0x80002b44                sd_mmc_spi_wr_protect
 .text.sd_mmc_spi_removal
                0x80002b46        0x2 src/asf/avr32/components/memory/sd_mmc/sd_mmc_spi/sd_mmc_spi_mem.o
                0x80002b46                sd_mmc_spi_removal
 .text.sd_mmc_spi_test_unit_ready
                0x80002b48       0x6c src/asf/avr32/components/memory/sd_mmc/sd_mmc_spi/sd_mmc_spi_mem.o
                0x80002b48                sd_mmc_spi_test_unit_ready
 .text.sd_mmc_spi_mem_init
                0x80002bb4        0xc src/asf/avr32/components/memory/sd_mmc/sd_mmc_spi/sd_mmc_spi_mem.o
                0x80002bb4                sd_mmc_spi_mem_init
 .text.sd_mmc_spi_ram_2_mem
                0x80002bc0       0x68 src/asf/avr32/components/memory/sd_mmc/sd_mmc_spi/sd_mmc_spi_mem.o
                0x80002bc0                sd_mmc_spi_ram_2_mem
 .text.sd_mmc_spi_mem_2_ram
                0x80002c28       0x68 src/asf/avr32/components/memory/sd_mmc/sd_mmc_spi/sd_mmc_spi_mem.o
                0x80002c28                sd_mmc_spi_mem_2_ram
 .text.sd_mmc_spi_read_capacity
                0x80002c90       0x40 src/asf/avr32/components/memory/sd_mmc/sd_mmc_spi/sd_mmc_spi_mem.o
                0x80002c90                sd_mmc_spi_read_capacity
 .text.acifa_is_aca_ready
                0x80002cd0        0x8 src/asf/avr32/drivers/acifa/acifa.o
 .text.acifa_is_acb_ready
                0x80002cd8        0x8 src/asf/avr32/drivers/acifa/acifa.o
 .text.acifa_configure
                0x80002ce0       0x44 src/asf/avr32/drivers/acifa/acifa.o
                0x80002ce0                acifa_configure
 .text.acifa_configure_hysteresis
                0x80002d24       0x24 src/asf/avr32/drivers/acifa/acifa.o
                0x80002d24                acifa_configure_hysteresis
 .text.acifa_start
                0x80002d48       0x58 src/asf/avr32/drivers/acifa/acifa.o
                0x80002d48                acifa_start
 .text.acifa_is_aca_inp_higher
                0x80002da0        0x8 src/asf/avr32/drivers/acifa/acifa.o
                0x80002da0                acifa_is_aca_inp_higher
 .text.acifa_is_acb_inp_higher
                0x80002da8        0x8 src/asf/avr32/drivers/acifa/acifa.o
                0x80002da8                acifa_is_acb_inp_higher
 .text.sdramc_ck_delay
                0x80002db0       0x22 src/asf/avr32/drivers/ebi/sdramc/sdramc.o
 *fill*         0x80002dd2        0x2 d703d703
 .text.sdramc_init
                0x80002dd4      0x14c src/asf/avr32/drivers/ebi/sdramc/sdramc.o
                0x80002dd4                sdramc_init
 .text.eic_init
                0x80002f20       0xd0 src/asf/avr32/drivers/eic/eic.o
                0x80002f20                eic_init
 .text.eic_enable_line
                0x80002ff0        0xa src/asf/avr32/drivers/eic/eic.o
                0x80002ff0                eic_enable_line
 .text.eic_enable_interrupt_line
                0x80002ffa        0xa src/asf/avr32/drivers/eic/eic.o
                0x80002ffa                eic_enable_interrupt_line
 .text.eic_clear_interrupt_line
                0x80003004       0x16 src/asf/avr32/drivers/eic/eic.o
                0x80003004                eic_clear_interrupt_line
 .text.eic_disable_interrupt_line
                0x8000301a       0x16 src/asf/avr32/drivers/eic/eic.o
                0x8000301a                eic_disable_interrupt_line
 .text.flashc_set_wait_state
                0x80003030        0xe src/asf/avr32/drivers/flashc/flashc.o
                0x80003030                flashc_set_wait_state
 .text.flashc_is_ready
                0x8000303e        0xc src/asf/avr32/drivers/flashc/flashc.o
                0x8000303e                flashc_is_ready
 *fill*         0x8000304a        0x2 d703d703
 .text.flashc_default_wait_until_ready
                0x8000304c       0x10 src/asf/avr32/drivers/flashc/flashc.o
                0x8000304c                flashc_default_wait_until_ready
 .text.flashc_issue_command
                0x8000305c       0x48 src/asf/avr32/drivers/flashc/flashc.o
                0x8000305c                flashc_issue_command
 .text.flashc_set_flash_waitstate_and_readmode
                0x800030a4       0x5c src/asf/avr32/drivers/flashc/flashc.o
                0x800030a4                flashc_set_flash_waitstate_and_readmode
 .text.gpio_enable_module_pin
                0x80003100       0x94 src/asf/avr32/drivers/gpio/gpio.o
                0x80003100                gpio_enable_module_pin
 .text.gpio_enable_module
                0x80003194       0x30 src/asf/avr32/drivers/gpio/gpio.o
                0x80003194                gpio_enable_module
 .text.gpio_enable_pin_pull_up
                0x800031c4       0x1a src/asf/avr32/drivers/gpio/gpio.o
                0x800031c4                gpio_enable_pin_pull_up
 .text.gpio_get_pin_value
                0x800031de       0x16 src/asf/avr32/drivers/gpio/gpio.o
                0x800031de                gpio_get_pin_value
 .text.gpio_set_gpio_pin
                0x800031f4       0x1c src/asf/avr32/drivers/gpio/gpio.o
                0x800031f4                gpio_set_gpio_pin
 .text.gpio_clr_gpio_pin
                0x80003210       0x1c src/asf/avr32/drivers/gpio/gpio.o
                0x80003210                gpio_clr_gpio_pin
 .text._unhandled_interrupt
                0x8000322c        0x2 src/asf/avr32/drivers/intc/intc.o
 *fill*         0x8000322e        0x2 d703d703
 .text.INTC_register_interrupt
                0x80003230       0x80 src/asf/avr32/drivers/intc/intc.o
                0x80003230                INTC_register_interrupt
 .text.INTC_init_interrupts
                0x800032b0       0x54 src/asf/avr32/drivers/intc/intc.o
                0x800032b0                INTC_init_interrupts
 .text._get_interrupt_handler
                0x80003304       0x38 src/asf/avr32/drivers/intc/intc.o
                0x80003304                _get_interrupt_handler
 .text.pm_set_mclk_source
                0x8000333c       0x20 src/asf/avr32/drivers/pm/pm_uc3c.o
                0x8000333c                pm_set_mclk_source
 .text.pcl_switch_to_osc
                0x8000335c       0x44 src/asf/avr32/drivers/pm/power_clocks_lib.o
                0x8000335c                pcl_switch_to_osc
 .text.pwm_write_protect_sw_unlock
                0x800033a0       0xbc src/asf/avr32/drivers/pwm/pwm4.o
                0x800033a0                pwm_write_protect_sw_unlock
 .text.pwm_channel_init
                0x8000345c       0x3e src/asf/avr32/drivers/pwm/pwm4.o
                0x8000345c                pwm_channel_init
 .text.pwm_start_channels
                0x8000349a       0x12 src/asf/avr32/drivers/pwm/pwm4.o
                0x8000349a                pwm_start_channels
 .text.pwm_stop_channels
                0x800034ac       0x12 src/asf/avr32/drivers/pwm/pwm4.o
                0x800034ac                pwm_stop_channels
 .text.pwm_update_period_value
                0x800034be        0x8 src/asf/avr32/drivers/pwm/pwm4.o
                0x800034be                pwm_update_period_value
 *fill*         0x800034c6        0x2 d703d703
 .text.pwm_init
                0x800034c8       0xfc src/asf/avr32/drivers/pwm/pwm4.o
                0x800034c8                pwm_init
 .text.scif_pclksr_statushigh_wait
                0x800035c4       0x1a src/asf/avr32/drivers/scif/scif_uc3c.o
 .text.scif_wait_for_pll_locked
                0x800035de       0x20 src/asf/avr32/drivers/scif/scif_uc3c.o
                0x800035de                scif_wait_for_pll_locked
 .text.scif_stop_gclk
                0x800035fe       0x30 src/asf/avr32/drivers/scif/scif_uc3c.o
                0x800035fe                scif_stop_gclk
 *fill*         0x8000362e        0x2 d703d703
 .text.scif_gc_setup
                0x80003630       0x84 src/asf/avr32/drivers/scif/scif_uc3c.o
                0x80003630                scif_gc_setup
 .text.scif_gc_enable
                0x800036b4       0x24 src/asf/avr32/drivers/scif/scif_uc3c.o
                0x800036b4                scif_gc_enable
 .text.scif_pll_enable
                0x800036d8       0x44 src/asf/avr32/drivers/scif/scif_uc3c.o
                0x800036d8                scif_pll_enable
 .text.scif_pll_setup
                0x8000371c       0x86 src/asf/avr32/drivers/scif/scif_uc3c.o
                0x8000371c                scif_pll_setup
 *fill*         0x800037a2        0x2 d703d703
 .text.scif_enable_osc
                0x800037a4       0x74 src/asf/avr32/drivers/scif/scif_uc3c.o
                0x800037a4                scif_enable_osc
 .text.scif_configure_osc_crystalmode
                0x80003818       0xd0 src/asf/avr32/drivers/scif/scif_uc3c.o
                0x80003818                scif_configure_osc_crystalmode
 .text.getBaudDiv
                0x800038e8       0x20 src/asf/avr32/drivers/spi/spi.o
                0x800038e8                getBaudDiv
 .text.spi_initMaster
                0x80003908       0x38 src/asf/avr32/drivers/spi/spi.o
                0x80003908                spi_initMaster
 .text.spi_selectionMode
                0x80003940       0x3e src/asf/avr32/drivers/spi/spi.o
                0x80003940                spi_selectionMode
 .text.spi_selectChip
                0x8000397e       0x4c src/asf/avr32/drivers/spi/spi.o
                0x8000397e                spi_selectChip
 .text.spi_unselectChip
                0x800039ca       0x26 src/asf/avr32/drivers/spi/spi.o
                0x800039ca                spi_unselectChip
 .text.spi_setupChipReg
                0x800039f0       0xb8 src/asf/avr32/drivers/spi/spi.o
                0x800039f0                spi_setupChipReg
 .text.spi_enable
                0x80003aa8        0x6 src/asf/avr32/drivers/spi/spi.o
                0x80003aa8                spi_enable
 .text.spi_write
                0x80003aae       0x1c src/asf/avr32/drivers/spi/spi.o
                0x80003aae                spi_write
 .text.spi_read
                0x80003aca       0x20 src/asf/avr32/drivers/spi/spi.o
                0x80003aca                spi_read
 *fill*         0x80003aea        0x2 d703d703
 .text.twim_master_interrupt_handler
                0x80003aec       0xdc src/asf/avr32/drivers/twim/twim.o
 .text.twim_set_speed
                0x80003bc8       0x70 src/asf/avr32/drivers/twim/twim.o
                0x80003bc8                twim_set_speed
 .text.twim_status
                0x80003c38       0x10 src/asf/avr32/drivers/twim/twim.o
                0x80003c38                twim_status
 .text.twim_disable_interrupt
                0x80003c48       0x14 src/asf/avr32/drivers/twim/twim.o
                0x80003c48                twim_disable_interrupt
 .text.twim_write
                0x80003c5c       0xb4 src/asf/avr32/drivers/twim/twim.o
                0x80003c5c                twim_write
 .text.twim_probe
                0x80003d10       0x1c src/asf/avr32/drivers/twim/twim.o
                0x80003d10                twim_probe
 .text.twim_master_init
                0x80003d2c       0xb4 src/asf/avr32/drivers/twim/twim.o
                0x80003d2c                twim_master_init
 .text.usart_set_async_baudrate
                0x80003de0       0x5a src/asf/avr32/drivers/usart/usart.o
 .text.usart_write_char
                0x80003e3a       0x14 src/asf/avr32/drivers/usart/usart.o
                0x80003e3a                usart_write_char
 *fill*         0x80003e4e        0x2 d703d703
 .text.usart_putchar
                0x80003e50       0x2c src/asf/avr32/drivers/usart/usart.o
                0x80003e50                usart_putchar
 .text.usart_read_char
                0x80003e7c       0x22 src/asf/avr32/drivers/usart/usart.o
                0x80003e7c                usart_read_char
 *fill*         0x80003e9e        0x2 d703d703
 .text.usart_getchar
                0x80003ea0       0x2c src/asf/avr32/drivers/usart/usart.o
                0x80003ea0                usart_getchar
 .text.usart_write_line
                0x80003ecc       0x24 src/asf/avr32/drivers/usart/usart.o
                0x80003ecc                usart_write_line
 .text.usart_reset
                0x80003ef0       0x2c src/asf/avr32/drivers/usart/usart.o
                0x80003ef0                usart_reset
 .text.usart_init_rs232
                0x80003f1c       0xcc src/asf/avr32/drivers/usart/usart.o
                0x80003f1c                usart_init_rs232
 .text.fat_check_open
                0x80003fe8       0x20 src/asf/avr32/services/fs/fat/fat.o
                0x80003fe8                fat_check_open
 .text.fat_check_select
                0x80004008       0x20 src/asf/avr32/services/fs/fat/fat.o
                0x80004008                fat_check_select
 .text.fat_check_is_file
                0x80004028       0x1c src/asf/avr32/services/fs/fat/fat.o
                0x80004028                fat_check_is_file
 .text.fat_checkcluster
                0x80004044       0x60 src/asf/avr32/services/fs/fat/fat.o
                0x80004044                fat_checkcluster
 .text.fat_cache_clusterlist_reset
                0x800040a4       0x28 src/asf/avr32/services/fs/fat/fat.o
                0x800040a4                fat_cache_clusterlist_reset
 .text.fat_cache_clusterlist_update_start
                0x800040cc       0x40 src/asf/avr32/services/fs/fat/fat.o
                0x800040cc                fat_cache_clusterlist_update_start
 .text.fat_cache_clusterlist_update_select
                0x8000410c       0x68 src/asf/avr32/services/fs/fat/fat.o
                0x8000410c                fat_cache_clusterlist_update_select
 .text.fat_cache_clusterlist_update_finish
                0x80004174       0x58 src/asf/avr32/services/fs/fat/fat.o
                0x80004174                fat_cache_clusterlist_update_finish
 .text.fat_cache_clusterlist_update_read
                0x800041cc      0x124 src/asf/avr32/services/fs/fat/fat.o
                0x800041cc                fat_cache_clusterlist_update_read
 .text.fat_entry_is_dir
                0x800042f0       0x18 src/asf/avr32/services/fs/fat/fat.o
                0x800042f0                fat_entry_is_dir
 .text.fat_clear_entry_info_and_ptr
                0x80004308       0x3c src/asf/avr32/services/fs/fat/fat.o
                0x80004308                fat_clear_entry_info_and_ptr
 .text.fat_check_eof_name
                0x80004344       0x26 src/asf/avr32/services/fs/fat/fat.o
                0x80004344                fat_check_eof_name
 *fill*         0x8000436a        0x2 d703d703
 .text.fat_get_ptr_entry
                0x8000436c       0x18 src/asf/avr32/services/fs/fat/fat.o
                0x8000436c                fat_get_ptr_entry
 .text.fat_entry_longname
                0x80004384      0x194 src/asf/avr32/services/fs/fat/fat.o
                0x80004384                fat_entry_longname
 .text.fat_entry_shortname
                0x80004518      0x108 src/asf/avr32/services/fs/fat/fat.o
                0x80004518                fat_entry_shortname
 .text.fat_get_entry_info
                0x80004620       0x48 src/asf/avr32/services/fs/fat/fat.o
                0x80004620                fat_get_entry_info
 .text.fat_entry_check
                0x80004668       0x5c src/asf/avr32/services/fs/fat/fat.o
                0x80004668                fat_entry_check
 .text.fat_cache_reset
                0x800046c4       0x18 src/asf/avr32/services/fs/fat/fat.o
                0x800046c4                fat_cache_reset
 .text.fat_cache_mark_sector_as_dirty
                0x800046dc       0x10 src/asf/avr32/services/fs/fat/fat.o
                0x800046dc                fat_cache_mark_sector_as_dirty
 .text.fat_write_entry_file
                0x800046ec       0x50 src/asf/avr32/services/fs/fat/fat.o
                0x800046ec                fat_write_entry_file
 .text.fat_check_nav_access_file
                0x8000473c       0x78 src/asf/avr32/services/fs/fat/fat.o
                0x8000473c                fat_check_nav_access_file
 .text.fat_invert_nav
                0x800047b4       0xec src/asf/avr32/services/fs/fat/fat.o
                0x800047b4                fat_invert_nav
 .text.fat_cache_flush
                0x800048a0       0x54 src/asf/avr32/services/fs/fat/fat.o
                0x800048a0                fat_cache_flush
 .text.fat_cache_clear
                0x800048f4       0x18 src/asf/avr32/services/fs/fat/fat.o
                0x800048f4                fat_cache_clear
 .text.fat_cache_read_sector
                0x8000490c       0x80 src/asf/avr32/services/fs/fat/fat.o
                0x8000490c                fat_cache_read_sector
 .text.fat_cluster_readnext
                0x8000498c       0x94 src/asf/avr32/services/fs/fat/fat.o
                0x8000498c                fat_cluster_readnext
 .text.fat_cluster_val
                0x80004a20      0x244 src/asf/avr32/services/fs/fat/fat.o
                0x80004a20                fat_cluster_val
 .text.fat_cluster_list
                0x80004c64      0x2d8 src/asf/avr32/services/fs/fat/fat.o
                0x80004c64                fat_cluster_list
 .text.fat_read_dir
                0x80004f3c       0x84 src/asf/avr32/services/fs/fat/fat.o
                0x80004f3c                fat_read_dir
 .text.fat_read_file
                0x80004fc0       0xdc src/asf/avr32/services/fs/fat/fat.o
                0x80004fc0                fat_read_file
 .text.fat_write_file
                0x8000509c      0x108 src/asf/avr32/services/fs/fat/fat.o
                0x8000509c                fat_write_file
 .text.fat_check_device
                0x800051a4       0xb8 src/asf/avr32/services/fs/fat/fat.o
                0x800051a4                fat_check_device
 .text.fat_check_noopen
                0x8000525c       0x3c src/asf/avr32/services/fs/fat/fat.o
                0x8000525c                fat_check_noopen
 .text.fat_check_mount
                0x80005298       0x38 src/asf/avr32/services/fs/fat/fat.o
                0x80005298                fat_check_mount
 .text.fat_check_mount_select
                0x800052d0       0x18 src/asf/avr32/services/fs/fat/fat.o
                0x800052d0                fat_check_mount_select
 .text.fat_check_mount_select_open
                0x800052e8       0x24 src/asf/avr32/services/fs/fat/fat.o
                0x800052e8                fat_check_mount_select_open
 .text.fat_check_mount_select_noopen
                0x8000530c       0x24 src/asf/avr32/services/fs/fat/fat.o
                0x8000530c                fat_check_mount_select_noopen
 .text.fat_check_mount_noopen
                0x80005330       0x18 src/asf/avr32/services/fs/fat/fat.o
                0x80005330                fat_check_mount_noopen
 .text.fat_translate_char_shortname
                0x80005348       0x4c src/asf/avr32/services/fs/fat/fat_unusual.o
                0x80005348                fat_translate_char_shortname
 .text.fat_clear_info_fat_mod
                0x80005394       0x18 src/asf/avr32/services/fs/fat/fat_unusual.o
                0x80005394                fat_clear_info_fat_mod
 .text.fat_clear_cluster
                0x800053ac       0x74 src/asf/avr32/services/fs/fat/fat_unusual.o
                0x800053ac                fat_clear_cluster
 .text.fat_update_fat2
                0x80005420       0x74 src/asf/avr32/services/fs/fat/fat_unusual.o
                0x80005420                fat_update_fat2
 .text.fat_initialize_dir
                0x80005494       0x98 src/asf/avr32/services/fs/fat/fat_unusual.o
                0x80005494                fat_initialize_dir
 .text.fat_create_long_name_entry
                0x8000552c       0xd0 src/asf/avr32/services/fs/fat/fat_unusual.o
                0x8000552c                fat_create_long_name_entry
 .text.fat_delete_file
                0x800055fc       0x74 src/asf/avr32/services/fs/fat/fat_unusual.o
                0x800055fc                fat_delete_file
 .text.fat_garbage_collector_entry
                0x80005670       0xc8 src/asf/avr32/services/fs/fat/fat_unusual.o
                0x80005670                fat_garbage_collector_entry
 .text.fat_write_fat32_FSInfo
                0x80005738       0xa0 src/asf/avr32/services/fs/fat/fat_unusual.o
                0x80005738                fat_write_fat32_FSInfo
 .text.fat_allocfreespace
                0x800057d8      0x140 src/asf/avr32/services/fs/fat/fat_unusual.o
                0x800057d8                fat_allocfreespace
 .text.fat_alloc_entry_free
                0x80005918       0xb0 src/asf/avr32/services/fs/fat/fat_unusual.o
                0x80005918                fat_alloc_entry_free
 .text.fat_check_name
                0x800059c8       0x74 src/asf/avr32/services/fs/fat/fat_unusual.o
                0x800059c8                fat_check_name
 .text.fat_create_short_entry_name
                0x80005a3c      0x1bc src/asf/avr32/services/fs/fat/fat_unusual.o
                0x80005a3c                fat_create_short_entry_name
 .text.fat_entry_shortname_compare
                0x80005bf8       0x58 src/asf/avr32/services/fs/fat/fat_unusual.o
                0x80005bf8                fat_entry_shortname_compare
 .text.fat_find_short_entry_name
                0x80005c50       0x78 src/asf/avr32/services/fs/fat/fat_unusual.o
                0x80005c50                fat_find_short_entry_name
 .text.fat_create_entry_file_name
                0x80005cc8       0xa8 src/asf/avr32/services/fs/fat/fat_unusual.o
                0x80005cc8                fat_create_entry_file_name
 .text.fat_mount
                0x80005d70      0x2fc src/asf/avr32/services/fs/fat/fat_unusual.o
                0x80005d70                fat_mount
 .text.file_eof
                0x8000606c       0x28 src/asf/avr32/services/fs/fat/file.o
                0x8000606c                file_eof
 .text.file_seek
                0x80006094       0xb4 src/asf/avr32/services/fs/fat/file.o
                0x80006094                file_seek
 .text.file_close
                0x80006148       0x3c src/asf/avr32/services/fs/fat/file.o
                0x80006148                file_close
 .text.file_write_buf
                0x80006184      0x174 src/asf/avr32/services/fs/fat/file.o
                0x80006184                file_write_buf
 .text.file_getc
                0x800062f8       0x6c src/asf/avr32/services/fs/fat/file.o
                0x800062f8                file_getc
 .text.file_read_buf
                0x80006364      0x18c src/asf/avr32/services/fs/fat/file.o
                0x80006364                file_read_buf
 .text.file_open
                0x800064f0       0xa0 src/asf/avr32/services/fs/fat/file.o
                0x800064f0                file_open
 .text.nav_getindex
                0x80006590       0x20 src/asf/avr32/services/fs/fat/navigation.o
                0x80006590                nav_getindex
 .text.nav_file_isdir
                0x800065b0        0xc src/asf/avr32/services/fs/fat/navigation.o
                0x800065b0                nav_file_isdir
 .text.nav_file_name
                0x800065bc       0xe4 src/asf/avr32/services/fs/fat/navigation.o
                0x800065bc                nav_file_name
 .text.nav_filelist_set
                0x800066a0      0x168 src/asf/avr32/services/fs/fat/navigation.o
                0x800066a0                nav_filelist_set
 .text.nav_filelist_findname
                0x80006808       0x30 src/asf/avr32/services/fs/fat/navigation.o
                0x80006808                nav_filelist_findname
 .text.nav_filelist_reset
                0x80006838       0x18 src/asf/avr32/services/fs/fat/navigation.o
                0x80006838                nav_filelist_reset
 .text.nav_file_create
                0x80006850       0x6c src/asf/avr32/services/fs/fat/navigation.o
                0x80006850                nav_file_create
 .text.nav_dir_gotoparent
                0x800068bc       0xa0 src/asf/avr32/services/fs/fat/navigation.o
                0x800068bc                nav_dir_gotoparent
 .text.nav_dir_cd
                0x8000695c       0x40 src/asf/avr32/services/fs/fat/navigation.o
                0x8000695c                nav_dir_cd
 .text.nav_file_del
                0x8000699c       0xac src/asf/avr32/services/fs/fat/navigation.o
                0x8000699c                nav_file_del
 .text.nav_filelist_first
                0x80006a48       0x40 src/asf/avr32/services/fs/fat/navigation.o
                0x80006a48                nav_filelist_first
 .text.nav_filelist_nb
                0x80006a88       0x70 src/asf/avr32/services/fs/fat/navigation.o
                0x80006a88                nav_filelist_nb
 .text.nav_filelist_last
                0x80006af8       0x50 src/asf/avr32/services/fs/fat/navigation.o
                0x80006af8                nav_filelist_last
 .text.nav_dir_make
                0x80006b48       0x90 src/asf/avr32/services/fs/fat/navigation.o
                0x80006b48                nav_dir_make
 .text.nav_partition_mount
                0x80006bd8       0x3c src/asf/avr32/services/fs/fat/navigation.o
                0x80006bd8                nav_partition_mount
 .text.nav_dir_root
                0x80006c14        0xc src/asf/avr32/services/fs/fat/navigation.o
                0x80006c14                nav_dir_root
 .text.nav_drive_set
                0x80006c20       0x54 src/asf/avr32/services/fs/fat/navigation.o
                0x80006c20                nav_drive_set
 .text.nav_gotoindex
                0x80006c74       0x5c src/asf/avr32/services/fs/fat/navigation.o
                0x80006c74                nav_gotoindex
 .text.nav_setcwd
                0x80006cd0      0x1c4 src/asf/avr32/services/fs/fat/navigation.o
                0x80006cd0                nav_setcwd
 .text.nav_drive_nb
                0x80006e94        0xc src/asf/avr32/services/fs/fat/navigation.o
                0x80006e94                nav_drive_nb
 .text.nav_select
                0x80006ea0       0x48 src/asf/avr32/services/fs/fat/navigation.o
                0x80006ea0                nav_select
 .text.nav_reset
                0x80006ee8       0x6c src/asf/avr32/services/fs/fat/navigation.o
                0x80006ee8                nav_reset
 .text.print_char
                0x80006f54        0xc src/asf/avr32/utils/debug/print_funcs.o
                0x80006f54                print_char
 .text.print_dbg_char
                0x80006f60       0x14 src/asf/avr32/utils/debug/print_funcs.o
                0x80006f60                print_dbg_char
 .text.print    0x80006f74        0xc src/asf/avr32/utils/debug/print_funcs.o
                0x80006f74                print
 .text.print_hex
                0x80006f80       0x38 src/asf/avr32/utils/debug/print_funcs.o
                0x80006f80                print_hex
 .text.print_dbg_hex
                0x80006fb8       0x14 src/asf/avr32/utils/debug/print_funcs.o
                0x80006fb8                print_dbg_hex
 .text.print_ulong
                0x80006fcc       0x48 src/asf/avr32/utils/debug/print_funcs.o
                0x80006fcc                print_ulong
 .text.print_dbg_ulong
                0x80007014       0x14 src/asf/avr32/utils/debug/print_funcs.o
                0x80007014                print_dbg_ulong
 .text.print_dbg
                0x80007028       0x14 src/asf/avr32/utils/debug/print_funcs.o
                0x80007028                print_dbg
 .text.init_dbg_rs232_ex
                0x8000703c       0x40 src/asf/avr32/utils/debug/print_funcs.o
                0x8000703c                init_dbg_rs232_ex
 .text.init_dbg_rs232
                0x8000707c       0x14 src/asf/avr32/utils/debug/print_funcs.o
                0x8000707c                init_dbg_rs232
 .text._stext   0x80007090       0x50 src/asf/avr32/utils/startup/startup_uc3.o
                0x80007090                _stext
 .text.SD_Card_Test
                0x800070e0       0xd0 src/asf/common/boards/user_board/init.o
                0x800070e0                SD_Card_Test
 .text.System_Test
                0x800071b0       0xa4 src/asf/common/boards/user_board/init.o
                0x800071b0                System_Test
 .text.board_init
                0x80007254       0xa0 src/asf/common/boards/user_board/init.o
                0x80007254                board_init
 .text.get_nb_lun
                0x800072f4        0x2 src/asf/common/services/storage/ctrl_access/ctrl_access.o
                0x800072f4                get_nb_lun
 *fill*         0x800072f6        0x2 d703d703
 .text.mem_test_unit_ready
                0x800072f8       0x14 src/asf/common/services/storage/ctrl_access/ctrl_access.o
                0x800072f8                mem_test_unit_ready
 .text.mem_read_capacity
                0x8000730c       0x18 src/asf/common/services/storage/ctrl_access/ctrl_access.o
                0x8000730c                mem_read_capacity
 .text.mem_sector_size
                0x80007324        0x6 src/asf/common/services/storage/ctrl_access/ctrl_access.o
                0x80007324                mem_sector_size
 *fill*         0x8000732a        0x2 d703d703
 .text.mem_wr_protect
                0x8000732c       0x14 src/asf/common/services/storage/ctrl_access/ctrl_access.o
                0x8000732c                mem_wr_protect
 .text.memory_2_ram
                0x80007340       0x1c src/asf/common/services/storage/ctrl_access/ctrl_access.o
                0x80007340                memory_2_ram
 .text.ram_2_memory
                0x8000735c       0x1c src/asf/common/services/storage/ctrl_access/ctrl_access.o
                0x8000735c                ram_2_memory
 .text.segment_holding
                0x80007378       0x1c src/asf/thirdparty/dlmalloc/dlmalloc.o
 .text.init_mparams
                0x80007394       0x48 src/asf/thirdparty/dlmalloc/dlmalloc.o
 .text.init_top
                0x800073dc       0x30 src/asf/thirdparty/dlmalloc/dlmalloc.o
 .text.init_bins
                0x8000740c       0x14 src/asf/thirdparty/dlmalloc/dlmalloc.o
 .text.sys_trim
                0x80007420      0x38c src/asf/thirdparty/dlmalloc/dlmalloc.o
 .text.mspace_free
                0x800077ac      0x48c src/asf/thirdparty/dlmalloc/dlmalloc.o
                0x800077ac                mspace_free
 .text.tmalloc_small
                0x80007c38      0x1d8 src/asf/thirdparty/dlmalloc/dlmalloc.o
 .text.tmalloc_large
                0x80007e10      0x3d8 src/asf/thirdparty/dlmalloc/dlmalloc.o
 .text.free     0x800081e8      0x510 src/asf/thirdparty/dlmalloc/dlmalloc.o
                0x800081e8                free
 .text.init_user_mstate
                0x800086f8       0x84 src/asf/thirdparty/dlmalloc/dlmalloc.o
 .text.create_mspace_with_base
                0x8000877c       0x48 src/asf/thirdparty/dlmalloc/dlmalloc.o
                0x8000877c                create_mspace_with_base
 .text.sys_alloc
                0x800087c4      0x898 src/asf/thirdparty/dlmalloc/dlmalloc.o
 .text.mspace_malloc
                0x8000905c      0x238 src/asf/thirdparty/dlmalloc/dlmalloc.o
                0x8000905c                mspace_malloc
 .text.malloc   0x80009294      0x264 src/asf/thirdparty/dlmalloc/dlmalloc.o
                0x80009294                malloc
 .text.dlmalloc_sbrk
                0x800094f8       0x34 src/asf/thirdparty/dlmalloc/dlsbrk.o
                0x800094f8                dlmalloc_sbrk
 .text.mmap     0x8000952c       0x30 src/asf/thirdparty/dlmalloc/dlsbrk.o
                0x8000952c                mmap
 .text.munmap   0x8000955c       0x1c src/asf/thirdparty/dlmalloc/dlsbrk.o
                0x8000955c                munmap
 .text.log_2    0x80009578       0x22 src/CustomDevices/ImageProcessor.o
                0x80009578                log_2
 *fill*         0x8000959a        0x2 d703d703
 .text.FFT1D    0x8000959c       0x70 src/CustomDevices/ImageProcessor.o
                0x8000959c                FFT1D
 .text.FFT2DCOMPLEX
                0x8000960c      0x134 src/CustomDevices/ImageProcessor.o
                0x8000960c                FFT2DCOMPLEX
 .text.FFT2Dabs
                0x80009740      0x128 src/CustomDevices/ImageProcessor.o
                0x80009740                FFT2Dabs
 .text.FFT1D_Abs
                0x80009868       0x80 src/CustomDevices/ImageProcessor.o
                0x80009868                FFT1D_Abs
 .text.Motors_Moving
                0x800098e8       0x18 src/CustomDevices/MotorDriver.o
                0x800098e8                Motors_Moving
 .text.Motor_Stop
                0x80009900       0x48 src/CustomDevices/MotorDriver.o
                0x80009900                Motor_Stop
 .text.Motors_Execute
                0x80009948      0x140 src/CustomDevices/MotorDriver.o
                0x80009948                Motors_Execute
 .text.Motor_Start
                0x80009a88       0xb0 src/CustomDevices/MotorDriver.o
                0x80009a88                Motor_Start
 .text.Motors_Rotate
                0x80009b38       0x78 src/CustomDevices/MotorDriver.o
                0x80009b38                Motors_Rotate
 .text.Motors_Reset
                0x80009bb0       0x28 src/CustomDevices/MotorDriver.o
                0x80009bb0                Motors_Reset
 .text.Motors_Move
                0x80009bd8       0x8c src/CustomDevices/MotorDriver.o
                0x80009bd8                Motors_Move
 .text.Analogue_Comparator_Init
                0x80009c64       0x74 src/CustomDevices/MotorDriver.o
                0x80009c64                Analogue_Comparator_Init
 .text.Motor_Init
                0x80009cd8      0x144 src/CustomDevices/MotorDriver.o
                0x80009cd8                Motor_Init
 .text.Photos_Ready
                0x80009e1c       0x60 src/CustomDevices/OV7670.o
                0x80009e1c                Photos_Ready
 .text.Store_Image_0
                0x80009e7c      0x244 src/CustomDevices/OV7670.o
                0x80009e7c                Store_Image_0
 .text.Store_Image_1
                0x8000a0c0      0x234 src/CustomDevices/OV7670.o
                0x8000a0c0                Store_Image_1
 .text.FIFO_Reset
                0x8000a2f4       0xc8 src/CustomDevices/OV7670.o
                0x8000a2f4                FIFO_Reset
 .text.FIFO_Init
                0x8000a3bc      0x268 src/CustomDevices/OV7670.o
                0x8000a3bc                FIFO_Init
 .text.Store_Both_Images
                0x8000a624      0x110 src/CustomDevices/OV7670.o
                0x8000a624                Store_Both_Images
 .text.TakePhoto
                0x8000a734       0x88 src/CustomDevices/OV7670.o
                0x8000a734                TakePhoto
 .text.VSYNC0_Handler
                0x8000a7bc       0x7c src/CustomDevices/OV7670.o
 .text.VSYNC1_Handler
                0x8000a838       0x7c src/CustomDevices/OV7670.o
 .text.Write_Reg
                0x8000a8b4       0x24 src/CustomDevices/OV7670.o
                0x8000a8b4                Write_Reg
 .text.OV7670_Init
                0x8000a8d8      0x2bc src/CustomDevices/OV7670.o
                0x8000a8d8                OV7670_Init
 .text.PCA9542A_Chan_Sel
                0x8000ab94       0x3c src/CustomDevices/PCA9542A.o
                0x8000ab94                PCA9542A_Chan_Sel
 .text.ReadBigEndian
                0x8000abd0       0x1c src/CustomDevices/SD_Card.o
                0x8000abd0                ReadBigEndian
 .text.ReadBitmap
                0x8000abec      0x1c0 src/CustomDevices/SD_Card.o
                0x8000abec                ReadBitmap
 .text.Read2DSignal
                0x8000adac       0xa0 src/CustomDevices/SD_Card.o
                0x8000adac                Read2DSignal
 .text.ReadSignal
                0x8000ae4c       0xa0 src/CustomDevices/SD_Card.o
                0x8000ae4c                ReadSignal
 .text.SaveBuff
                0x8000aeec       0x70 src/CustomDevices/SD_Card.o
                0x8000aeec                SaveBuff
 .text.SaveBitmap
                0x8000af5c      0x170 src/CustomDevices/SD_Card.o
                0x8000af5c                SaveBitmap
 .text.Read_CSV
                0x8000b0cc       0xbc src/CustomDevices/SD_Card.o
                0x8000b0cc                Read_CSV
 .text.SaveCBuff_CSV
                0x8000b188       0xf8 src/CustomDevices/SD_Card.o
                0x8000b188                SaveCBuff_CSV
 .text.SaveBuff_CSV
                0x8000b280       0xbc src/CustomDevices/SD_Card.o
                0x8000b280                SaveBuff_CSV
 .text.sd_mmc_resources_init
                0x8000b33c       0x84 src/CustomDevices/SD_Card.o
                0x8000b33c                sd_mmc_resources_init
 .text.twim_init
                0x8000b3c0       0x58 src/CustomDevices/TWI.o
                0x8000b3c0                twim_init
 .text.LoadCommands
                0x8000b418      0x1b8 src/main.o
                0x8000b418                LoadCommands
 .text.Auto_Run
                0x8000b5d0      0x1c0 src/main.o
                0x8000b5d0                Auto_Run
 .text.PrintStatus
                0x8000b790      0x11c src/main.o
                0x8000b790                PrintStatus
 .text.System_Error
                0x8000b8ac       0xc4 src/main.o
                0x8000b8ac                System_Error
 .text.Get_Line
                0x8000b970       0x4c src/main.o
                0x8000b970                Get_Line
 .text.Debug_Mode
                0x8000b9bc      0x640 src/main.o
                0x8000b9bc                Debug_Mode
 .text.main     0x8000bffc       0xbc src/main.o
                0x8000bffc                main
 .text.dsp16_vect_complex_abs_kernel_x0
                0x8000c0b8        0x2 ../src/asf/avr32/utils/libs/dsplib/at32ucr3fp/gcc\libdsp-at32ucr3fp-dspspeed_opt.a(vect_dsp16_complex_abs.o)
 *fill*         0x8000c0ba        0x2 d703d703
 .text.dsp16_vect_complex_abs
                0x8000c0bc      0x100 ../src/asf/avr32/utils/libs/dsplib/at32ucr3fp/gcc\libdsp-at32ucr3fp-dspspeed_opt.a(vect_dsp16_complex_abs.o)
                                0x10c (size before relaxing)
                0x8000c0bc                dsp16_vect_complex_abs
 .text.dsp16_vect_complex_abs_kernel_x3
                0x8000c1bc       0x88 ../src/asf/avr32/utils/libs/dsplib/at32ucr3fp/gcc\libdsp-at32ucr3fp-dspspeed_opt.a(vect_dsp16_complex_abs.o)
                                 0x90 (size before relaxing)
 .text.dsp16_vect_complex_abs_kernel_x2
                0x8000c244       0x5c ../src/asf/avr32/utils/libs/dsplib/at32ucr3fp/gcc\libdsp-at32ucr3fp-dspspeed_opt.a(vect_dsp16_complex_abs.o)
                                 0x64 (size before relaxing)
 .text.dsp16_vect_complex_abs_kernel_x1
                0x8000c2a0       0x30 ../src/asf/avr32/utils/libs/dsplib/at32ucr3fp/gcc\libdsp-at32ucr3fp-dspspeed_opt.a(vect_dsp16_complex_abs.o)
                                 0x38 (size before relaxing)
 .text.dsp16_op_sqrt
                0x8000c2d0       0x96 ../src/asf/avr32/utils/libs/dsplib/at32ucr3fp/gcc\libdsp-at32ucr3fp-dspspeed_opt.a(op_dsp16_sqrt_at32uc.o)
                0x8000c2d0                dsp16_op_sqrt
 *fill*         0x8000c366        0x2 d703d703
 .text.dsp16_trans_complexfft
                0x8000c368      0x254 ../src/asf/avr32/utils/libs/dsplib/at32ucr3fp/gcc\libdsp-at32ucr3fp-dspspeed_opt.a(trans_dsp16_complex_fft_at32uc.o)
                0x8000c368                dsp16_trans_complexfft
 .text.dsp16_trans_realcomplexfft
                0x8000c5bc      0x220 ../src/asf/avr32/utils/libs/dsplib/at32ucr3fp/gcc\libdsp-at32ucr3fp-dspspeed_opt.a(trans_dsp16_real_complex_fft_at32uc.o)
                0x8000c5bc                dsp16_trans_realcomplexfft
 .text          0x8000c7dc       0xe8 c:/program files (x86)/atmel/atmel studio 6.0/extensions/atmel/avrgcc/3.4.1.95/avrtoolchain/bin/../lib/gcc/avr32/4.4.3/ucr3fp\libgcc.a(_avr32_s32_to_f64.o)
                0x8000c7dc                __avr32_u32_to_f64
                0x8000c7e4                __avr32_s32_to_f64
 .text          0x8000c8c4       0x68 c:/program files (x86)/atmel/atmel studio 6.0/extensions/atmel/avrgcc/3.4.1.95/avrtoolchain/bin/../lib/gcc/avr32/4.4.3/ucr3fp\libgcc.a(_avr32_f64_cmp_ge.o)
                0x8000c8c4                __avr32_f64_cmp_ge
 .text.atoi     0x8000c92c        0xc c:/program files (x86)/atmel/atmel studio 6.0/extensions/atmel/avrgcc/3.4.1.95/avrtoolchain/bin/../lib/gcc/avr32/4.4.3/../../../../avr32/lib/ucr3fp\libc.a(lib_a-atoi.o)
                                 0x10 (size before relaxing)
                0x8000c92c                atoi
 .text.memcmp   0x8000c938       0x26 c:/program files (x86)/atmel/atmel studio 6.0/extensions/atmel/avrgcc/3.4.1.95/avrtoolchain/bin/../lib/gcc/avr32/4.4.3/../../../../avr32/lib/ucr3fp\libc.a(lib_a-memcmp.o)
                0x8000c938                memcmp
 .text          0x8000c95e      0x148 c:/program files (x86)/atmel/atmel studio 6.0/extensions/atmel/avrgcc/3.4.1.95/avrtoolchain/bin/../lib/gcc/avr32/4.4.3/../../../../avr32/lib/ucr3fp\libc.a(lib_a-memcpy.o)
                0x8000c95e                memcpy
 .text.memset   0x8000caa6        0xe c:/program files (x86)/atmel/atmel studio 6.0/extensions/atmel/avrgcc/3.4.1.95/avrtoolchain/bin/../lib/gcc/avr32/4.4.3/../../../../avr32/lib/ucr3fp\libc.a(lib_a-memset.o)
                0x8000caa6                memset
 .text.sprintf  0x8000cab4       0x3c c:/program files (x86)/atmel/atmel studio 6.0/extensions/atmel/avrgcc/3.4.1.95/avrtoolchain/bin/../lib/gcc/avr32/4.4.3/../../../../avr32/lib/ucr3fp\libc.a(lib_a-sprintf.o)
                                 0x40 (size before relaxing)
                0x8000cab4                sprintf
 .text._strtol_r
                0x8000caf0      0x138 c:/program files (x86)/atmel/atmel studio 6.0/extensions/atmel/avrgcc/3.4.1.95/avrtoolchain/bin/../lib/gcc/avr32/4.4.3/../../../../avr32/lib/ucr3fp\libc.a(lib_a-strtol.o)
                0x8000caf0                _strtol_r
 .text.strtol   0x8000cc28       0x14 c:/program files (x86)/atmel/atmel studio 6.0/extensions/atmel/avrgcc/3.4.1.95/avrtoolchain/bin/../lib/gcc/avr32/4.4.3/../../../../avr32/lib/ucr3fp\libc.a(lib_a-strtol.o)
                                 0x1c (size before relaxing)
                0x8000cc28                strtol
 .text.get_arg  0x8000cc3c      0x318 c:/program files (x86)/atmel/atmel studio 6.0/extensions/atmel/avrgcc/3.4.1.95/avrtoolchain/bin/../lib/gcc/avr32/4.4.3/../../../../avr32/lib/ucr3fp\libc.a(lib_a-vfprintf.o)
                                0x320 (size before relaxing)
 .text.__sprint_r
                0x8000cf54       0x1c c:/program files (x86)/atmel/atmel studio 6.0/extensions/atmel/avrgcc/3.4.1.95/avrtoolchain/bin/../lib/gcc/avr32/4.4.3/../../../../avr32/lib/ucr3fp\libc.a(lib_a-vfprintf.o)
                                 0x20 (size before relaxing)
 .text._vfprintf_r
                0x8000cf70     0x1f1c c:/program files (x86)/atmel/atmel studio 6.0/extensions/atmel/avrgcc/3.4.1.95/avrtoolchain/bin/../lib/gcc/avr32/4.4.3/../../../../avr32/lib/ucr3fp\libc.a(lib_a-vfprintf.o)
                               0x1f90 (size before relaxing)
                0x8000cf70                _vfprintf_r
 .text.__swsetup_r
                0x8000ee8c       0xdc c:/program files (x86)/atmel/atmel studio 6.0/extensions/atmel/avrgcc/3.4.1.95/avrtoolchain/bin/../lib/gcc/avr32/4.4.3/../../../../avr32/lib/ucr3fp\libc.a(lib_a-wsetup.o)
                                 0xe8 (size before relaxing)
                0x8000ee8c                __swsetup_r
 .text.quorem   0x8000ef68      0x120 c:/program files (x86)/atmel/atmel studio 6.0/extensions/atmel/avrgcc/3.4.1.95/avrtoolchain/bin/../lib/gcc/avr32/4.4.3/../../../../avr32/lib/ucr3fp\libc.a(lib_a-dtoa.o)
                                0x124 (size before relaxing)
 .text._dtoa_r  0x8000f088      0xbe0 c:/program files (x86)/atmel/atmel studio 6.0/extensions/atmel/avrgcc/3.4.1.95/avrtoolchain/bin/../lib/gcc/avr32/4.4.3/../../../../avr32/lib/ucr3fp\libc.a(lib_a-dtoa.o)
                                0xc90 (size before relaxing)
                0x8000f088                _dtoa_r
 .text._fflush_r
                0x8000fc68      0x110 c:/program files (x86)/atmel/atmel studio 6.0/extensions/atmel/avrgcc/3.4.1.95/avrtoolchain/bin/../lib/gcc/avr32/4.4.3/../../../../avr32/lib/ucr3fp\libc.a(lib_a-fflush.o)
                                0x118 (size before relaxing)
                0x8000fc68                _fflush_r
 .text.__sfp_lock_acquire
                0x8000fd78        0x2 c:/program files (x86)/atmel/atmel studio 6.0/extensions/atmel/avrgcc/3.4.1.95/avrtoolchain/bin/../lib/gcc/avr32/4.4.3/../../../../avr32/lib/ucr3fp\libc.a(lib_a-findfp.o)
                0x8000fd78                __sfp_lock_acquire
 .text.__sfp_lock_release
                0x8000fd7a        0x2 c:/program files (x86)/atmel/atmel studio 6.0/extensions/atmel/avrgcc/3.4.1.95/avrtoolchain/bin/../lib/gcc/avr32/4.4.3/../../../../avr32/lib/ucr3fp\libc.a(lib_a-findfp.o)
                0x8000fd7a                __sfp_lock_release
 .text._cleanup_r
                0x8000fd7c        0xc c:/program files (x86)/atmel/atmel studio 6.0/extensions/atmel/avrgcc/3.4.1.95/avrtoolchain/bin/../lib/gcc/avr32/4.4.3/../../../../avr32/lib/ucr3fp\libc.a(lib_a-findfp.o)
                                 0x14 (size before relaxing)
                0x8000fd7c                _cleanup_r
 .text.__sfmoreglue
                0x8000fd88       0x28 c:/program files (x86)/atmel/atmel studio 6.0/extensions/atmel/avrgcc/3.4.1.95/avrtoolchain/bin/../lib/gcc/avr32/4.4.3/../../../../avr32/lib/ucr3fp\libc.a(lib_a-findfp.o)
                                 0x30 (size before relaxing)
                0x8000fd88                __sfmoreglue
 .text.__sfp    0x8000fdb0       0x70 c:/program files (x86)/atmel/atmel studio 6.0/extensions/atmel/avrgcc/3.4.1.95/avrtoolchain/bin/../lib/gcc/avr32/4.4.3/../../../../avr32/lib/ucr3fp\libc.a(lib_a-findfp.o)
                                 0x7c (size before relaxing)
                0x8000fdb0                __sfp
 .text.__sinit  0x8000fe20       0x9c c:/program files (x86)/atmel/atmel studio 6.0/extensions/atmel/avrgcc/3.4.1.95/avrtoolchain/bin/../lib/gcc/avr32/4.4.3/../../../../avr32/lib/ucr3fp\libc.a(lib_a-findfp.o)
                                 0xb0 (size before relaxing)
                0x8000fe20                __sinit
 .text._malloc_trim_r
                0x8000febc       0x9c c:/program files (x86)/atmel/atmel studio 6.0/extensions/atmel/avrgcc/3.4.1.95/avrtoolchain/bin/../lib/gcc/avr32/4.4.3/../../../../avr32/lib/ucr3fp\libc.a(lib_a-freer.o)
                                 0xa8 (size before relaxing)
                0x8000febc                _malloc_trim_r
 .text._free_r  0x8000ff58      0x190 c:/program files (x86)/atmel/atmel studio 6.0/extensions/atmel/avrgcc/3.4.1.95/avrtoolchain/bin/../lib/gcc/avr32/4.4.3/../../../../avr32/lib/ucr3fp\libc.a(lib_a-freer.o)
                                0x1a4 (size before relaxing)
                0x8000ff58                _free_r
 .text.__sfvwrite_r
                0x800100e8      0x2a4 c:/program files (x86)/atmel/atmel studio 6.0/extensions/atmel/avrgcc/3.4.1.95/avrtoolchain/bin/../lib/gcc/avr32/4.4.3/../../../../avr32/lib/ucr3fp\libc.a(lib_a-fvwrite.o)
                                0x2c8 (size before relaxing)
                0x800100e8                __sfvwrite_r
 .text._fwalk   0x8001038c       0x4c c:/program files (x86)/atmel/atmel studio 6.0/extensions/atmel/avrgcc/3.4.1.95/avrtoolchain/bin/../lib/gcc/avr32/4.4.3/../../../../avr32/lib/ucr3fp\libc.a(lib_a-fwalk.o)
                                 0x54 (size before relaxing)
                0x8001038c                _fwalk
 .text._localeconv_r
                0x800103d8        0x8 c:/program files (x86)/atmel/atmel studio 6.0/extensions/atmel/avrgcc/3.4.1.95/avrtoolchain/bin/../lib/gcc/avr32/4.4.3/../../../../avr32/lib/ucr3fp\libc.a(lib_a-locale.o)
                0x800103d8                _localeconv_r
 .text.__smakebuf_r
                0x800103e0       0xc4 c:/program files (x86)/atmel/atmel studio 6.0/extensions/atmel/avrgcc/3.4.1.95/avrtoolchain/bin/../lib/gcc/avr32/4.4.3/../../../../avr32/lib/ucr3fp\libc.a(lib_a-makebuf.o)
                                 0xd4 (size before relaxing)
                0x800103e0                __smakebuf_r
 .text._malloc_r
                0x800104a4      0x434 c:/program files (x86)/atmel/atmel studio 6.0/extensions/atmel/avrgcc/3.4.1.95/avrtoolchain/bin/../lib/gcc/avr32/4.4.3/../../../../avr32/lib/ucr3fp\libc.a(lib_a-mallocr.o)
                                0x454 (size before relaxing)
                0x800104a4                _malloc_r
 .text.memchr   0x800108d8       0x16 c:/program files (x86)/atmel/atmel studio 6.0/extensions/atmel/avrgcc/3.4.1.95/avrtoolchain/bin/../lib/gcc/avr32/4.4.3/../../../../avr32/lib/ucr3fp\libc.a(lib_a-memchr.o)
                0x800108d8                memchr
 .text.memmove  0x800108ee       0x3e c:/program files (x86)/atmel/atmel studio 6.0/extensions/atmel/avrgcc/3.4.1.95/avrtoolchain/bin/../lib/gcc/avr32/4.4.3/../../../../avr32/lib/ucr3fp\libc.a(lib_a-memmove.o)
                0x800108ee                memmove
 .text.__malloc_lock
                0x8001092c        0x2 c:/program files (x86)/atmel/atmel studio 6.0/extensions/atmel/avrgcc/3.4.1.95/avrtoolchain/bin/../lib/gcc/avr32/4.4.3/../../../../avr32/lib/ucr3fp\libc.a(lib_a-mlock.o)
                0x8001092c                __malloc_lock
 .text.__malloc_unlock
                0x8001092e        0x2 c:/program files (x86)/atmel/atmel studio 6.0/extensions/atmel/avrgcc/3.4.1.95/avrtoolchain/bin/../lib/gcc/avr32/4.4.3/../../../../avr32/lib/ucr3fp\libc.a(lib_a-mlock.o)
                0x8001092e                __malloc_unlock
 .text.__hi0bits
                0x80010930       0x60 c:/program files (x86)/atmel/atmel studio 6.0/extensions/atmel/avrgcc/3.4.1.95/avrtoolchain/bin/../lib/gcc/avr32/4.4.3/../../../../avr32/lib/ucr3fp\libc.a(lib_a-mprec.o)
                0x80010930                __hi0bits
 .text.__lo0bits
                0x80010990       0x8e c:/program files (x86)/atmel/atmel studio 6.0/extensions/atmel/avrgcc/3.4.1.95/avrtoolchain/bin/../lib/gcc/avr32/4.4.3/../../../../avr32/lib/ucr3fp\libc.a(lib_a-mprec.o)
                0x80010990                __lo0bits
 .text.__mcmp   0x80010a1e       0x32 c:/program files (x86)/atmel/atmel studio 6.0/extensions/atmel/avrgcc/3.4.1.95/avrtoolchain/bin/../lib/gcc/avr32/4.4.3/../../../../avr32/lib/ucr3fp\libc.a(lib_a-mprec.o)
                0x80010a1e                __mcmp
 .text._Bfree   0x80010a50       0x34 c:/program files (x86)/atmel/atmel studio 6.0/extensions/atmel/avrgcc/3.4.1.95/avrtoolchain/bin/../lib/gcc/avr32/4.4.3/../../../../avr32/lib/ucr3fp\libc.a(lib_a-mprec.o)
                                 0x38 (size before relaxing)
                0x80010a50                _Bfree
 .text._Balloc  0x80010a84       0x70 c:/program files (x86)/atmel/atmel studio 6.0/extensions/atmel/avrgcc/3.4.1.95/avrtoolchain/bin/../lib/gcc/avr32/4.4.3/../../../../avr32/lib/ucr3fp\libc.a(lib_a-mprec.o)
                                 0x78 (size before relaxing)
                0x80010a84                _Balloc
 .text.__d2b    0x80010af4       0xa8 c:/program files (x86)/atmel/atmel studio 6.0/extensions/atmel/avrgcc/3.4.1.95/avrtoolchain/bin/../lib/gcc/avr32/4.4.3/../../../../avr32/lib/ucr3fp\libc.a(lib_a-mprec.o)
                                 0xbc (size before relaxing)
                0x80010af4                __d2b
 .text.__mdiff  0x80010b9c       0xd0 c:/program files (x86)/atmel/atmel studio 6.0/extensions/atmel/avrgcc/3.4.1.95/avrtoolchain/bin/../lib/gcc/avr32/4.4.3/../../../../avr32/lib/ucr3fp\libc.a(lib_a-mprec.o)
                                 0xd8 (size before relaxing)
                0x80010b9c                __mdiff
 .text.__lshift
                0x80010c6c       0x88 c:/program files (x86)/atmel/atmel studio 6.0/extensions/atmel/avrgcc/3.4.1.95/avrtoolchain/bin/../lib/gcc/avr32/4.4.3/../../../../avr32/lib/ucr3fp\libc.a(lib_a-mprec.o)
                                 0x94 (size before relaxing)
                0x80010c6c                __lshift
 .text.__multiply
                0x80010cf4      0x100 c:/program files (x86)/atmel/atmel studio 6.0/extensions/atmel/avrgcc/3.4.1.95/avrtoolchain/bin/../lib/gcc/avr32/4.4.3/../../../../avr32/lib/ucr3fp\libc.a(lib_a-mprec.o)
                                0x108 (size before relaxing)
                0x80010cf4                __multiply
 .text.__i2b    0x80010df4       0x10 c:/program files (x86)/atmel/atmel studio 6.0/extensions/atmel/avrgcc/3.4.1.95/avrtoolchain/bin/../lib/gcc/avr32/4.4.3/../../../../avr32/lib/ucr3fp\libc.a(lib_a-mprec.o)
                                 0x18 (size before relaxing)
                0x80010df4                __i2b
 .text.__multadd
                0x80010e04       0x7c c:/program files (x86)/atmel/atmel studio 6.0/extensions/atmel/avrgcc/3.4.1.95/avrtoolchain/bin/../lib/gcc/avr32/4.4.3/../../../../avr32/lib/ucr3fp\libc.a(lib_a-mprec.o)
                                 0x88 (size before relaxing)
                0x80010e04                __multadd
 .text.__pow5mult
                0x80010e80       0x90 c:/program files (x86)/atmel/atmel studio 6.0/extensions/atmel/avrgcc/3.4.1.95/avrtoolchain/bin/../lib/gcc/avr32/4.4.3/../../../../avr32/lib/ucr3fp\libc.a(lib_a-mprec.o)
                                 0xac (size before relaxing)
                0x80010e80                __pow5mult
 .text._realloc_r
                0x80010f10      0x2c4 c:/program files (x86)/atmel/atmel studio 6.0/extensions/atmel/avrgcc/3.4.1.95/avrtoolchain/bin/../lib/gcc/avr32/4.4.3/../../../../avr32/lib/ucr3fp\libc.a(lib_a-reallocr.o)
                                0x2e0 (size before relaxing)
                0x80010f10                _realloc_r
 .text._sbrk_r  0x800111d4       0x20 c:/program files (x86)/atmel/atmel studio 6.0/extensions/atmel/avrgcc/3.4.1.95/avrtoolchain/bin/../lib/gcc/avr32/4.4.3/../../../../avr32/lib/ucr3fp\libc.a(lib_a-sbrkr.o)
                                 0x28 (size before relaxing)
                0x800111d4                _sbrk_r
 .text.__isinfd
                0x800111f4       0x2a c:/program files (x86)/atmel/atmel studio 6.0/extensions/atmel/avrgcc/3.4.1.95/avrtoolchain/bin/../lib/gcc/avr32/4.4.3/../../../../avr32/lib/ucr3fp\libc.a(lib_a-s_isinfd.o)
                0x800111f4                __isinfd
 .text.__isnand
                0x8001121e       0x1c c:/program files (x86)/atmel/atmel studio 6.0/extensions/atmel/avrgcc/3.4.1.95/avrtoolchain/bin/../lib/gcc/avr32/4.4.3/../../../../avr32/lib/ucr3fp\libc.a(lib_a-s_isnand.o)
                0x8001121e                __isnand
 *fill*         0x8001123a        0x2 d703d703
 .text.__sclose
                0x8001123c        0x8 c:/program files (x86)/atmel/atmel studio 6.0/extensions/atmel/avrgcc/3.4.1.95/avrtoolchain/bin/../lib/gcc/avr32/4.4.3/../../../../avr32/lib/ucr3fp\libc.a(lib_a-stdio.o)
                                 0x10 (size before relaxing)
                0x8001123c                __sclose
 .text.__sseek  0x80011244       0x28 c:/program files (x86)/atmel/atmel studio 6.0/extensions/atmel/avrgcc/3.4.1.95/avrtoolchain/bin/../lib/gcc/avr32/4.4.3/../../../../avr32/lib/ucr3fp\libc.a(lib_a-stdio.o)
                                 0x2c (size before relaxing)
                0x80011244                __sseek
 .text.__swrite
                0x8001126c       0x2c c:/program files (x86)/atmel/atmel studio 6.0/extensions/atmel/avrgcc/3.4.1.95/avrtoolchain/bin/../lib/gcc/avr32/4.4.3/../../../../avr32/lib/ucr3fp\libc.a(lib_a-stdio.o)
                                 0x38 (size before relaxing)
                0x8001126c                __swrite
 .text.__sread  0x80011298       0x1c c:/program files (x86)/atmel/atmel studio 6.0/extensions/atmel/avrgcc/3.4.1.95/avrtoolchain/bin/../lib/gcc/avr32/4.4.3/../../../../avr32/lib/ucr3fp\libc.a(lib_a-stdio.o)
                                 0x24 (size before relaxing)
                0x80011298                __sread
 .text.strlen   0x800112b4       0x16 c:/program files (x86)/atmel/atmel studio 6.0/extensions/atmel/avrgcc/3.4.1.95/avrtoolchain/bin/../lib/gcc/avr32/4.4.3/../../../../avr32/lib/ucr3fp\libc.a(lib_a-strlen.o)
                0x800112b4                strlen
 *fill*         0x800112ca        0x2 d703d703
 .text._close   0x800112cc       0x18 c:/program files (x86)/atmel/atmel studio 6.0/extensions/atmel/avrgcc/3.4.1.95/avrtoolchain/bin/../lib/gcc/avr32/4.4.3/../../../../avr32/lib/ucr3fp\libc.a(lib_a-syscalls.o)
                0x800112cc                _close
 .text._lseek   0x800112e4       0x18 c:/program files (x86)/atmel/atmel studio 6.0/extensions/atmel/avrgcc/3.4.1.95/avrtoolchain/bin/../lib/gcc/avr32/4.4.3/../../../../avr32/lib/ucr3fp\libc.a(lib_a-syscalls.o)
                0x800112e4                _lseek
 .text._read    0x800112fc       0x18 c:/program files (x86)/atmel/atmel studio 6.0/extensions/atmel/avrgcc/3.4.1.95/avrtoolchain/bin/../lib/gcc/avr32/4.4.3/../../../../avr32/lib/ucr3fp\libc.a(lib_a-syscalls.o)
                0x800112fc                _read
 .text._write   0x80011314       0x18 c:/program files (x86)/atmel/atmel studio 6.0/extensions/atmel/avrgcc/3.4.1.95/avrtoolchain/bin/../lib/gcc/avr32/4.4.3/../../../../avr32/lib/ucr3fp\libc.a(lib_a-syscalls.o)
                0x80011314                _write
 .text.isatty   0x8001132c       0x18 c:/program files (x86)/atmel/atmel studio 6.0/extensions/atmel/avrgcc/3.4.1.95/avrtoolchain/bin/../lib/gcc/avr32/4.4.3/../../../../avr32/lib/ucr3fp\libc.a(lib_a-syscalls.o)
                0x8001132c                isatty
 .text._fstat_host
                0x80011344       0x18 c:/program files (x86)/atmel/atmel studio 6.0/extensions/atmel/avrgcc/3.4.1.95/avrtoolchain/bin/../lib/gcc/avr32/4.4.3/../../../../avr32/lib/ucr3fp\libc.a(lib_a-syscalls.o)
                0x80011344                _fstat_host
 .text._fstat   0x8001135c       0x4c c:/program files (x86)/atmel/atmel studio 6.0/extensions/atmel/avrgcc/3.4.1.95/avrtoolchain/bin/../lib/gcc/avr32/4.4.3/../../../../avr32/lib/ucr3fp\libc.a(lib_a-syscalls.o)
                                 0x50 (size before relaxing)
                0x8001135c                _fstat
 .text._sbrk    0x800113a8       0x3c c:/program files (x86)/atmel/atmel studio 6.0/extensions/atmel/avrgcc/3.4.1.95/avrtoolchain/bin/../lib/gcc/avr32/4.4.3/../../../../avr32/lib/ucr3fp\libc.a(lib_a-syscalls.o)
                                 0x40 (size before relaxing)
                0x800113a8                _sbrk
 .text._write_r
                0x800113e4       0x28 c:/program files (x86)/atmel/atmel studio 6.0/extensions/atmel/avrgcc/3.4.1.95/avrtoolchain/bin/../lib/gcc/avr32/4.4.3/../../../../avr32/lib/ucr3fp\libc.a(lib_a-writer.o)
                                 0x2c (size before relaxing)
                0x800113e4                _write_r
 .text._calloc_r
                0x8001140c       0x58 c:/program files (x86)/atmel/atmel studio 6.0/extensions/atmel/avrgcc/3.4.1.95/avrtoolchain/bin/../lib/gcc/avr32/4.4.3/../../../../avr32/lib/ucr3fp\libc.a(lib_a-callocr.o)
                                 0x60 (size before relaxing)
                0x8001140c                _calloc_r
 .text._close_r
                0x80011464       0x20 c:/program files (x86)/atmel/atmel studio 6.0/extensions/atmel/avrgcc/3.4.1.95/avrtoolchain/bin/../lib/gcc/avr32/4.4.3/../../../../avr32/lib/ucr3fp\libc.a(lib_a-closer.o)
                                 0x28 (size before relaxing)
                0x80011464                _close_r
 .text.__errno  0x80011484        0xc c:/program files (x86)/atmel/atmel studio 6.0/extensions/atmel/avrgcc/3.4.1.95/avrtoolchain/bin/../lib/gcc/avr32/4.4.3/../../../../avr32/lib/ucr3fp\libc.a(lib_a-errno.o)
                0x80011484                __errno
 .text._fclose_r
                0x80011490       0xbc c:/program files (x86)/atmel/atmel studio 6.0/extensions/atmel/avrgcc/3.4.1.95/avrtoolchain/bin/../lib/gcc/avr32/4.4.3/../../../../avr32/lib/ucr3fp\libc.a(lib_a-fclose.o)
                                 0xd0 (size before relaxing)
                0x80011490                _fclose_r
 .text.fclose   0x8001154c       0x10 c:/program files (x86)/atmel/atmel studio 6.0/extensions/atmel/avrgcc/3.4.1.95/avrtoolchain/bin/../lib/gcc/avr32/4.4.3/../../../../avr32/lib/ucr3fp\libc.a(lib_a-fclose.o)
                                 0x18 (size before relaxing)
                0x8001154c                fclose
 .text._fstat_r
                0x8001155c       0x24 c:/program files (x86)/atmel/atmel studio 6.0/extensions/atmel/avrgcc/3.4.1.95/avrtoolchain/bin/../lib/gcc/avr32/4.4.3/../../../../avr32/lib/ucr3fp\libc.a(lib_a-fstatr.o)
                                 0x2c (size before relaxing)
                0x8001155c                _fstat_r
 .text._lseek_r
                0x80011580       0x28 c:/program files (x86)/atmel/atmel studio 6.0/extensions/atmel/avrgcc/3.4.1.95/avrtoolchain/bin/../lib/gcc/avr32/4.4.3/../../../../avr32/lib/ucr3fp\libc.a(lib_a-lseekr.o)
                                 0x2c (size before relaxing)
                0x80011580                _lseek_r
 .text._read_r  0x800115a8       0x28 c:/program files (x86)/atmel/atmel studio 6.0/extensions/atmel/avrgcc/3.4.1.95/avrtoolchain/bin/../lib/gcc/avr32/4.4.3/../../../../avr32/lib/ucr3fp\libc.a(lib_a-readr.o)
                                 0x2c (size before relaxing)
                0x800115a8                _read_r
 .text          0x800115d0      0x1d4 c:/program files (x86)/atmel/atmel studio 6.0/extensions/atmel/avrgcc/3.4.1.95/avrtoolchain/bin/../lib/gcc/avr32/4.4.3/ucr3fp\libgcc.a(_avr32_f64_mul.o)
                0x800115d0                __avr32_f64_mul
 .text          0x800117a4      0x2a8 c:/program files (x86)/atmel/atmel studio 6.0/extensions/atmel/avrgcc/3.4.1.95/avrtoolchain/bin/../lib/gcc/avr32/4.4.3/ucr3fp\libgcc.a(_avr32_f64_addsub.o)
                0x800117a8                __avr32_f64_sub
                0x80011944                __avr32_f64_add
 .text          0x80011a4c       0x2a c:/program files (x86)/atmel/atmel studio 6.0/extensions/atmel/avrgcc/3.4.1.95/avrtoolchain/bin/../lib/gcc/avr32/4.4.3/ucr3fp\libgcc.a(_avr32_f64_to_s32.o)
                0x80011a4c                __avr32_f64_to_u32
                0x80011a50                __avr32_f64_to_s32
 .text          0x80011a76       0x26 c:/program files (x86)/atmel/atmel studio 6.0/extensions/atmel/avrgcc/3.4.1.95/avrtoolchain/bin/../lib/gcc/avr32/4.4.3/ucr3fp\libgcc.a(_avr32_f64_cmp_eq.o)
                0x80011a76                __avr32_f64_cmp_eq
 .text          0x80011a9c       0x68 c:/program files (x86)/atmel/atmel studio 6.0/extensions/atmel/avrgcc/3.4.1.95/avrtoolchain/bin/../lib/gcc/avr32/4.4.3/ucr3fp\libgcc.a(_avr32_f64_cmp_lt.o)
                0x80011a9c                __avr32_f64_cmp_lt
 .text          0x80011b04      0x318 c:/program files (x86)/atmel/atmel studio 6.0/extensions/atmel/avrgcc/3.4.1.95/avrtoolchain/bin/../lib/gcc/avr32/4.4.3/ucr3fp\libgcc.a(_avr32_f64_div.o)
                0x80011b04                __avr32_f64_div
 .text          0x80011e1c      0x292 c:/program files (x86)/atmel/atmel studio 6.0/extensions/atmel/avrgcc/3.4.1.95/avrtoolchain/bin/../lib/gcc/avr32/4.4.3/ucr3fp\libgcc.a(_udivdi3.o)
                0x80011e1c                __avr32_udiv64
                0x80011e1c                __udivdi3
 .text          0x800120ae      0x272 c:/program files (x86)/atmel/atmel studio 6.0/extensions/atmel/avrgcc/3.4.1.95/avrtoolchain/bin/../lib/gcc/avr32/4.4.3/ucr3fp\libgcc.a(_umoddi3.o)
                0x800120ae                __avr32_umod64
                0x800120ae                __umoddi3
 *(.text.*personality*)
 *(.gnu.warning)

.exception      0x80012400      0x200
 .exception     0x80012400      0x200 src/asf/avr32/drivers/intc/exception.o
                0x80012400                _evba
                0x80012504                _int0
                0x80012512                _int1
                0x80012520                _int2
                0x8001252e                _int3

.fini
 *(.fini)
                0x80012600                PROVIDE (__etext, .)
                0x80012600                PROVIDE (_etext, .)
                0x80012600                PROVIDE (etext, .)

.rodata         0x80012600     0x2190
 *(.rodata .rodata.* .gnu.linkonce.r.*)
 .rodata.SDRAMC_EBI_GPIO_MAP.14470
                0x80012600      0x128 src/asf/avr32/drivers/ebi/sdramc/sdramc.o
 .rodata.gpio_enable_module_pin
                0x80012728       0x20 src/asf/avr32/drivers/gpio/gpio.o
 .rodata._int_handler_table
                0x80012748      0x178 src/asf/avr32/drivers/intc/intc.o
 .rodata.const_FSI_LeadSig
                0x800128c0        0x4 src/asf/avr32/services/fs/fat/fat_unusual.o
                0x800128c0                const_FSI_LeadSig
 .rodata.fs_s_tab_incorrect_char
                0x800128c4        0x8 src/asf/avr32/services/fs/fat/fat_unusual.o
                0x800128c4                fs_s_tab_incorrect_char
 .rodata.fs_s_execption_char
                0x800128cc        0x8 src/asf/avr32/services/fs/fat/fat_unusual.o
                0x800128cc                fs_s_execption_char
 .rodata.const_FSI_StrucSig
                0x800128d4        0x4 src/asf/avr32/services/fs/fat/fat_unusual.o
                0x800128d4                const_FSI_StrucSig
 .rodata.DBG_USART_GPIO_MAP.14756
                0x800128d8       0x10 src/asf/avr32/utils/debug/print_funcs.o
 .rodata.HEX_DIGITS
                0x800128e8       0x10 src/asf/avr32/utils/debug/print_funcs.o
 .rodata.str1.4
                0x800128f8       0x9c src/asf/common/boards/user_board/init.o
 .rodata.lun_desc
                0x80012994       0x1c src/asf/common/services/storage/ctrl_access/ctrl_access.o
 .rodata.str1.4
                0x800129b0       0x17 src/asf/common/services/storage/ctrl_access/ctrl_access.o
                                 0x18 (size before relaxing)
 *fill*         0x800129c7        0x1 00
 .rodata.BMPHeader
                0x800129c8       0x10 src/CustomDevices/Bitmap.o
                0x800129c8                BMPHeader
 .rodata.DIBHead
                0x800129d8       0x7c src/CustomDevices/Bitmap.o
                0x800129d8                DIBHead
 .rodata.C.62.18294
                0x80012a54       0x14 src/CustomDevices/MotorDriver.o
 .rodata.ACIFA_GPIO_MAP.18300
                0x80012a68       0x20 src/CustomDevices/MotorDriver.o
 .rodata.str1.4
                0x80012a88       0x52 src/CustomDevices/MotorDriver.o
                                 0x54 (size before relaxing)
 *fill*         0x80012ada        0x2 00
 .rodata.str1.4
                0x80012adc       0x75 src/CustomDevices/OV7670.o
                                 0x78 (size before relaxing)
 .rodata.default_settings
                0x80012b51      0x14e src/CustomDevices/OV7670_Setup.o
                0x80012b51                default_settings
 *fill*         0x80012c9f        0x1 00
 .rodata.C.57.18281
                0x80012ca0       0x10 src/CustomDevices/SD_Card.o
 .rodata.SD_MMC_SPI_GPIO_MAP.18279
                0x80012cb0       0x20 src/CustomDevices/SD_Card.o
 .rodata.str1.4
                0x80012cd0      0x184 src/CustomDevices/SD_Card.o
                                0x198 (size before relaxing)
 .rodata.C.55.17628
                0x80012e54       0x10 src/CustomDevices/TWI.o
 .rodata.C.54.17627
                0x80012e64       0x10 src/CustomDevices/TWI.o
 .rodata.Debug_Mode
                0x80012e74      0x118 src/main.o
 .rodata.DefaultCommands
                0x80012f8c       0x68 src/main.o
                0x80012f8c                DefaultCommands
 .rodata.str1.4
                0x80012ff4     0x10fd src/main.o
                               0x1114 (size before relaxing)
 *fill*         0x800140f1        0x3 00
 .rodata.complex_abs_end_kernel_opti.15288
                0x800140f4       0x10 ../src/asf/avr32/utils/libs/dsplib/at32ucr3fp/gcc\libdsp-at32ucr3fp-dspspeed_opt.a(vect_dsp16_complex_abs.o)
 .rodata._ctype_
                0x80014104      0x104 c:/program files (x86)/atmel/atmel studio 6.0/extensions/atmel/avrgcc/3.4.1.95/avrtoolchain/bin/../lib/gcc/avr32/4.4.3/../../../../avr32/lib/ucr3fp\libc.a(lib_a-ctype_.o)
                0x80014104                _ctype_
 .rodata.str1.4
                0x80014208        0x2 c:/program files (x86)/atmel/atmel studio 6.0/extensions/atmel/avrgcc/3.4.1.95/avrtoolchain/bin/../lib/gcc/avr32/4.4.3/../../../../avr32/lib/ucr3fp\libc.a(lib_a-impure.o)
                                  0x4 (size before relaxing)
 *fill*         0x8001420a        0x2 00
 .rodata._global_impure_ptr
                0x8001420c        0x4 c:/program files (x86)/atmel/atmel studio 6.0/extensions/atmel/avrgcc/3.4.1.95/avrtoolchain/bin/../lib/gcc/avr32/4.4.3/../../../../avr32/lib/ucr3fp\libc.a(lib_a-impure.o)
                0x8001420c                _global_impure_ptr
 .rodata.get_arg
                0x80014210       0x3c c:/program files (x86)/atmel/atmel studio 6.0/extensions/atmel/avrgcc/3.4.1.95/avrtoolchain/bin/../lib/gcc/avr32/4.4.3/../../../../avr32/lib/ucr3fp\libc.a(lib_a-vfprintf.o)
 .rodata._vfprintf_r
                0x8001424c      0x164 c:/program files (x86)/atmel/atmel studio 6.0/extensions/atmel/avrgcc/3.4.1.95/avrtoolchain/bin/../lib/gcc/avr32/4.4.3/../../../../avr32/lib/ucr3fp\libc.a(lib_a-vfprintf.o)
 .rodata.state_table
                0x800143b0       0x6c c:/program files (x86)/atmel/atmel studio 6.0/extensions/atmel/avrgcc/3.4.1.95/avrtoolchain/bin/../lib/gcc/avr32/4.4.3/../../../../avr32/lib/ucr3fp\libc.a(lib_a-vfprintf.o)
 .rodata.action_table
                0x8001441c       0x6c c:/program files (x86)/atmel/atmel studio 6.0/extensions/atmel/avrgcc/3.4.1.95/avrtoolchain/bin/../lib/gcc/avr32/4.4.3/../../../../avr32/lib/ucr3fp\libc.a(lib_a-vfprintf.o)
 .rodata.str1.4
                0x80014488       0x3a c:/program files (x86)/atmel/atmel studio 6.0/extensions/atmel/avrgcc/3.4.1.95/avrtoolchain/bin/../lib/gcc/avr32/4.4.3/../../../../avr32/lib/ucr3fp\libc.a(lib_a-vfprintf.o)
                                 0x3c (size before relaxing)
 *fill*         0x800144c2        0x2 00
 .rodata.blanks.3430
                0x800144c4       0x10 c:/program files (x86)/atmel/atmel studio 6.0/extensions/atmel/avrgcc/3.4.1.95/avrtoolchain/bin/../lib/gcc/avr32/4.4.3/../../../../avr32/lib/ucr3fp\libc.a(lib_a-vfprintf.o)
 .rodata.zeroes.3431
                0x800144d4       0x10 c:/program files (x86)/atmel/atmel studio 6.0/extensions/atmel/avrgcc/3.4.1.95/avrtoolchain/bin/../lib/gcc/avr32/4.4.3/../../../../avr32/lib/ucr3fp\libc.a(lib_a-vfprintf.o)
 .rodata.chclass
                0x800144e4      0x100 c:/program files (x86)/atmel/atmel studio 6.0/extensions/atmel/avrgcc/3.4.1.95/avrtoolchain/bin/../lib/gcc/avr32/4.4.3/../../../../avr32/lib/ucr3fp\libc.a(lib_a-vfprintf.o)
 .rodata.str1.4
                0x800145e4       0x10 c:/program files (x86)/atmel/atmel studio 6.0/extensions/atmel/avrgcc/3.4.1.95/avrtoolchain/bin/../lib/gcc/avr32/4.4.3/../../../../avr32/lib/ucr3fp\libc.a(lib_a-dtoa.o)
                                 0x14 (size before relaxing)
 .rodata.__sf_fake_stdin
                0x800145f4       0x20 c:/program files (x86)/atmel/atmel studio 6.0/extensions/atmel/avrgcc/3.4.1.95/avrtoolchain/bin/../lib/gcc/avr32/4.4.3/../../../../avr32/lib/ucr3fp\libc.a(lib_a-findfp.o)
                0x800145f4                __sf_fake_stdin
 .rodata.__sf_fake_stdout
                0x80014614       0x20 c:/program files (x86)/atmel/atmel studio 6.0/extensions/atmel/avrgcc/3.4.1.95/avrtoolchain/bin/../lib/gcc/avr32/4.4.3/../../../../avr32/lib/ucr3fp\libc.a(lib_a-findfp.o)
                0x80014614                __sf_fake_stdout
 .rodata.__sf_fake_stderr
                0x80014634       0x20 c:/program files (x86)/atmel/atmel studio 6.0/extensions/atmel/avrgcc/3.4.1.95/avrtoolchain/bin/../lib/gcc/avr32/4.4.3/../../../../avr32/lib/ucr3fp\libc.a(lib_a-findfp.o)
                0x80014634                __sf_fake_stderr
 .rodata.lconv  0x80014654       0x30 c:/program files (x86)/atmel/atmel studio 6.0/extensions/atmel/avrgcc/3.4.1.95/avrtoolchain/bin/../lib/gcc/avr32/4.4.3/../../../../avr32/lib/ucr3fp\libc.a(lib_a-locale.o)
 .rodata.str1.4
                0x80014684       0x10 c:/program files (x86)/atmel/atmel studio 6.0/extensions/atmel/avrgcc/3.4.1.95/avrtoolchain/bin/../lib/gcc/avr32/4.4.3/../../../../avr32/lib/ucr3fp\libc.a(lib_a-locale.o)
                                 0x18 (size before relaxing)
 .rodata.p05.2471
                0x80014694        0xc c:/program files (x86)/atmel/atmel studio 6.0/extensions/atmel/avrgcc/3.4.1.95/avrtoolchain/bin/../lib/gcc/avr32/4.4.3/../../../../avr32/lib/ucr3fp\libc.a(lib_a-mprec.o)
 .rodata.__mprec_tens
                0x800146a0       0xc8 c:/program files (x86)/atmel/atmel studio 6.0/extensions/atmel/avrgcc/3.4.1.95/avrtoolchain/bin/../lib/gcc/avr32/4.4.3/../../../../avr32/lib/ucr3fp\libc.a(lib_a-mprec.o)
                0x800146a0                __mprec_tens
 .rodata.__mprec_bigtens
                0x80014768       0x28 c:/program files (x86)/atmel/atmel studio 6.0/extensions/atmel/avrgcc/3.4.1.95/avrtoolchain/bin/../lib/gcc/avr32/4.4.3/../../../../avr32/lib/ucr3fp\libc.a(lib_a-mprec.o)
                0x80014768                __mprec_bigtens

.rodata1
 *(.rodata1)

.eh_frame_hdr
 *(.eh_frame_hdr)

.eh_frame
 *(.eh_frame)

.gcc_except_table
 *(.gcc_except_table)
 *(.gcc_except_table.*)

.dalign         0x80014790        0x0
                0x80014790                . = ALIGN (0x8)
                0x80014790                PROVIDE (_data_lma, .)
                0x00000004                PROVIDE (_data, ORIGIN (CPUSRAM))
                0x00000004                . = ORIGIN (CPUSRAM)

.eh_frame
 *(.eh_frame)

.gcc_except_table
 *(.gcc_except_table)
 *(.gcc_except_table.*)

.tdata
 *(.tdata .tdata.* .gnu.linkonce.td.*)

.tbss
 *(.tbss .tbss.* .gnu.linkonce.tb.*)
 *(.tcommon)
                0x00000004                PROVIDE (__preinit_array_start, ALIGN (0x4))

.preinit_array
 *(.preinit_array)
                0x00000004                PROVIDE (__preinit_array_end, .)
                0x00000004                PROVIDE (__init_array_start, .)

.init_array
 *(.init_array)
                0x00000004                PROVIDE (__init_array_end, .)
                0x00000004                PROVIDE (__fini_array_start, .)

.fini_array
 *(.fini_array)
                0x00000004                PROVIDE (__fini_array_end, .)

.ctors
 *crtbegin*.o(.ctors)
 *(EXCLUDE_FILE(*crtend*.o) .ctors)
 *(SORT(.ctors.*))
 *(.ctors)

.dtors
 *crtbegin*.o(.dtors)
 *(EXCLUDE_FILE(*crtend*.o) .dtors)
 *(SORT(.dtors.*))
 *(.dtors)

.jcr
 *(.jcr)

.data.rel.ro
 *(.data.rel.ro.local)
 *(.data.rel.ro*)

.dynamic
 *(.dynamic)

.got
 *(.got.plt)
 *(.got)

.data           0x00000004     0x1118 load address 0x80014790
 *(.data .data.* .gnu.linkonce.d.*)
 .data.sd_mmc_spi_presence_status
                0x00000004        0x1 src/asf/avr32/components/memory/sd_mmc/sd_mmc_spi/sd_mmc_spi_mem.o
                0x00000004                sd_mmc_spi_presence_status
 *fill*         0x00000005        0x3 00
 .data.flashc_wait_until_ready
                0x00000008        0x4 src/asf/avr32/drivers/flashc/flashc.o
                0x00000008                flashc_wait_until_ready
 .data.AutoCommands
                0x0000000c        0x4 src/main.o
                0x0000000c                AutoCommands
 .data.dsp16_twiddle_factors2
                0x00000010      0x800 ../src/asf/avr32/utils/libs/dsplib/at32ucr3fp/gcc\libdsp-at32ucr3fp-dspspeed_opt.a(trans_dsp16_twiddle_factors.o)
                0x00000010                dsp16_twiddle_factors2
 .data.dsp16_twiddle_factors
                0x00000810      0x404 ../src/asf/avr32/utils/libs/dsplib/at32ucr3fp/gcc\libdsp-at32ucr3fp-dspspeed_opt.a(trans_dsp16_twiddle_factors.o)
                0x00000810                dsp16_twiddle_factors
 .data.__ctype_ptr
                0x00000c14        0x4 c:/program files (x86)/atmel/atmel studio 6.0/extensions/atmel/avrgcc/3.4.1.95/avrtoolchain/bin/../lib/gcc/avr32/4.4.3/../../../../avr32/lib/ucr3fp\libc.a(lib_a-ctype_.o)
                0x00000c14                __ctype_ptr
 .data.impure_data
                0x00000c18       0xf0 c:/program files (x86)/atmel/atmel studio 6.0/extensions/atmel/avrgcc/3.4.1.95/avrtoolchain/bin/../lib/gcc/avr32/4.4.3/../../../../avr32/lib/ucr3fp\libc.a(lib_a-impure.o)
 .data._impure_ptr
                0x00000d08        0x4 c:/program files (x86)/atmel/atmel studio 6.0/extensions/atmel/avrgcc/3.4.1.95/avrtoolchain/bin/../lib/gcc/avr32/4.4.3/../../../../avr32/lib/ucr3fp\libc.a(lib_a-impure.o)
                0x00000d08                _impure_ptr
 .data.__malloc_av_
                0x00000d0c      0x408 c:/program files (x86)/atmel/atmel studio 6.0/extensions/atmel/avrgcc/3.4.1.95/avrtoolchain/bin/../lib/gcc/avr32/4.4.3/../../../../avr32/lib/ucr3fp\libc.a(lib_a-mallocr.o)
                0x00000d0c                __malloc_av_
 .data.__malloc_trim_threshold
                0x00001114        0x4 c:/program files (x86)/atmel/atmel studio 6.0/extensions/atmel/avrgcc/3.4.1.95/avrtoolchain/bin/../lib/gcc/avr32/4.4.3/../../../../avr32/lib/ucr3fp\libc.a(lib_a-mallocr.o)
                0x00001114                __malloc_trim_threshold
 .data.__malloc_sbrk_base
                0x00001118        0x4 c:/program files (x86)/atmel/atmel studio 6.0/extensions/atmel/avrgcc/3.4.1.95/avrtoolchain/bin/../lib/gcc/avr32/4.4.3/../../../../avr32/lib/ucr3fp\libc.a(lib_a-mallocr.o)
                0x00001118                __malloc_sbrk_base
 *(.gnu.linkonce.d.*personality*)

.data1
 *(.data1)

.balign         0x0000111c        0x4 load address 0x800158a8
                0x00001120                . = ALIGN (0x8)
 *fill*         0x0000111c        0x4 00
                0x00001120                _edata = .
                0x00001120                _edata = .
                0x00001120                PROVIDE (edata, .)
                0x00001120                __bss_start = .

.bss            0x00001120      0x9e8 load address 0x800158a8
 *(.dynbss)
 *(.bss .bss.* .gnu.linkonce.b.*)
 .bss.gl_ptr_mem
                0x00001120        0x4 src/asf/avr32/components/memory/sd_mmc/sd_mmc_spi/sd_mmc_spi.o
 .bss.sd_mmc_opt
                0x00001124       0x10 src/asf/avr32/components/memory/sd_mmc/sd_mmc_spi/sd_mmc_spi.o
 .bss.sd_mmc_pba_hz
                0x00001134        0x4 src/asf/avr32/components/memory/sd_mmc/sd_mmc_spi/sd_mmc_spi.o
 .bss.sd_mmc_spi_init_done
                0x00001138        0x1 src/asf/avr32/components/memory/sd_mmc/sd_mmc_spi/sd_mmc_spi.o
                0x00001138                sd_mmc_spi_init_done
 *fill*         0x00001139        0x3 00
 .bss.flashc_error_status
                0x0000113c        0x4 src/asf/avr32/drivers/flashc/flashc.o
 .bss._int_line_handler_table_0
                0x00001140        0x4 src/asf/avr32/drivers/intc/intc.o
 .bss._int_line_handler_table_1
                0x00001144        0x8 src/asf/avr32/drivers/intc/intc.o
 .bss._int_line_handler_table_2
                0x0000114c        0x4 src/asf/avr32/drivers/intc/intc.o
 .bss._int_line_handler_table_3
                0x00001150       0x10 src/asf/avr32/drivers/intc/intc.o
 .bss._int_line_handler_table_4
                0x00001160       0x10 src/asf/avr32/drivers/intc/intc.o
 .bss._int_line_handler_table_5
                0x00001170       0x10 src/asf/avr32/drivers/intc/intc.o
 .bss._int_line_handler_table_6
                0x00001180       0x10 src/asf/avr32/drivers/intc/intc.o
 .bss._int_line_handler_table_7
                0x00001190        0x4 src/asf/avr32/drivers/intc/intc.o
 .bss._int_line_handler_table_8
                0x00001194        0x4 src/asf/avr32/drivers/intc/intc.o
 .bss._int_line_handler_table_9
                0x00001198       0x28 src/asf/avr32/drivers/intc/intc.o
 .bss._int_line_handler_table_10
                0x000011c0        0x4 src/asf/avr32/drivers/intc/intc.o
 .bss._int_line_handler_table_11
                0x000011c4        0x4 src/asf/avr32/drivers/intc/intc.o
 .bss._int_line_handler_table_12
                0x000011c8        0x4 src/asf/avr32/drivers/intc/intc.o
 .bss._int_line_handler_table_13
                0x000011cc        0x4 src/asf/avr32/drivers/intc/intc.o
 .bss._int_line_handler_table_14
                0x000011d0       0x14 src/asf/avr32/drivers/intc/intc.o
 .bss._int_line_handler_table_15
                0x000011e4       0x10 src/asf/avr32/drivers/intc/intc.o
 .bss._int_line_handler_table_16
                0x000011f4       0x10 src/asf/avr32/drivers/intc/intc.o
 .bss._int_line_handler_table_17
                0x00001204        0x4 src/asf/avr32/drivers/intc/intc.o
 .bss._int_line_handler_table_18
                0x00001208       0x40 src/asf/avr32/drivers/intc/intc.o
 .bss._int_line_handler_table_19
                0x00001248        0x4 src/asf/avr32/drivers/intc/intc.o
 .bss._int_line_handler_table_33
                0x0000124c        0xc src/asf/avr32/drivers/intc/intc.o
 .bss._int_line_handler_table_34
                0x00001258        0xc src/asf/avr32/drivers/intc/intc.o
 .bss._int_line_handler_table_35
                0x00001264        0x8 src/asf/avr32/drivers/intc/intc.o
 .bss._int_line_handler_table_36
                0x0000126c       0x18 src/asf/avr32/drivers/intc/intc.o
 .bss._int_line_handler_table_37
                0x00001284        0x4 src/asf/avr32/drivers/intc/intc.o
 .bss._int_line_handler_table_38
                0x00001288        0x4 src/asf/avr32/drivers/intc/intc.o
 .bss._int_line_handler_table_39
                0x0000128c       0x18 src/asf/avr32/drivers/intc/intc.o
 .bss._int_line_handler_table_40
                0x000012a4       0x18 src/asf/avr32/drivers/intc/intc.o
 .bss._int_line_handler_table_29
                0x000012bc        0x4 src/asf/avr32/drivers/intc/intc.o
 .bss._int_line_handler_table_30
                0x000012c0        0x4 src/asf/avr32/drivers/intc/intc.o
 .bss._int_line_handler_table_31
                0x000012c4        0x4 src/asf/avr32/drivers/intc/intc.o
 .bss._int_line_handler_table_41
                0x000012c8        0x4 src/asf/avr32/drivers/intc/intc.o
 .bss._int_line_handler_table_32
                0x000012cc        0x4 src/asf/avr32/drivers/intc/intc.o
 .bss._int_line_handler_table_45
                0x000012d0        0x4 src/asf/avr32/drivers/intc/intc.o
 .bss._int_line_handler_table_20
                0x000012d4        0x4 src/asf/avr32/drivers/intc/intc.o
 .bss._int_line_handler_table_21
                0x000012d8        0x4 src/asf/avr32/drivers/intc/intc.o
 .bss._int_line_handler_table_22
                0x000012dc        0x4 src/asf/avr32/drivers/intc/intc.o
 .bss._int_line_handler_table_23
                0x000012e0        0x4 src/asf/avr32/drivers/intc/intc.o
 .bss._int_line_handler_table_24
                0x000012e4        0x4 src/asf/avr32/drivers/intc/intc.o
 .bss._int_line_handler_table_25
                0x000012e8        0x4 src/asf/avr32/drivers/intc/intc.o
 .bss._int_line_handler_table_26
                0x000012ec        0x4 src/asf/avr32/drivers/intc/intc.o
 .bss._int_line_handler_table_27
                0x000012f0        0x4 src/asf/avr32/drivers/intc/intc.o
 .bss._int_line_handler_table_28
                0x000012f4        0x4 src/asf/avr32/drivers/intc/intc.o
 .bss._int_line_handler_table_42
                0x000012f8        0x4 src/asf/avr32/drivers/intc/intc.o
 .bss._int_line_handler_table_43
                0x000012fc        0x4 src/asf/avr32/drivers/intc/intc.o
 .bss._int_line_handler_table_44
                0x00001300        0x4 src/asf/avr32/drivers/intc/intc.o
 .bss._int_line_handler_table_46
                0x00001304        0x4 src/asf/avr32/drivers/intc/intc.o
 .bss.twim_inst
                0x00001308        0x4 src/asf/avr32/drivers/twim/twim.o
 .bss.twim_rx_data
                0x0000130c        0x4 src/asf/avr32/drivers/twim/twim.o
 .bss.twim_rx_nb_bytes
                0x00001310        0x4 src/asf/avr32/drivers/twim/twim.o
 .bss.transfer_status
                0x00001314        0x4 src/asf/avr32/drivers/twim/twim.o
 .bss.twim_tx_data
                0x00001318        0x4 src/asf/avr32/drivers/twim/twim.o
 .bss.twim_it_mask
                0x0000131c        0x4 src/asf/avr32/drivers/twim/twim.o
 .bss.twim_next
                0x00001320        0x1 src/asf/avr32/drivers/twim/twim.o
 *fill*         0x00001321        0x3 00
 .bss.twim_package
                0x00001324        0x4 src/asf/avr32/drivers/twim/twim.o
 .bss.twim_tx_nb_bytes
                0x00001328        0x4 src/asf/avr32/drivers/twim/twim.o
 .bss._gm_      0x0000132c      0x1c8 src/asf/thirdparty/dlmalloc/dlmalloc.o
 .bss.mparams   0x000014f4       0x18 src/asf/thirdparty/dlmalloc/dlmalloc.o
 .bss.cur_heap_pos
                0x0000150c        0x4 src/asf/thirdparty/dlmalloc/dlsbrk.o
 .bss.__malloc_max_total_mem
                0x00001510        0x4 c:/program files (x86)/atmel/atmel studio 6.0/extensions/atmel/avrgcc/3.4.1.95/avrtoolchain/bin/../lib/gcc/avr32/4.4.3/../../../../avr32/lib/ucr3fp\libc.a(lib_a-mallocr.o)
                0x00001510                __malloc_max_total_mem
 .bss.__malloc_max_sbrked_mem
                0x00001514        0x4 c:/program files (x86)/atmel/atmel studio 6.0/extensions/atmel/avrgcc/3.4.1.95/avrtoolchain/bin/../lib/gcc/avr32/4.4.3/../../../../avr32/lib/ucr3fp\libc.a(lib_a-mallocr.o)
                0x00001514                __malloc_max_sbrked_mem
 .bss.__malloc_top_pad
                0x00001518        0x4 c:/program files (x86)/atmel/atmel studio 6.0/extensions/atmel/avrgcc/3.4.1.95/avrtoolchain/bin/../lib/gcc/avr32/4.4.3/../../../../avr32/lib/ucr3fp\libc.a(lib_a-mallocr.o)
                0x00001518                __malloc_top_pad
 .bss.__malloc_current_mallinfo
                0x0000151c       0x28 c:/program files (x86)/atmel/atmel studio 6.0/extensions/atmel/avrgcc/3.4.1.95/avrtoolchain/bin/../lib/gcc/avr32/4.4.3/../../../../avr32/lib/ucr3fp\libc.a(lib_a-mallocr.o)
                0x0000151c                __malloc_current_mallinfo
 .bss.cur_heap_pos.1869
                0x00001544        0x4 c:/program files (x86)/atmel/atmel studio 6.0/extensions/atmel/avrgcc/3.4.1.95/avrtoolchain/bin/../lib/gcc/avr32/4.4.3/../../../../avr32/lib/ucr3fp\libc.a(lib_a-syscalls.o)
 *(COMMON)
 COMMON         0x00001548      0x229 src/asf/avr32/components/memory/sd_mmc/sd_mmc_spi/sd_mmc_spi.o
                0x00001548                data_mem
                0x0000174c                capacity
                0x00001754                capacity_mult
                0x00001756                erase_group_size
                0x00001758                sd_mmc_spi_last_block_address
                0x0000175c                r2
                0x0000175e                card_type
                0x00001760                csd
                0x00001770                r1
 *fill*         0x00001771        0x3 00
 COMMON         0x00001774      0x2f4 src/asf/avr32/services/fs/fat/fat.o
                0x00001774                fs_gu32_addrsector
                0x00001778                fs_g_nav_entry
                0x00001788                fs_g_u16_pos_fat
                0x0000178a                g_b_no_check_disk
                0x0000178c                fs_g_cache_clusterlist
                0x000017b4                fs_g_u32_last_mod_fat
                0x000017b8                fs_g_sector
                0x000019b8                fs_g_nav
                0x000019ec                fs_g_u32_first_mod_fat
                0x000019f0                fs_g_navext_entry
                0x00001a00                fs_g_navext_fast
                0x00001a04                fs_g_nav_fast
                0x00001a08                fs_g_status
                0x00001a09                g_b_string_length
                0x00001a0a                fs_g_u8_current_cache
                0x00001a0c                fs_g_navext
                0x00001a40                fs_g_sectorcache
                0x00001a54                g_b_unicode
                0x00001a58                fs_g_cluster
                0x00001a60                fs_g_seg
 COMMON         0x00001a68       0x19 src/asf/avr32/services/fs/fat/navigation.o
                0x00001a68                g_segment_dest
                0x00001a74                g_segment_src
                0x00001a80                fs_g_u8_nav_selected
 *fill*         0x00001a81        0x3 00
 COMMON         0x00001a84       0x70 src/asf/common/boards/user_board/init.o
                0x00001a84                SD_Status
                0x00001a8c                PCA9542A
                0x00001a90                Columbus_Status
                0x00001aa4                sdram_msp
                0x00001aa8                pwm_channel
                0x00001ac8                pwm_opt
                0x00001ae4                Motor_Control
 COMMON         0x00001af4        0xc src/CustomDevices/ImageProcessor.o
                0x00001af4                OV7670_Status
 COMMON         0x00001b00        0x4 c:/program files (x86)/atmel/atmel studio 6.0/extensions/atmel/avrgcc/3.4.1.95/avrtoolchain/bin/../lib/gcc/avr32/4.4.3/../../../../avr32/lib/ucr3fp\libc.a(lib_a-reent.o)
                0x00001b00                errno
                0x00001b08                . = ALIGN (0x8)
 *fill*         0x00001b04        0x4 00
                0x00001b08                . = ALIGN (0x8)
                0x00001b08                _end = .
                0x00001b08                PROVIDE (end, .)
                0x00001b08                __heap_start__ = ALIGN (0x8)
                0x0000f000                . = ((ORIGIN (CPUSRAM) + 0xfffc) - _stack_size)
                0x0000f000                __heap_end__ = .

.stab
 *(.stab)

.stabstr
 *(.stabstr)

.stab.excl
 *(.stab.excl)

.stab.exclstr
 *(.stab.exclstr)

.stab.index
 *(.stab.index)

.stab.indexstr
 *(.stab.indexstr)

.comment        0x00000000       0x60
 *(.comment)
 .comment       0x00000000       0x30 src/asf/avr32/components/memory/sd_mmc/sd_mmc_spi/sd_mmc_spi.o
                                 0x31 (size before relaxing)
 .comment       0x00000000       0x31 src/asf/avr32/components/memory/sd_mmc/sd_mmc_spi/sd_mmc_spi_mem.o
 .comment       0x00000000       0x31 src/asf/avr32/drivers/acifa/acifa.o
 .comment       0x00000000       0x31 src/asf/avr32/drivers/ebi/sdramc/sdramc.o
 .comment       0x00000000       0x31 src/asf/avr32/drivers/eic/eic.o
 .comment       0x00000000       0x31 src/asf/avr32/drivers/flashc/flashc.o
 .comment       0x00000000       0x31 src/asf/avr32/drivers/gpio/gpio.o
 .comment       0x00000000       0x31 src/asf/avr32/drivers/intc/intc.o
 .comment       0x00000000       0x31 src/asf/avr32/drivers/pm/pm_uc3c.o
 .comment       0x00000000       0x31 src/asf/avr32/drivers/pm/power_clocks_lib.o
 .comment       0x00000000       0x31 src/asf/avr32/drivers/pwm/pwm4.o
 .comment       0x00000000       0x31 src/asf/avr32/drivers/scif/scif_uc3c.o
 .comment       0x00000000       0x31 src/asf/avr32/drivers/spi/spi.o
 .comment       0x00000000       0x31 src/asf/avr32/drivers/twim/twim.o
 .comment       0x00000000       0x31 src/asf/avr32/drivers/usart/usart.o
 .comment       0x00000000       0x31 src/asf/avr32/services/fs/fat/fat.o
 .comment       0x00000000       0x31 src/asf/avr32/services/fs/fat/fat_unusual.o
 .comment       0x00000000       0x31 src/asf/avr32/services/fs/fat/file.o
 .comment       0x00000000       0x31 src/asf/avr32/services/fs/fat/navigation.o
 .comment       0x00000000       0x31 src/asf/avr32/utils/debug/print_funcs.o
 .comment       0x00000000       0x31 src/asf/common/boards/user_board/init.o
 .comment       0x00000000       0x31 src/asf/common/services/storage/ctrl_access/ctrl_access.o
 .comment       0x00000000       0x31 src/asf/thirdparty/dlmalloc/dlmalloc.o
 .comment       0x00000000       0x31 src/asf/thirdparty/dlmalloc/dlsbrk.o
 .comment       0x00000000       0x31 src/CustomDevices/Bitmap.o
 .comment       0x00000000       0x31 src/CustomDevices/ImageProcessor.o
 .comment       0x00000000       0x31 src/CustomDevices/MotorDriver.o
 .comment       0x00000000       0x31 src/CustomDevices/OV7670.o
 .comment       0x00000000       0x31 src/CustomDevices/OV7670_Setup.o
 .comment       0x00000000       0x31 src/CustomDevices/PCA9542A.o
 .comment       0x00000000       0x31 src/CustomDevices/SD_Card.o
 .comment       0x00000000       0x31 src/CustomDevices/TWI.o
 .comment       0x00000000       0x31 src/main.o
 .comment       0x00000030       0x30 ../src/asf/avr32/utils/libs/dsplib/at32ucr3fp/gcc\libdsp-at32ucr3fp-dspspeed_opt.a(vect_dsp16_complex_abs.o)
                                 0x31 (size before relaxing)
 .comment       0x00000000       0x31 ../src/asf/avr32/utils/libs/dsplib/at32ucr3fp/gcc\libdsp-at32ucr3fp-dspspeed_opt.a(op_dsp16_sqrt_at32uc.o)
 .comment       0x00000000       0x31 ../src/asf/avr32/utils/libs/dsplib/at32ucr3fp/gcc\libdsp-at32ucr3fp-dspspeed_opt.a(trans_dsp16_complex_fft_at32uc.o)
 .comment       0x00000000       0x31 ../src/asf/avr32/utils/libs/dsplib/at32ucr3fp/gcc\libdsp-at32ucr3fp-dspspeed_opt.a(trans_dsp16_real_complex_fft_at32uc.o)
 .comment       0x00000000       0x31 ../src/asf/avr32/utils/libs/dsplib/at32ucr3fp/gcc\libdsp-at32ucr3fp-dspspeed_opt.a(trans_dsp16_twiddle_factors.o)
 .comment       0x00000000       0x31 c:/program files (x86)/atmel/atmel studio 6.0/extensions/atmel/avrgcc/3.4.1.95/avrtoolchain/bin/../lib/gcc/avr32/4.4.3/../../../../avr32/lib/ucr3fp\libc.a(lib_a-atoi.o)
 .comment       0x00000000       0x31 c:/program files (x86)/atmel/atmel studio 6.0/extensions/atmel/avrgcc/3.4.1.95/avrtoolchain/bin/../lib/gcc/avr32/4.4.3/../../../../avr32/lib/ucr3fp\libc.a(lib_a-ctype_.o)
 .comment       0x00000000       0x31 c:/program files (x86)/atmel/atmel studio 6.0/extensions/atmel/avrgcc/3.4.1.95/avrtoolchain/bin/../lib/gcc/avr32/4.4.3/../../../../avr32/lib/ucr3fp\libc.a(lib_a-impure.o)
 .comment       0x00000000       0x31 c:/program files (x86)/atmel/atmel studio 6.0/extensions/atmel/avrgcc/3.4.1.95/avrtoolchain/bin/../lib/gcc/avr32/4.4.3/../../../../avr32/lib/ucr3fp\libc.a(lib_a-memcmp.o)
 .comment       0x00000000       0x31 c:/program files (x86)/atmel/atmel studio 6.0/extensions/atmel/avrgcc/3.4.1.95/avrtoolchain/bin/../lib/gcc/avr32/4.4.3/../../../../avr32/lib/ucr3fp\libc.a(lib_a-memset.o)
 .comment       0x00000000       0x31 c:/program files (x86)/atmel/atmel studio 6.0/extensions/atmel/avrgcc/3.4.1.95/avrtoolchain/bin/../lib/gcc/avr32/4.4.3/../../../../avr32/lib/ucr3fp\libc.a(lib_a-sprintf.o)
 .comment       0x00000000       0x31 c:/program files (x86)/atmel/atmel studio 6.0/extensions/atmel/avrgcc/3.4.1.95/avrtoolchain/bin/../lib/gcc/avr32/4.4.3/../../../../avr32/lib/ucr3fp\libc.a(lib_a-strtol.o)
 .comment       0x00000000       0x31 c:/program files (x86)/atmel/atmel studio 6.0/extensions/atmel/avrgcc/3.4.1.95/avrtoolchain/bin/../lib/gcc/avr32/4.4.3/../../../../avr32/lib/ucr3fp\libc.a(lib_a-vfprintf.o)
 .comment       0x00000000       0x31 c:/program files (x86)/atmel/atmel studio 6.0/extensions/atmel/avrgcc/3.4.1.95/avrtoolchain/bin/../lib/gcc/avr32/4.4.3/../../../../avr32/lib/ucr3fp\libc.a(lib_a-wsetup.o)
 .comment       0x00000000       0x31 c:/program files (x86)/atmel/atmel studio 6.0/extensions/atmel/avrgcc/3.4.1.95/avrtoolchain/bin/../lib/gcc/avr32/4.4.3/../../../../avr32/lib/ucr3fp\libc.a(lib_a-dtoa.o)
 .comment       0x00000000       0x31 c:/program files (x86)/atmel/atmel studio 6.0/extensions/atmel/avrgcc/3.4.1.95/avrtoolchain/bin/../lib/gcc/avr32/4.4.3/../../../../avr32/lib/ucr3fp\libc.a(lib_a-fflush.o)
 .comment       0x00000000       0x31 c:/program files (x86)/atmel/atmel studio 6.0/extensions/atmel/avrgcc/3.4.1.95/avrtoolchain/bin/../lib/gcc/avr32/4.4.3/../../../../avr32/lib/ucr3fp\libc.a(lib_a-findfp.o)
 .comment       0x00000000       0x31 c:/program files (x86)/atmel/atmel studio 6.0/extensions/atmel/avrgcc/3.4.1.95/avrtoolchain/bin/../lib/gcc/avr32/4.4.3/../../../../avr32/lib/ucr3fp\libc.a(lib_a-freer.o)
 .comment       0x00000000       0x31 c:/program files (x86)/atmel/atmel studio 6.0/extensions/atmel/avrgcc/3.4.1.95/avrtoolchain/bin/../lib/gcc/avr32/4.4.3/../../../../avr32/lib/ucr3fp\libc.a(lib_a-fvwrite.o)
 .comment       0x00000000       0x31 c:/program files (x86)/atmel/atmel studio 6.0/extensions/atmel/avrgcc/3.4.1.95/avrtoolchain/bin/../lib/gcc/avr32/4.4.3/../../../../avr32/lib/ucr3fp\libc.a(lib_a-fwalk.o)
 .comment       0x00000000       0x31 c:/program files (x86)/atmel/atmel studio 6.0/extensions/atmel/avrgcc/3.4.1.95/avrtoolchain/bin/../lib/gcc/avr32/4.4.3/../../../../avr32/lib/ucr3fp\libc.a(lib_a-locale.o)
 .comment       0x00000000       0x31 c:/program files (x86)/atmel/atmel studio 6.0/extensions/atmel/avrgcc/3.4.1.95/avrtoolchain/bin/../lib/gcc/avr32/4.4.3/../../../../avr32/lib/ucr3fp\libc.a(lib_a-makebuf.o)
 .comment       0x00000000       0x31 c:/program files (x86)/atmel/atmel studio 6.0/extensions/atmel/avrgcc/3.4.1.95/avrtoolchain/bin/../lib/gcc/avr32/4.4.3/../../../../avr32/lib/ucr3fp\libc.a(lib_a-mallocr.o)
 .comment       0x00000000       0x31 c:/program files (x86)/atmel/atmel studio 6.0/extensions/atmel/avrgcc/3.4.1.95/avrtoolchain/bin/../lib/gcc/avr32/4.4.3/../../../../avr32/lib/ucr3fp\libc.a(lib_a-memchr.o)
 .comment       0x00000000       0x31 c:/program files (x86)/atmel/atmel studio 6.0/extensions/atmel/avrgcc/3.4.1.95/avrtoolchain/bin/../lib/gcc/avr32/4.4.3/../../../../avr32/lib/ucr3fp\libc.a(lib_a-memmove.o)
 .comment       0x00000000       0x31 c:/program files (x86)/atmel/atmel studio 6.0/extensions/atmel/avrgcc/3.4.1.95/avrtoolchain/bin/../lib/gcc/avr32/4.4.3/../../../../avr32/lib/ucr3fp\libc.a(lib_a-mlock.o)
 .comment       0x00000000       0x31 c:/program files (x86)/atmel/atmel studio 6.0/extensions/atmel/avrgcc/3.4.1.95/avrtoolchain/bin/../lib/gcc/avr32/4.4.3/../../../../avr32/lib/ucr3fp\libc.a(lib_a-mprec.o)
 .comment       0x00000000       0x31 c:/program files (x86)/atmel/atmel studio 6.0/extensions/atmel/avrgcc/3.4.1.95/avrtoolchain/bin/../lib/gcc/avr32/4.4.3/../../../../avr32/lib/ucr3fp\libc.a(lib_a-reallocr.o)
 .comment       0x00000000       0x31 c:/program files (x86)/atmel/atmel studio 6.0/extensions/atmel/avrgcc/3.4.1.95/avrtoolchain/bin/../lib/gcc/avr32/4.4.3/../../../../avr32/lib/ucr3fp\libc.a(lib_a-sbrkr.o)
 .comment       0x00000000       0x31 c:/program files (x86)/atmel/atmel studio 6.0/extensions/atmel/avrgcc/3.4.1.95/avrtoolchain/bin/../lib/gcc/avr32/4.4.3/../../../../avr32/lib/ucr3fp\libc.a(lib_a-s_isinfd.o)
 .comment       0x00000000       0x31 c:/program files (x86)/atmel/atmel studio 6.0/extensions/atmel/avrgcc/3.4.1.95/avrtoolchain/bin/../lib/gcc/avr32/4.4.3/../../../../avr32/lib/ucr3fp\libc.a(lib_a-s_isnand.o)
 .comment       0x00000000       0x31 c:/program files (x86)/atmel/atmel studio 6.0/extensions/atmel/avrgcc/3.4.1.95/avrtoolchain/bin/../lib/gcc/avr32/4.4.3/../../../../avr32/lib/ucr3fp\libc.a(lib_a-stdio.o)
 .comment       0x00000000       0x31 c:/program files (x86)/atmel/atmel studio 6.0/extensions/atmel/avrgcc/3.4.1.95/avrtoolchain/bin/../lib/gcc/avr32/4.4.3/../../../../avr32/lib/ucr3fp\libc.a(lib_a-strlen.o)
 .comment       0x00000000       0x31 c:/program files (x86)/atmel/atmel studio 6.0/extensions/atmel/avrgcc/3.4.1.95/avrtoolchain/bin/../lib/gcc/avr32/4.4.3/../../../../avr32/lib/ucr3fp\libc.a(lib_a-syscalls.o)
 .comment       0x00000000       0x31 c:/program files (x86)/atmel/atmel studio 6.0/extensions/atmel/avrgcc/3.4.1.95/avrtoolchain/bin/../lib/gcc/avr32/4.4.3/../../../../avr32/lib/ucr3fp\libc.a(lib_a-writer.o)
 .comment       0x00000000       0x31 c:/program files (x86)/atmel/atmel studio 6.0/extensions/atmel/avrgcc/3.4.1.95/avrtoolchain/bin/../lib/gcc/avr32/4.4.3/../../../../avr32/lib/ucr3fp\libc.a(lib_a-callocr.o)
 .comment       0x00000000       0x31 c:/program files (x86)/atmel/atmel studio 6.0/extensions/atmel/avrgcc/3.4.1.95/avrtoolchain/bin/../lib/gcc/avr32/4.4.3/../../../../avr32/lib/ucr3fp\libc.a(lib_a-closer.o)
 .comment       0x00000000       0x31 c:/program files (x86)/atmel/atmel studio 6.0/extensions/atmel/avrgcc/3.4.1.95/avrtoolchain/bin/../lib/gcc/avr32/4.4.3/../../../../avr32/lib/ucr3fp\libc.a(lib_a-errno.o)
 .comment       0x00000000       0x31 c:/program files (x86)/atmel/atmel studio 6.0/extensions/atmel/avrgcc/3.4.1.95/avrtoolchain/bin/../lib/gcc/avr32/4.4.3/../../../../avr32/lib/ucr3fp\libc.a(lib_a-fclose.o)
 .comment       0x00000000       0x31 c:/program files (x86)/atmel/atmel studio 6.0/extensions/atmel/avrgcc/3.4.1.95/avrtoolchain/bin/../lib/gcc/avr32/4.4.3/../../../../avr32/lib/ucr3fp\libc.a(lib_a-fstatr.o)
 .comment       0x00000000       0x31 c:/program files (x86)/atmel/atmel studio 6.0/extensions/atmel/avrgcc/3.4.1.95/avrtoolchain/bin/../lib/gcc/avr32/4.4.3/../../../../avr32/lib/ucr3fp\libc.a(lib_a-lseekr.o)
 .comment       0x00000000       0x31 c:/program files (x86)/atmel/atmel studio 6.0/extensions/atmel/avrgcc/3.4.1.95/avrtoolchain/bin/../lib/gcc/avr32/4.4.3/../../../../avr32/lib/ucr3fp\libc.a(lib_a-readr.o)
 .comment       0x00000000       0x31 c:/program files (x86)/atmel/atmel studio 6.0/extensions/atmel/avrgcc/3.4.1.95/avrtoolchain/bin/../lib/gcc/avr32/4.4.3/../../../../avr32/lib/ucr3fp\libc.a(lib_a-reent.o)
 .comment       0x00000000       0x31 c:/program files (x86)/atmel/atmel studio 6.0/extensions/atmel/avrgcc/3.4.1.95/avrtoolchain/bin/../lib/gcc/avr32/4.4.3/ucr3fp\libgcc.a(_udivdi3.o)
 .comment       0x00000000       0x31 c:/program files (x86)/atmel/atmel studio 6.0/extensions/atmel/avrgcc/3.4.1.95/avrtoolchain/bin/../lib/gcc/avr32/4.4.3/ucr3fp\libgcc.a(_umoddi3.o)

.debug
 *(.debug)

.line
 *(.line)

.debug_srcinfo
 *(.debug_srcinfo)

.debug_sfnames
 *(.debug_sfnames)

.debug_aranges  0x00000000     0x1cc0
 *(.debug_aranges)
 .debug_aranges
                0x00000000       0xf0 src/asf/avr32/components/memory/sd_mmc/sd_mmc_spi/sd_mmc_spi.o
 .debug_aranges
                0x000000f0       0x50 src/asf/avr32/components/memory/sd_mmc/sd_mmc_spi/sd_mmc_spi_mem.o
 .debug_aranges
                0x00000140       0xa8 src/asf/avr32/drivers/acifa/acifa.o
 .debug_aranges
                0x000001e8       0x38 src/asf/avr32/drivers/ebi/sdramc/sdramc.o
 .debug_aranges
                0x00000220       0x88 src/asf/avr32/drivers/eic/eic.o
 .debug_aranges
                0x000002a8      0x220 src/asf/avr32/drivers/flashc/flashc.o
 .debug_aranges
                0x000004c8      0x120 src/asf/avr32/drivers/gpio/gpio.o
 .debug_aranges
                0x000005e8       0x38 src/asf/avr32/drivers/intc/intc.o
 .debug_aranges
                0x00000620       0x50 src/asf/avr32/drivers/pm/pm_uc3c.o
 .debug_aranges
                0x00000670       0x40 src/asf/avr32/drivers/pm/power_clocks_lib.o
 .debug_aranges
                0x000006b0       0xf0 src/asf/avr32/drivers/pwm/pwm4.o
 .debug_aranges
                0x000007a0      0x168 src/asf/avr32/drivers/scif/scif_uc3c.o
 .debug_aranges
                0x00000908       0xa8 src/asf/avr32/drivers/spi/spi.o
 .debug_aranges
                0x000009b0       0x70 src/asf/avr32/drivers/twim/twim.o
 .debug_aranges
                0x00000a20       0xe0 src/asf/avr32/drivers/usart/usart.o
 .debug_aranges
                0x00000b00      0x160 src/asf/avr32/services/fs/fat/fat.o
 .debug_aranges
                0x00000c60      0x128 src/asf/avr32/services/fs/fat/fat_unusual.o
 .debug_aranges
                0x00000d88       0x98 src/asf/avr32/services/fs/fat/file.o
 .debug_aranges
                0x00000e20      0x218 src/asf/avr32/services/fs/fat/navigation.o
 .debug_aranges
                0x00001038       0x88 src/asf/avr32/utils/debug/print_funcs.o
 .debug_aranges
                0x000010c0       0x30 src/asf/common/boards/user_board/init.o
 .debug_aranges
                0x000010f0       0x80 src/asf/common/services/storage/ctrl_access/ctrl_access.o
 .debug_aranges
                0x00001170      0x190 src/asf/thirdparty/dlmalloc/dlmalloc.o
 .debug_aranges
                0x00001300       0x30 src/asf/thirdparty/dlmalloc/dlsbrk.o
 .debug_aranges
                0x00001330       0x60 src/CustomDevices/ImageProcessor.o
 .debug_aranges
                0x00001390       0x60 src/CustomDevices/MotorDriver.o
 .debug_aranges
                0x000013f0       0x78 src/CustomDevices/OV7670.o
 .debug_aranges
                0x00001468       0x28 src/CustomDevices/PCA9542A.o
 .debug_aranges
                0x00001490       0x90 src/CustomDevices/SD_Card.o
 .debug_aranges
                0x00001520       0x20 src/CustomDevices/TWI.o
 .debug_aranges
                0x00001540       0x50 src/main.o
 .debug_aranges
                0x00001590       0x28 c:/program files (x86)/atmel/atmel studio 6.0/extensions/atmel/avrgcc/3.4.1.95/avrtoolchain/bin/../lib/gcc/avr32/4.4.3/../../../../avr32/lib/ucr3fp\libc.a(lib_a-atoi.o)
 .debug_aranges
                0x000015b8       0x20 c:/program files (x86)/atmel/atmel studio 6.0/extensions/atmel/avrgcc/3.4.1.95/avrtoolchain/bin/../lib/gcc/avr32/4.4.3/../../../../avr32/lib/ucr3fp\libc.a(lib_a-memcmp.o)
 .debug_aranges
                0x000015d8       0x20 c:/program files (x86)/atmel/atmel studio 6.0/extensions/atmel/avrgcc/3.4.1.95/avrtoolchain/bin/../lib/gcc/avr32/4.4.3/../../../../avr32/lib/ucr3fp\libc.a(lib_a-memset.o)
 .debug_aranges
                0x000015f8       0x28 c:/program files (x86)/atmel/atmel studio 6.0/extensions/atmel/avrgcc/3.4.1.95/avrtoolchain/bin/../lib/gcc/avr32/4.4.3/../../../../avr32/lib/ucr3fp\libc.a(lib_a-sprintf.o)
 .debug_aranges
                0x00001620       0x28 c:/program files (x86)/atmel/atmel studio 6.0/extensions/atmel/avrgcc/3.4.1.95/avrtoolchain/bin/../lib/gcc/avr32/4.4.3/../../../../avr32/lib/ucr3fp\libc.a(lib_a-strtol.o)
 .debug_aranges
                0x00001648       0x38 c:/program files (x86)/atmel/atmel studio 6.0/extensions/atmel/avrgcc/3.4.1.95/avrtoolchain/bin/../lib/gcc/avr32/4.4.3/../../../../avr32/lib/ucr3fp\libc.a(lib_a-vfprintf.o)
 .debug_aranges
                0x00001680       0x20 c:/program files (x86)/atmel/atmel studio 6.0/extensions/atmel/avrgcc/3.4.1.95/avrtoolchain/bin/../lib/gcc/avr32/4.4.3/../../../../avr32/lib/ucr3fp\libc.a(lib_a-wsetup.o)
 .debug_aranges
                0x000016a0       0x28 c:/program files (x86)/atmel/atmel studio 6.0/extensions/atmel/avrgcc/3.4.1.95/avrtoolchain/bin/../lib/gcc/avr32/4.4.3/../../../../avr32/lib/ucr3fp\libc.a(lib_a-dtoa.o)
 .debug_aranges
                0x000016c8       0x28 c:/program files (x86)/atmel/atmel studio 6.0/extensions/atmel/avrgcc/3.4.1.95/avrtoolchain/bin/../lib/gcc/avr32/4.4.3/../../../../avr32/lib/ucr3fp\libc.a(lib_a-fflush.o)
 .debug_aranges
                0x000016f0       0x80 c:/program files (x86)/atmel/atmel studio 6.0/extensions/atmel/avrgcc/3.4.1.95/avrtoolchain/bin/../lib/gcc/avr32/4.4.3/../../../../avr32/lib/ucr3fp\libc.a(lib_a-findfp.o)
 .debug_aranges
                0x00001770       0x28 c:/program files (x86)/atmel/atmel studio 6.0/extensions/atmel/avrgcc/3.4.1.95/avrtoolchain/bin/../lib/gcc/avr32/4.4.3/../../../../avr32/lib/ucr3fp\libc.a(lib_a-freer.o)
 .debug_aranges
                0x00001798       0x20 c:/program files (x86)/atmel/atmel studio 6.0/extensions/atmel/avrgcc/3.4.1.95/avrtoolchain/bin/../lib/gcc/avr32/4.4.3/../../../../avr32/lib/ucr3fp\libc.a(lib_a-fvwrite.o)
 .debug_aranges
                0x000017b8       0x28 c:/program files (x86)/atmel/atmel studio 6.0/extensions/atmel/avrgcc/3.4.1.95/avrtoolchain/bin/../lib/gcc/avr32/4.4.3/../../../../avr32/lib/ucr3fp\libc.a(lib_a-fwalk.o)
 .debug_aranges
                0x000017e0       0x40 c:/program files (x86)/atmel/atmel studio 6.0/extensions/atmel/avrgcc/3.4.1.95/avrtoolchain/bin/../lib/gcc/avr32/4.4.3/../../../../avr32/lib/ucr3fp\libc.a(lib_a-locale.o)
 .debug_aranges
                0x00001820       0x20 c:/program files (x86)/atmel/atmel studio 6.0/extensions/atmel/avrgcc/3.4.1.95/avrtoolchain/bin/../lib/gcc/avr32/4.4.3/../../../../avr32/lib/ucr3fp\libc.a(lib_a-makebuf.o)
 .debug_aranges
                0x00001840       0x20 c:/program files (x86)/atmel/atmel studio 6.0/extensions/atmel/avrgcc/3.4.1.95/avrtoolchain/bin/../lib/gcc/avr32/4.4.3/../../../../avr32/lib/ucr3fp\libc.a(lib_a-mallocr.o)
 .debug_aranges
                0x00001860       0x20 c:/program files (x86)/atmel/atmel studio 6.0/extensions/atmel/avrgcc/3.4.1.95/avrtoolchain/bin/../lib/gcc/avr32/4.4.3/../../../../avr32/lib/ucr3fp\libc.a(lib_a-memchr.o)
 .debug_aranges
                0x00001880       0x20 c:/program files (x86)/atmel/atmel studio 6.0/extensions/atmel/avrgcc/3.4.1.95/avrtoolchain/bin/../lib/gcc/avr32/4.4.3/../../../../avr32/lib/ucr3fp\libc.a(lib_a-memmove.o)
 .debug_aranges
                0x000018a0       0x28 c:/program files (x86)/atmel/atmel studio 6.0/extensions/atmel/avrgcc/3.4.1.95/avrtoolchain/bin/../lib/gcc/avr32/4.4.3/../../../../avr32/lib/ucr3fp\libc.a(lib_a-mlock.o)
 .debug_aranges
                0x000018c8       0xb0 c:/program files (x86)/atmel/atmel studio 6.0/extensions/atmel/avrgcc/3.4.1.95/avrtoolchain/bin/../lib/gcc/avr32/4.4.3/../../../../avr32/lib/ucr3fp\libc.a(lib_a-mprec.o)
 .debug_aranges
                0x00001978       0x20 c:/program files (x86)/atmel/atmel studio 6.0/extensions/atmel/avrgcc/3.4.1.95/avrtoolchain/bin/../lib/gcc/avr32/4.4.3/../../../../avr32/lib/ucr3fp\libc.a(lib_a-reallocr.o)
 .debug_aranges
                0x00001998       0x20 c:/program files (x86)/atmel/atmel studio 6.0/extensions/atmel/avrgcc/3.4.1.95/avrtoolchain/bin/../lib/gcc/avr32/4.4.3/../../../../avr32/lib/ucr3fp\libc.a(lib_a-sbrkr.o)
 .debug_aranges
                0x000019b8       0x20 c:/program files (x86)/atmel/atmel studio 6.0/extensions/atmel/avrgcc/3.4.1.95/avrtoolchain/bin/../lib/gcc/avr32/4.4.3/../../../../avr32/lib/ucr3fp\libc.a(lib_a-s_isinfd.o)
 .debug_aranges
                0x000019d8       0x20 c:/program files (x86)/atmel/atmel studio 6.0/extensions/atmel/avrgcc/3.4.1.95/avrtoolchain/bin/../lib/gcc/avr32/4.4.3/../../../../avr32/lib/ucr3fp\libc.a(lib_a-s_isnand.o)
 .debug_aranges
                0x000019f8       0x38 c:/program files (x86)/atmel/atmel studio 6.0/extensions/atmel/avrgcc/3.4.1.95/avrtoolchain/bin/../lib/gcc/avr32/4.4.3/../../../../avr32/lib/ucr3fp\libc.a(lib_a-stdio.o)
 .debug_aranges
                0x00001a30       0x20 c:/program files (x86)/atmel/atmel studio 6.0/extensions/atmel/avrgcc/3.4.1.95/avrtoolchain/bin/../lib/gcc/avr32/4.4.3/../../../../avr32/lib/ucr3fp\libc.a(lib_a-strlen.o)
 .debug_aranges
                0x00001a50       0xf8 c:/program files (x86)/atmel/atmel studio 6.0/extensions/atmel/avrgcc/3.4.1.95/avrtoolchain/bin/../lib/gcc/avr32/4.4.3/../../../../avr32/lib/ucr3fp\libc.a(lib_a-syscalls.o)
 .debug_aranges
                0x00001b48       0x20 c:/program files (x86)/atmel/atmel studio 6.0/extensions/atmel/avrgcc/3.4.1.95/avrtoolchain/bin/../lib/gcc/avr32/4.4.3/../../../../avr32/lib/ucr3fp\libc.a(lib_a-writer.o)
 .debug_aranges
                0x00001b68       0x20 c:/program files (x86)/atmel/atmel studio 6.0/extensions/atmel/avrgcc/3.4.1.95/avrtoolchain/bin/../lib/gcc/avr32/4.4.3/../../../../avr32/lib/ucr3fp\libc.a(lib_a-callocr.o)
 .debug_aranges
                0x00001b88       0x20 c:/program files (x86)/atmel/atmel studio 6.0/extensions/atmel/avrgcc/3.4.1.95/avrtoolchain/bin/../lib/gcc/avr32/4.4.3/../../../../avr32/lib/ucr3fp\libc.a(lib_a-closer.o)
 .debug_aranges
                0x00001ba8       0x20 c:/program files (x86)/atmel/atmel studio 6.0/extensions/atmel/avrgcc/3.4.1.95/avrtoolchain/bin/../lib/gcc/avr32/4.4.3/../../../../avr32/lib/ucr3fp\libc.a(lib_a-errno.o)
 .debug_aranges
                0x00001bc8       0x28 c:/program files (x86)/atmel/atmel studio 6.0/extensions/atmel/avrgcc/3.4.1.95/avrtoolchain/bin/../lib/gcc/avr32/4.4.3/../../../../avr32/lib/ucr3fp\libc.a(lib_a-fclose.o)
 .debug_aranges
                0x00001bf0       0x20 c:/program files (x86)/atmel/atmel studio 6.0/extensions/atmel/avrgcc/3.4.1.95/avrtoolchain/bin/../lib/gcc/avr32/4.4.3/../../../../avr32/lib/ucr3fp\libc.a(lib_a-fstatr.o)
 .debug_aranges
                0x00001c10       0x20 c:/program files (x86)/atmel/atmel studio 6.0/extensions/atmel/avrgcc/3.4.1.95/avrtoolchain/bin/../lib/gcc/avr32/4.4.3/../../../../avr32/lib/ucr3fp\libc.a(lib_a-lseekr.o)
 .debug_aranges
                0x00001c30       0x20 c:/program files (x86)/atmel/atmel studio 6.0/extensions/atmel/avrgcc/3.4.1.95/avrtoolchain/bin/../lib/gcc/avr32/4.4.3/../../../../avr32/lib/ucr3fp\libc.a(lib_a-readr.o)
 .debug_aranges
                0x00001c50       0x30 c:/program files (x86)/atmel/atmel studio 6.0/extensions/atmel/avrgcc/3.4.1.95/avrtoolchain/bin/../lib/gcc/avr32/4.4.3/../../../../avr32/lib/ucr3fp\libc.a(lib_a-reent.o)
 .debug_aranges
                0x00001c80       0x20 c:/program files (x86)/atmel/atmel studio 6.0/extensions/atmel/avrgcc/3.4.1.95/avrtoolchain/bin/../lib/gcc/avr32/4.4.3/ucr3fp\libgcc.a(_udivdi3.o)
 .debug_aranges
                0x00001ca0       0x20 c:/program files (x86)/atmel/atmel studio 6.0/extensions/atmel/avrgcc/3.4.1.95/avrtoolchain/bin/../lib/gcc/avr32/4.4.3/ucr3fp\libgcc.a(_umoddi3.o)

.debug_pubnames
                0x00000000     0x4c76
 *(.debug_pubnames)
 .debug_pubnames
                0x00000000      0x3b1 src/asf/avr32/components/memory/sd_mmc/sd_mmc_spi/sd_mmc_spi.o
 .debug_pubnames
                0x000003b1       0xe8 src/asf/avr32/components/memory/sd_mmc/sd_mmc_spi/sd_mmc_spi_mem.o
 .debug_pubnames
                0x00000499      0x1bf src/asf/avr32/drivers/acifa/acifa.o
 .debug_pubnames
                0x00000658       0x5b src/asf/avr32/drivers/ebi/sdramc/sdramc.o
 .debug_pubnames
                0x000006b3      0x186 src/asf/avr32/drivers/eic/eic.o
 .debug_pubnames
                0x00000839      0x79d src/asf/avr32/drivers/flashc/flashc.o
 .debug_pubnames
                0x00000fd6      0x3aa src/asf/avr32/drivers/gpio/gpio.o
 .debug_pubnames
                0x00001380       0x62 src/asf/avr32/drivers/intc/intc.o
 .debug_pubnames
                0x000013e2       0xc3 src/asf/avr32/drivers/pm/pm_uc3c.o
 .debug_pubnames
                0x000014a5       0x82 src/asf/avr32/drivers/pm/power_clocks_lib.o
 .debug_pubnames
                0x00001527      0x34b src/asf/avr32/drivers/pwm/pwm4.o
 .debug_pubnames
                0x00001872      0x3f6 src/asf/avr32/drivers/scif/scif_uc3c.o
 .debug_pubnames
                0x00001c68      0x178 src/asf/avr32/drivers/spi/spi.o
 .debug_pubnames
                0x00001de0       0xd6 src/asf/avr32/drivers/twim/twim.o
 .debug_pubnames
                0x00001eb6      0x227 src/asf/avr32/drivers/usart/usart.o
 .debug_pubnames
                0x000020dd      0x5a8 src/asf/avr32/services/fs/fat/fat.o
 .debug_pubnames
                0x00002685      0x480 src/asf/avr32/services/fs/fat/fat_unusual.o
 .debug_pubnames
                0x00002b05       0xf8 src/asf/avr32/services/fs/fat/file.o
 .debug_pubnames
                0x00002bfd      0x5d8 src/asf/avr32/services/fs/fat/navigation.o
 .debug_pubnames
                0x000031d5      0x10f src/asf/avr32/utils/debug/print_funcs.o
 .debug_pubnames
                0x000032e4       0xee src/asf/common/boards/user_board/init.o
 .debug_pubnames
                0x000033d2       0xfc src/asf/common/services/storage/ctrl_access/ctrl_access.o
 .debug_pubnames
                0x000034ce      0x267 src/asf/thirdparty/dlmalloc/dlmalloc.o
 .debug_pubnames
                0x00003735       0x38 src/asf/thirdparty/dlmalloc/dlsbrk.o
 .debug_pubnames
                0x0000376d       0xbe src/CustomDevices/Bitmap.o
 .debug_pubnames
                0x0000382b      0x13e src/CustomDevices/ImageProcessor.o
 .debug_pubnames
                0x00003969      0x161 src/CustomDevices/MotorDriver.o
 .debug_pubnames
                0x00003aca      0x15f src/CustomDevices/OV7670.o
 .debug_pubnames
                0x00003c29       0xbe src/CustomDevices/OV7670_Setup.o
 .debug_pubnames
                0x00003ce7       0xe6 src/CustomDevices/PCA9542A.o
 .debug_pubnames
                0x00003dcd      0x1fc src/CustomDevices/SD_Card.o
 .debug_pubnames
                0x00003fc9       0xcc src/CustomDevices/TWI.o
 .debug_pubnames
                0x00004095      0x147 src/main.o
 .debug_pubnames
                0x000041dc       0x27 c:/program files (x86)/atmel/atmel studio 6.0/extensions/atmel/avrgcc/3.4.1.95/avrtoolchain/bin/../lib/gcc/avr32/4.4.3/../../../../avr32/lib/ucr3fp\libc.a(lib_a-atoi.o)
 .debug_pubnames
                0x00004203       0x2e c:/program files (x86)/atmel/atmel studio 6.0/extensions/atmel/avrgcc/3.4.1.95/avrtoolchain/bin/../lib/gcc/avr32/4.4.3/../../../../avr32/lib/ucr3fp\libc.a(lib_a-ctype_.o)
 .debug_pubnames
                0x00004231       0x39 c:/program files (x86)/atmel/atmel studio 6.0/extensions/atmel/avrgcc/3.4.1.95/avrtoolchain/bin/../lib/gcc/avr32/4.4.3/../../../../avr32/lib/ucr3fp\libc.a(lib_a-impure.o)
 .debug_pubnames
                0x0000426a       0x1d c:/program files (x86)/atmel/atmel studio 6.0/extensions/atmel/avrgcc/3.4.1.95/avrtoolchain/bin/../lib/gcc/avr32/4.4.3/../../../../avr32/lib/ucr3fp\libc.a(lib_a-memcmp.o)
 .debug_pubnames
                0x00004287       0x1d c:/program files (x86)/atmel/atmel studio 6.0/extensions/atmel/avrgcc/3.4.1.95/avrtoolchain/bin/../lib/gcc/avr32/4.4.3/../../../../avr32/lib/ucr3fp\libc.a(lib_a-memset.o)
 .debug_pubnames
                0x000042a4       0x2d c:/program files (x86)/atmel/atmel studio 6.0/extensions/atmel/avrgcc/3.4.1.95/avrtoolchain/bin/../lib/gcc/avr32/4.4.3/../../../../avr32/lib/ucr3fp\libc.a(lib_a-sprintf.o)
 .debug_pubnames
                0x000042d1       0x2b c:/program files (x86)/atmel/atmel studio 6.0/extensions/atmel/avrgcc/3.4.1.95/avrtoolchain/bin/../lib/gcc/avr32/4.4.3/../../../../avr32/lib/ucr3fp\libc.a(lib_a-strtol.o)
 .debug_pubnames
                0x000042fc       0x2f c:/program files (x86)/atmel/atmel studio 6.0/extensions/atmel/avrgcc/3.4.1.95/avrtoolchain/bin/../lib/gcc/avr32/4.4.3/../../../../avr32/lib/ucr3fp\libc.a(lib_a-vfprintf.o)
 .debug_pubnames
                0x0000432b       0x22 c:/program files (x86)/atmel/atmel studio 6.0/extensions/atmel/avrgcc/3.4.1.95/avrtoolchain/bin/../lib/gcc/avr32/4.4.3/../../../../avr32/lib/ucr3fp\libc.a(lib_a-wsetup.o)
 .debug_pubnames
                0x0000434d       0x1e c:/program files (x86)/atmel/atmel studio 6.0/extensions/atmel/avrgcc/3.4.1.95/avrtoolchain/bin/../lib/gcc/avr32/4.4.3/../../../../avr32/lib/ucr3fp\libc.a(lib_a-dtoa.o)
 .debug_pubnames
                0x0000436b       0x2b c:/program files (x86)/atmel/atmel studio 6.0/extensions/atmel/avrgcc/3.4.1.95/avrtoolchain/bin/../lib/gcc/avr32/4.4.3/../../../../avr32/lib/ucr3fp\libc.a(lib_a-fflush.o)
 .debug_pubnames
                0x00004396      0x119 c:/program files (x86)/atmel/atmel studio 6.0/extensions/atmel/avrgcc/3.4.1.95/avrtoolchain/bin/../lib/gcc/avr32/4.4.3/../../../../avr32/lib/ucr3fp\libc.a(lib_a-findfp.o)
 .debug_pubnames
                0x000044af       0x31 c:/program files (x86)/atmel/atmel studio 6.0/extensions/atmel/avrgcc/3.4.1.95/avrtoolchain/bin/../lib/gcc/avr32/4.4.3/../../../../avr32/lib/ucr3fp\libc.a(lib_a-freer.o)
 .debug_pubnames
                0x000044e0       0x23 c:/program files (x86)/atmel/atmel studio 6.0/extensions/atmel/avrgcc/3.4.1.95/avrtoolchain/bin/../lib/gcc/avr32/4.4.3/../../../../avr32/lib/ucr3fp\libc.a(lib_a-fvwrite.o)
 .debug_pubnames
                0x00004503       0x2e c:/program files (x86)/atmel/atmel studio 6.0/extensions/atmel/avrgcc/3.4.1.95/avrtoolchain/bin/../lib/gcc/avr32/4.4.3/../../../../avr32/lib/ucr3fp\libc.a(lib_a-fwalk.o)
 .debug_pubnames
                0x00004531       0xc3 c:/program files (x86)/atmel/atmel studio 6.0/extensions/atmel/avrgcc/3.4.1.95/avrtoolchain/bin/../lib/gcc/avr32/4.4.3/../../../../avr32/lib/ucr3fp\libc.a(lib_a-locale.o)
 .debug_pubnames
                0x000045f4       0x23 c:/program files (x86)/atmel/atmel studio 6.0/extensions/atmel/avrgcc/3.4.1.95/avrtoolchain/bin/../lib/gcc/avr32/4.4.3/../../../../avr32/lib/ucr3fp\libc.a(lib_a-makebuf.o)
 .debug_pubnames
                0x00004617       0xce c:/program files (x86)/atmel/atmel studio 6.0/extensions/atmel/avrgcc/3.4.1.95/avrtoolchain/bin/../lib/gcc/avr32/4.4.3/../../../../avr32/lib/ucr3fp\libc.a(lib_a-mallocr.o)
 .debug_pubnames
                0x000046e5       0x1d c:/program files (x86)/atmel/atmel studio 6.0/extensions/atmel/avrgcc/3.4.1.95/avrtoolchain/bin/../lib/gcc/avr32/4.4.3/../../../../avr32/lib/ucr3fp\libc.a(lib_a-memchr.o)
 .debug_pubnames
                0x00004702       0x1e c:/program files (x86)/atmel/atmel studio 6.0/extensions/atmel/avrgcc/3.4.1.95/avrtoolchain/bin/../lib/gcc/avr32/4.4.3/../../../../avr32/lib/ucr3fp\libc.a(lib_a-memmove.o)
 .debug_pubnames
                0x00004720       0x38 c:/program files (x86)/atmel/atmel studio 6.0/extensions/atmel/avrgcc/3.4.1.95/avrtoolchain/bin/../lib/gcc/avr32/4.4.3/../../../../avr32/lib/ucr3fp\libc.a(lib_a-mlock.o)
 .debug_pubnames
                0x00004758      0x13a c:/program files (x86)/atmel/atmel studio 6.0/extensions/atmel/avrgcc/3.4.1.95/avrtoolchain/bin/../lib/gcc/avr32/4.4.3/../../../../avr32/lib/ucr3fp\libc.a(lib_a-mprec.o)
 .debug_pubnames
                0x00004892       0x21 c:/program files (x86)/atmel/atmel studio 6.0/extensions/atmel/avrgcc/3.4.1.95/avrtoolchain/bin/../lib/gcc/avr32/4.4.3/../../../../avr32/lib/ucr3fp\libc.a(lib_a-reallocr.o)
 .debug_pubnames
                0x000048b3       0x1e c:/program files (x86)/atmel/atmel studio 6.0/extensions/atmel/avrgcc/3.4.1.95/avrtoolchain/bin/../lib/gcc/avr32/4.4.3/../../../../avr32/lib/ucr3fp\libc.a(lib_a-sbrkr.o)
 .debug_pubnames
                0x000048d1       0x1f c:/program files (x86)/atmel/atmel studio 6.0/extensions/atmel/avrgcc/3.4.1.95/avrtoolchain/bin/../lib/gcc/avr32/4.4.3/../../../../avr32/lib/ucr3fp\libc.a(lib_a-s_isinfd.o)
 .debug_pubnames
                0x000048f0       0x1f c:/program files (x86)/atmel/atmel studio 6.0/extensions/atmel/avrgcc/3.4.1.95/avrtoolchain/bin/../lib/gcc/avr32/4.4.3/../../../../avr32/lib/ucr3fp\libc.a(lib_a-s_isnand.o)
 .debug_pubnames
                0x0000490f       0x44 c:/program files (x86)/atmel/atmel studio 6.0/extensions/atmel/avrgcc/3.4.1.95/avrtoolchain/bin/../lib/gcc/avr32/4.4.3/../../../../avr32/lib/ucr3fp\libc.a(lib_a-stdio.o)
 .debug_pubnames
                0x00004953       0x1d c:/program files (x86)/atmel/atmel studio 6.0/extensions/atmel/avrgcc/3.4.1.95/avrtoolchain/bin/../lib/gcc/avr32/4.4.3/../../../../avr32/lib/ucr3fp\libc.a(lib_a-strlen.o)
 .debug_pubnames
                0x00004970      0x171 c:/program files (x86)/atmel/atmel studio 6.0/extensions/atmel/avrgcc/3.4.1.95/avrtoolchain/bin/../lib/gcc/avr32/4.4.3/../../../../avr32/lib/ucr3fp\libc.a(lib_a-syscalls.o)
 .debug_pubnames
                0x00004ae1       0x1f c:/program files (x86)/atmel/atmel studio 6.0/extensions/atmel/avrgcc/3.4.1.95/avrtoolchain/bin/../lib/gcc/avr32/4.4.3/../../../../avr32/lib/ucr3fp\libc.a(lib_a-writer.o)
 .debug_pubnames
                0x00004b00       0x20 c:/program files (x86)/atmel/atmel studio 6.0/extensions/atmel/avrgcc/3.4.1.95/avrtoolchain/bin/../lib/gcc/avr32/4.4.3/../../../../avr32/lib/ucr3fp\libc.a(lib_a-callocr.o)
 .debug_pubnames
                0x00004b20       0x1f c:/program files (x86)/atmel/atmel studio 6.0/extensions/atmel/avrgcc/3.4.1.95/avrtoolchain/bin/../lib/gcc/avr32/4.4.3/../../../../avr32/lib/ucr3fp\libc.a(lib_a-closer.o)
 .debug_pubnames
                0x00004b3f       0x1e c:/program files (x86)/atmel/atmel studio 6.0/extensions/atmel/avrgcc/3.4.1.95/avrtoolchain/bin/../lib/gcc/avr32/4.4.3/../../../../avr32/lib/ucr3fp\libc.a(lib_a-errno.o)
 .debug_pubnames
                0x00004b5d       0x2b c:/program files (x86)/atmel/atmel studio 6.0/extensions/atmel/avrgcc/3.4.1.95/avrtoolchain/bin/../lib/gcc/avr32/4.4.3/../../../../avr32/lib/ucr3fp\libc.a(lib_a-fclose.o)
 .debug_pubnames
                0x00004b88       0x1f c:/program files (x86)/atmel/atmel studio 6.0/extensions/atmel/avrgcc/3.4.1.95/avrtoolchain/bin/../lib/gcc/avr32/4.4.3/../../../../avr32/lib/ucr3fp\libc.a(lib_a-fstatr.o)
 .debug_pubnames
                0x00004ba7       0x1f c:/program files (x86)/atmel/atmel studio 6.0/extensions/atmel/avrgcc/3.4.1.95/avrtoolchain/bin/../lib/gcc/avr32/4.4.3/../../../../avr32/lib/ucr3fp\libc.a(lib_a-lseekr.o)
 .debug_pubnames
                0x00004bc6       0x1e c:/program files (x86)/atmel/atmel studio 6.0/extensions/atmel/avrgcc/3.4.1.95/avrtoolchain/bin/../lib/gcc/avr32/4.4.3/../../../../avr32/lib/ucr3fp\libc.a(lib_a-readr.o)
 .debug_pubnames
                0x00004be4       0x52 c:/program files (x86)/atmel/atmel studio 6.0/extensions/atmel/avrgcc/3.4.1.95/avrtoolchain/bin/../lib/gcc/avr32/4.4.3/../../../../avr32/lib/ucr3fp\libc.a(lib_a-reent.o)
 .debug_pubnames
                0x00004c36       0x20 c:/program files (x86)/atmel/atmel studio 6.0/extensions/atmel/avrgcc/3.4.1.95/avrtoolchain/bin/../lib/gcc/avr32/4.4.3/ucr3fp\libgcc.a(_udivdi3.o)
 .debug_pubnames
                0x00004c56       0x20 c:/program files (x86)/atmel/atmel studio 6.0/extensions/atmel/avrgcc/3.4.1.95/avrtoolchain/bin/../lib/gcc/avr32/4.4.3/ucr3fp\libgcc.a(_umoddi3.o)

.debug_info     0x00000000    0x4227d
 *(.debug_info .gnu.linkonce.wi.*)
 .debug_info    0x00000000     0x154b src/asf/avr32/components/memory/sd_mmc/sd_mmc_spi/sd_mmc_spi.o
 .debug_info    0x0000154b      0x224 src/asf/avr32/components/memory/sd_mmc/sd_mmc_spi/sd_mmc_spi_mem.o
 .debug_info    0x0000176f      0xfda src/asf/avr32/drivers/acifa/acifa.o
 .debug_info    0x00002749      0xc67 src/asf/avr32/drivers/ebi/sdramc/sdramc.o
 .debug_info    0x000033b0     0x1964 src/asf/avr32/drivers/eic/eic.o
 .debug_info    0x00004d14     0x1cfb src/asf/avr32/drivers/flashc/flashc.o
 .debug_info    0x00006a0f      0xf50 src/asf/avr32/drivers/gpio/gpio.o
 .debug_info    0x0000795f      0x836 src/asf/avr32/drivers/intc/intc.o
 .debug_info    0x00008195     0x1028 src/asf/avr32/drivers/pm/pm_uc3c.o
 .debug_info    0x000091bd      0x58f src/asf/avr32/drivers/pm/power_clocks_lib.o
 .debug_info    0x0000974c     0x29ed src/asf/avr32/drivers/pwm/pwm4.o
 .debug_info    0x0000c139     0x1caa src/asf/avr32/drivers/scif/scif_uc3c.o
 .debug_info    0x0000dde3     0x1309 src/asf/avr32/drivers/spi/spi.o
 .debug_info    0x0000f0ec     0x1215 src/asf/avr32/drivers/twim/twim.o
 .debug_info    0x00010301     0x3166 src/asf/avr32/drivers/usart/usart.o
 .debug_info    0x00013467      0xe72 src/asf/avr32/services/fs/fat/fat.o
 .debug_info    0x000142d9     0x1148 src/asf/avr32/services/fs/fat/fat_unusual.o
 .debug_info    0x00015421      0x6cc src/asf/avr32/services/fs/fat/file.o
 .debug_info    0x00015aed     0x1181 src/asf/avr32/services/fs/fat/navigation.o
 .debug_info    0x00016c6e     0x2a1b src/asf/avr32/utils/debug/print_funcs.o
 .debug_info    0x00019689      0x843 src/asf/common/boards/user_board/init.o
 .debug_info    0x00019ecc      0x569 src/asf/common/services/storage/ctrl_access/ctrl_access.o
 .debug_info    0x0001a435     0x3e42 src/asf/thirdparty/dlmalloc/dlmalloc.o
 .debug_info    0x0001e277      0x15c src/asf/thirdparty/dlmalloc/dlsbrk.o
 .debug_info    0x0001e3d3      0x756 src/CustomDevices/Bitmap.o
 .debug_info    0x0001eb29      0xc63 src/CustomDevices/ImageProcessor.o
 .debug_info    0x0001f78c     0x177b src/CustomDevices/MotorDriver.o
 .debug_info    0x00020f07     0x3ef7 src/CustomDevices/OV7670.o
 .debug_info    0x00024dfe      0x76f src/CustomDevices/OV7670_Setup.o
 .debug_info    0x0002556d     0x1307 src/CustomDevices/PCA9542A.o
 .debug_info    0x00026874     0x209e src/CustomDevices/SD_Card.o
 .debug_info    0x00028912     0x12f0 src/CustomDevices/TWI.o
 .debug_info    0x00029c02     0x3221 src/main.o
 .debug_info    0x0002ce23      0x8dc c:/program files (x86)/atmel/atmel studio 6.0/extensions/atmel/avrgcc/3.4.1.95/avrtoolchain/bin/../lib/gcc/avr32/4.4.3/../../../../avr32/lib/ucr3fp\libc.a(lib_a-atoi.o)
 .debug_info    0x0002d6ff       0x71 c:/program files (x86)/atmel/atmel studio 6.0/extensions/atmel/avrgcc/3.4.1.95/avrtoolchain/bin/../lib/gcc/avr32/4.4.3/../../../../avr32/lib/ucr3fp\libc.a(lib_a-ctype_.o)
 .debug_info    0x0002d770      0x960 c:/program files (x86)/atmel/atmel studio 6.0/extensions/atmel/avrgcc/3.4.1.95/avrtoolchain/bin/../lib/gcc/avr32/4.4.3/../../../../avr32/lib/ucr3fp\libc.a(lib_a-impure.o)
 .debug_info    0x0002e0d0       0xe5 c:/program files (x86)/atmel/atmel studio 6.0/extensions/atmel/avrgcc/3.4.1.95/avrtoolchain/bin/../lib/gcc/avr32/4.4.3/../../../../avr32/lib/ucr3fp\libc.a(lib_a-memcmp.o)
 .debug_info    0x0002e1b5       0xcd c:/program files (x86)/atmel/atmel studio 6.0/extensions/atmel/avrgcc/3.4.1.95/avrtoolchain/bin/../lib/gcc/avr32/4.4.3/../../../../avr32/lib/ucr3fp\libc.a(lib_a-memset.o)
 .debug_info    0x0002e282      0x989 c:/program files (x86)/atmel/atmel studio 6.0/extensions/atmel/avrgcc/3.4.1.95/avrtoolchain/bin/../lib/gcc/avr32/4.4.3/../../../../avr32/lib/ucr3fp\libc.a(lib_a-sprintf.o)
 .debug_info    0x0002ec0b      0x99d c:/program files (x86)/atmel/atmel studio 6.0/extensions/atmel/avrgcc/3.4.1.95/avrtoolchain/bin/../lib/gcc/avr32/4.4.3/../../../../avr32/lib/ucr3fp\libc.a(lib_a-strtol.o)
 .debug_info    0x0002f5a8     0x15df c:/program files (x86)/atmel/atmel studio 6.0/extensions/atmel/avrgcc/3.4.1.95/avrtoolchain/bin/../lib/gcc/avr32/4.4.3/../../../../avr32/lib/ucr3fp\libc.a(lib_a-vfprintf.o)
 .debug_info    0x00030b87      0x982 c:/program files (x86)/atmel/atmel studio 6.0/extensions/atmel/avrgcc/3.4.1.95/avrtoolchain/bin/../lib/gcc/avr32/4.4.3/../../../../avr32/lib/ucr3fp\libc.a(lib_a-wsetup.o)
 .debug_info    0x00031509      0xcf7 c:/program files (x86)/atmel/atmel studio 6.0/extensions/atmel/avrgcc/3.4.1.95/avrtoolchain/bin/../lib/gcc/avr32/4.4.3/../../../../avr32/lib/ucr3fp\libc.a(lib_a-dtoa.o)
 .debug_info    0x00032200      0xa22 c:/program files (x86)/atmel/atmel studio 6.0/extensions/atmel/avrgcc/3.4.1.95/avrtoolchain/bin/../lib/gcc/avr32/4.4.3/../../../../avr32/lib/ucr3fp\libc.a(lib_a-fflush.o)
 .debug_info    0x00032c22      0xc2a c:/program files (x86)/atmel/atmel studio 6.0/extensions/atmel/avrgcc/3.4.1.95/avrtoolchain/bin/../lib/gcc/avr32/4.4.3/../../../../avr32/lib/ucr3fp\libc.a(lib_a-findfp.o)
 .debug_info    0x0003384c      0xb3d c:/program files (x86)/atmel/atmel studio 6.0/extensions/atmel/avrgcc/3.4.1.95/avrtoolchain/bin/../lib/gcc/avr32/4.4.3/../../../../avr32/lib/ucr3fp\libc.a(lib_a-freer.o)
 .debug_info    0x00034389      0x9fc c:/program files (x86)/atmel/atmel studio 6.0/extensions/atmel/avrgcc/3.4.1.95/avrtoolchain/bin/../lib/gcc/avr32/4.4.3/../../../../avr32/lib/ucr3fp\libc.a(lib_a-fvwrite.o)
 .debug_info    0x00034d85      0xa61 c:/program files (x86)/atmel/atmel studio 6.0/extensions/atmel/avrgcc/3.4.1.95/avrtoolchain/bin/../lib/gcc/avr32/4.4.3/../../../../avr32/lib/ucr3fp\libc.a(lib_a-fwalk.o)
 .debug_info    0x000357e6      0xb24 c:/program files (x86)/atmel/atmel studio 6.0/extensions/atmel/avrgcc/3.4.1.95/avrtoolchain/bin/../lib/gcc/avr32/4.4.3/../../../../avr32/lib/ucr3fp\libc.a(lib_a-locale.o)
 .debug_info    0x0003630a      0xa96 c:/program files (x86)/atmel/atmel studio 6.0/extensions/atmel/avrgcc/3.4.1.95/avrtoolchain/bin/../lib/gcc/avr32/4.4.3/../../../../avr32/lib/ucr3fp\libc.a(lib_a-makebuf.o)
 .debug_info    0x00036da0      0xc4e c:/program files (x86)/atmel/atmel studio 6.0/extensions/atmel/avrgcc/3.4.1.95/avrtoolchain/bin/../lib/gcc/avr32/4.4.3/../../../../avr32/lib/ucr3fp\libc.a(lib_a-mallocr.o)
 .debug_info    0x000379ee       0xe7 c:/program files (x86)/atmel/atmel studio 6.0/extensions/atmel/avrgcc/3.4.1.95/avrtoolchain/bin/../lib/gcc/avr32/4.4.3/../../../../avr32/lib/ucr3fp\libc.a(lib_a-memchr.o)
 .debug_info    0x00037ad5      0x102 c:/program files (x86)/atmel/atmel studio 6.0/extensions/atmel/avrgcc/3.4.1.95/avrtoolchain/bin/../lib/gcc/avr32/4.4.3/../../../../avr32/lib/ucr3fp\libc.a(lib_a-memmove.o)
 .debug_info    0x00037bd7      0x8cf c:/program files (x86)/atmel/atmel studio 6.0/extensions/atmel/avrgcc/3.4.1.95/avrtoolchain/bin/../lib/gcc/avr32/4.4.3/../../../../avr32/lib/ucr3fp\libc.a(lib_a-mlock.o)
 .debug_info    0x000384a6     0x149a c:/program files (x86)/atmel/atmel studio 6.0/extensions/atmel/avrgcc/3.4.1.95/avrtoolchain/bin/../lib/gcc/avr32/4.4.3/../../../../avr32/lib/ucr3fp\libc.a(lib_a-mprec.o)
 .debug_info    0x00039940      0xb17 c:/program files (x86)/atmel/atmel studio 6.0/extensions/atmel/avrgcc/3.4.1.95/avrtoolchain/bin/../lib/gcc/avr32/4.4.3/../../../../avr32/lib/ucr3fp\libc.a(lib_a-reallocr.o)
 .debug_info    0x0003a457      0x8de c:/program files (x86)/atmel/atmel studio 6.0/extensions/atmel/avrgcc/3.4.1.95/avrtoolchain/bin/../lib/gcc/avr32/4.4.3/../../../../avr32/lib/ucr3fp\libc.a(lib_a-sbrkr.o)
 .debug_info    0x0003ad35      0x14d c:/program files (x86)/atmel/atmel studio 6.0/extensions/atmel/avrgcc/3.4.1.95/avrtoolchain/bin/../lib/gcc/avr32/4.4.3/../../../../avr32/lib/ucr3fp\libc.a(lib_a-s_isinfd.o)
 .debug_info    0x0003ae82      0x14c c:/program files (x86)/atmel/atmel studio 6.0/extensions/atmel/avrgcc/3.4.1.95/avrtoolchain/bin/../lib/gcc/avr32/4.4.3/../../../../avr32/lib/ucr3fp\libc.a(lib_a-s_isnand.o)
 .debug_info    0x0003afce      0xa28 c:/program files (x86)/atmel/atmel studio 6.0/extensions/atmel/avrgcc/3.4.1.95/avrtoolchain/bin/../lib/gcc/avr32/4.4.3/../../../../avr32/lib/ucr3fp\libc.a(lib_a-stdio.o)
 .debug_info    0x0003b9f6       0xbe c:/program files (x86)/atmel/atmel studio 6.0/extensions/atmel/avrgcc/3.4.1.95/avrtoolchain/bin/../lib/gcc/avr32/4.4.3/../../../../avr32/lib/ucr3fp\libc.a(lib_a-strlen.o)
 .debug_info    0x0003bab4      0x93a c:/program files (x86)/atmel/atmel studio 6.0/extensions/atmel/avrgcc/3.4.1.95/avrtoolchain/bin/../lib/gcc/avr32/4.4.3/../../../../avr32/lib/ucr3fp\libc.a(lib_a-syscalls.o)
 .debug_info    0x0003c3ee      0x90d c:/program files (x86)/atmel/atmel studio 6.0/extensions/atmel/avrgcc/3.4.1.95/avrtoolchain/bin/../lib/gcc/avr32/4.4.3/../../../../avr32/lib/ucr3fp\libc.a(lib_a-writer.o)
 .debug_info    0x0003ccfb      0x997 c:/program files (x86)/atmel/atmel studio 6.0/extensions/atmel/avrgcc/3.4.1.95/avrtoolchain/bin/../lib/gcc/avr32/4.4.3/../../../../avr32/lib/ucr3fp\libc.a(lib_a-callocr.o)
 .debug_info    0x0003d692      0x8d2 c:/program files (x86)/atmel/atmel studio 6.0/extensions/atmel/avrgcc/3.4.1.95/avrtoolchain/bin/../lib/gcc/avr32/4.4.3/../../../../avr32/lib/ucr3fp\libc.a(lib_a-closer.o)
 .debug_info    0x0003df64      0x8a6 c:/program files (x86)/atmel/atmel studio 6.0/extensions/atmel/avrgcc/3.4.1.95/avrtoolchain/bin/../lib/gcc/avr32/4.4.3/../../../../avr32/lib/ucr3fp\libc.a(lib_a-errno.o)
 .debug_info    0x0003e80a      0x9bc c:/program files (x86)/atmel/atmel studio 6.0/extensions/atmel/avrgcc/3.4.1.95/avrtoolchain/bin/../lib/gcc/avr32/4.4.3/../../../../avr32/lib/ucr3fp\libc.a(lib_a-fclose.o)
 .debug_info    0x0003f1c6      0xa76 c:/program files (x86)/atmel/atmel studio 6.0/extensions/atmel/avrgcc/3.4.1.95/avrtoolchain/bin/../lib/gcc/avr32/4.4.3/../../../../avr32/lib/ucr3fp\libc.a(lib_a-fstatr.o)
 .debug_info    0x0003fc3c      0x8fb c:/program files (x86)/atmel/atmel studio 6.0/extensions/atmel/avrgcc/3.4.1.95/avrtoolchain/bin/../lib/gcc/avr32/4.4.3/../../../../avr32/lib/ucr3fp\libc.a(lib_a-lseekr.o)
 .debug_info    0x00040537      0x906 c:/program files (x86)/atmel/atmel studio 6.0/extensions/atmel/avrgcc/3.4.1.95/avrtoolchain/bin/../lib/gcc/avr32/4.4.3/../../../../avr32/lib/ucr3fp\libc.a(lib_a-readr.o)
 .debug_info    0x00040e3d      0x973 c:/program files (x86)/atmel/atmel studio 6.0/extensions/atmel/avrgcc/3.4.1.95/avrtoolchain/bin/../lib/gcc/avr32/4.4.3/../../../../avr32/lib/ucr3fp\libc.a(lib_a-reent.o)
 .debug_info    0x000417b0      0x573 c:/program files (x86)/atmel/atmel studio 6.0/extensions/atmel/avrgcc/3.4.1.95/avrtoolchain/bin/../lib/gcc/avr32/4.4.3/ucr3fp\libgcc.a(_udivdi3.o)
 .debug_info    0x00041d23      0x55a c:/program files (x86)/atmel/atmel studio 6.0/extensions/atmel/avrgcc/3.4.1.95/avrtoolchain/bin/../lib/gcc/avr32/4.4.3/ucr3fp\libgcc.a(_umoddi3.o)

.debug_abbrev   0x00000000     0x86bf
 *(.debug_abbrev)
 .debug_abbrev  0x00000000      0x2a4 src/asf/avr32/components/memory/sd_mmc/sd_mmc_spi/sd_mmc_spi.o
 .debug_abbrev  0x000002a4      0x145 src/asf/avr32/components/memory/sd_mmc/sd_mmc_spi/sd_mmc_spi_mem.o
 .debug_abbrev  0x000003e9      0x1cd src/asf/avr32/drivers/acifa/acifa.o
 .debug_abbrev  0x000005b6      0x200 src/asf/avr32/drivers/ebi/sdramc/sdramc.o
 .debug_abbrev  0x000007b6      0x218 src/asf/avr32/drivers/eic/eic.o
 .debug_abbrev  0x000009ce      0x326 src/asf/avr32/drivers/flashc/flashc.o
 .debug_abbrev  0x00000cf4      0x2f4 src/asf/avr32/drivers/gpio/gpio.o
 .debug_abbrev  0x00000fe8      0x1f2 src/asf/avr32/drivers/intc/intc.o
 .debug_abbrev  0x000011da      0x1f0 src/asf/avr32/drivers/pm/pm_uc3c.o
 .debug_abbrev  0x000013ca      0x191 src/asf/avr32/drivers/pm/power_clocks_lib.o
 .debug_abbrev  0x0000155b      0x2be src/asf/avr32/drivers/pwm/pwm4.o
 .debug_abbrev  0x00001819      0x30c src/asf/avr32/drivers/scif/scif_uc3c.o
 .debug_abbrev  0x00001b25      0x281 src/asf/avr32/drivers/spi/spi.o
 .debug_abbrev  0x00001da6      0x282 src/asf/avr32/drivers/twim/twim.o
 .debug_abbrev  0x00002028      0x32b src/asf/avr32/drivers/usart/usart.o
 .debug_abbrev  0x00002353      0x270 src/asf/avr32/services/fs/fat/fat.o
 .debug_abbrev  0x000025c3      0x20a src/asf/avr32/services/fs/fat/fat_unusual.o
 .debug_abbrev  0x000027cd      0x207 src/asf/avr32/services/fs/fat/file.o
 .debug_abbrev  0x000029d4      0x22f src/asf/avr32/services/fs/fat/navigation.o
 .debug_abbrev  0x00002c03      0x1a8 src/asf/avr32/utils/debug/print_funcs.o
 .debug_abbrev  0x00002dab      0x181 src/asf/common/boards/user_board/init.o
 .debug_abbrev  0x00002f2c      0x176 src/asf/common/services/storage/ctrl_access/ctrl_access.o
 .debug_abbrev  0x000030a2      0x3ad src/asf/thirdparty/dlmalloc/dlmalloc.o
 .debug_abbrev  0x0000344f       0xb3 src/asf/thirdparty/dlmalloc/dlsbrk.o
 .debug_abbrev  0x00003502      0x10e src/CustomDevices/Bitmap.o
 .debug_abbrev  0x00003610      0x252 src/CustomDevices/ImageProcessor.o
 .debug_abbrev  0x00003862      0x308 src/CustomDevices/MotorDriver.o
 .debug_abbrev  0x00003b6a      0x415 src/CustomDevices/OV7670.o
 .debug_abbrev  0x00003f7f      0x10e src/CustomDevices/OV7670_Setup.o
 .debug_abbrev  0x0000408d      0x19f src/CustomDevices/PCA9542A.o
 .debug_abbrev  0x0000422c      0x2cd src/CustomDevices/SD_Card.o
 .debug_abbrev  0x000044f9      0x161 src/CustomDevices/TWI.o
 .debug_abbrev  0x0000465a      0x31d src/main.o
 .debug_abbrev  0x00004977      0x167 c:/program files (x86)/atmel/atmel studio 6.0/extensions/atmel/avrgcc/3.4.1.95/avrtoolchain/bin/../lib/gcc/avr32/4.4.3/../../../../avr32/lib/ucr3fp\libc.a(lib_a-atoi.o)
 .debug_abbrev  0x00004ade       0x59 c:/program files (x86)/atmel/atmel studio 6.0/extensions/atmel/avrgcc/3.4.1.95/avrtoolchain/bin/../lib/gcc/avr32/4.4.3/../../../../avr32/lib/ucr3fp\libc.a(lib_a-ctype_.o)
 .debug_abbrev  0x00004b37      0x160 c:/program files (x86)/atmel/atmel studio 6.0/extensions/atmel/avrgcc/3.4.1.95/avrtoolchain/bin/../lib/gcc/avr32/4.4.3/../../../../avr32/lib/ucr3fp\libc.a(lib_a-impure.o)
 .debug_abbrev  0x00004c97       0x92 c:/program files (x86)/atmel/atmel studio 6.0/extensions/atmel/avrgcc/3.4.1.95/avrtoolchain/bin/../lib/gcc/avr32/4.4.3/../../../../avr32/lib/ucr3fp\libc.a(lib_a-memcmp.o)
 .debug_abbrev  0x00004d29       0x85 c:/program files (x86)/atmel/atmel studio 6.0/extensions/atmel/avrgcc/3.4.1.95/avrtoolchain/bin/../lib/gcc/avr32/4.4.3/../../../../avr32/lib/ucr3fp\libc.a(lib_a-memset.o)
 .debug_abbrev  0x00004dae      0x1a4 c:/program files (x86)/atmel/atmel studio 6.0/extensions/atmel/avrgcc/3.4.1.95/avrtoolchain/bin/../lib/gcc/avr32/4.4.3/../../../../avr32/lib/ucr3fp\libc.a(lib_a-sprintf.o)
 .debug_abbrev  0x00004f52      0x1cc c:/program files (x86)/atmel/atmel studio 6.0/extensions/atmel/avrgcc/3.4.1.95/avrtoolchain/bin/../lib/gcc/avr32/4.4.3/../../../../avr32/lib/ucr3fp\libc.a(lib_a-strtol.o)
 .debug_abbrev  0x0000511e      0x3dd c:/program files (x86)/atmel/atmel studio 6.0/extensions/atmel/avrgcc/3.4.1.95/avrtoolchain/bin/../lib/gcc/avr32/4.4.3/../../../../avr32/lib/ucr3fp\libc.a(lib_a-vfprintf.o)
 .debug_abbrev  0x000054fb      0x16a c:/program files (x86)/atmel/atmel studio 6.0/extensions/atmel/avrgcc/3.4.1.95/avrtoolchain/bin/../lib/gcc/avr32/4.4.3/../../../../avr32/lib/ucr3fp\libc.a(lib_a-wsetup.o)
 .debug_abbrev  0x00005665      0x251 c:/program files (x86)/atmel/atmel studio 6.0/extensions/atmel/avrgcc/3.4.1.95/avrtoolchain/bin/../lib/gcc/avr32/4.4.3/../../../../avr32/lib/ucr3fp\libc.a(lib_a-dtoa.o)
 .debug_abbrev  0x000058b6      0x1c6 c:/program files (x86)/atmel/atmel studio 6.0/extensions/atmel/avrgcc/3.4.1.95/avrtoolchain/bin/../lib/gcc/avr32/4.4.3/../../../../avr32/lib/ucr3fp\libc.a(lib_a-fflush.o)
 .debug_abbrev  0x00005a7c      0x28c c:/program files (x86)/atmel/atmel studio 6.0/extensions/atmel/avrgcc/3.4.1.95/avrtoolchain/bin/../lib/gcc/avr32/4.4.3/../../../../avr32/lib/ucr3fp\libc.a(lib_a-findfp.o)
 .debug_abbrev  0x00005d08      0x1d9 c:/program files (x86)/atmel/atmel studio 6.0/extensions/atmel/avrgcc/3.4.1.95/avrtoolchain/bin/../lib/gcc/avr32/4.4.3/../../../../avr32/lib/ucr3fp\libc.a(lib_a-freer.o)
 .debug_abbrev  0x00005ee1      0x1b4 c:/program files (x86)/atmel/atmel studio 6.0/extensions/atmel/avrgcc/3.4.1.95/avrtoolchain/bin/../lib/gcc/avr32/4.4.3/../../../../avr32/lib/ucr3fp\libc.a(lib_a-fvwrite.o)
 .debug_abbrev  0x00006095      0x1df c:/program files (x86)/atmel/atmel studio 6.0/extensions/atmel/avrgcc/3.4.1.95/avrtoolchain/bin/../lib/gcc/avr32/4.4.3/../../../../avr32/lib/ucr3fp\libc.a(lib_a-fwalk.o)
 .debug_abbrev  0x00006274      0x210 c:/program files (x86)/atmel/atmel studio 6.0/extensions/atmel/avrgcc/3.4.1.95/avrtoolchain/bin/../lib/gcc/avr32/4.4.3/../../../../avr32/lib/ucr3fp\libc.a(lib_a-locale.o)
 .debug_abbrev  0x00006484      0x17b c:/program files (x86)/atmel/atmel studio 6.0/extensions/atmel/avrgcc/3.4.1.95/avrtoolchain/bin/../lib/gcc/avr32/4.4.3/../../../../avr32/lib/ucr3fp\libc.a(lib_a-makebuf.o)
 .debug_abbrev  0x000065ff      0x205 c:/program files (x86)/atmel/atmel studio 6.0/extensions/atmel/avrgcc/3.4.1.95/avrtoolchain/bin/../lib/gcc/avr32/4.4.3/../../../../avr32/lib/ucr3fp\libc.a(lib_a-mallocr.o)
 .debug_abbrev  0x00006804       0xb1 c:/program files (x86)/atmel/atmel studio 6.0/extensions/atmel/avrgcc/3.4.1.95/avrtoolchain/bin/../lib/gcc/avr32/4.4.3/../../../../avr32/lib/ucr3fp\libc.a(lib_a-memchr.o)
 .debug_abbrev  0x000068b5       0xa2 c:/program files (x86)/atmel/atmel studio 6.0/extensions/atmel/avrgcc/3.4.1.95/avrtoolchain/bin/../lib/gcc/avr32/4.4.3/../../../../avr32/lib/ucr3fp\libc.a(lib_a-memmove.o)
 .debug_abbrev  0x00006957      0x15b c:/program files (x86)/atmel/atmel studio 6.0/extensions/atmel/avrgcc/3.4.1.95/avrtoolchain/bin/../lib/gcc/avr32/4.4.3/../../../../avr32/lib/ucr3fp\libc.a(lib_a-mlock.o)
 .debug_abbrev  0x00006ab2      0x30e c:/program files (x86)/atmel/atmel studio 6.0/extensions/atmel/avrgcc/3.4.1.95/avrtoolchain/bin/../lib/gcc/avr32/4.4.3/../../../../avr32/lib/ucr3fp\libc.a(lib_a-mprec.o)
 .debug_abbrev  0x00006dc0      0x1c1 c:/program files (x86)/atmel/atmel studio 6.0/extensions/atmel/avrgcc/3.4.1.95/avrtoolchain/bin/../lib/gcc/avr32/4.4.3/../../../../avr32/lib/ucr3fp\libc.a(lib_a-reallocr.o)
 .debug_abbrev  0x00006f81      0x17f c:/program files (x86)/atmel/atmel studio 6.0/extensions/atmel/avrgcc/3.4.1.95/avrtoolchain/bin/../lib/gcc/avr32/4.4.3/../../../../avr32/lib/ucr3fp\libc.a(lib_a-sbrkr.o)
 .debug_abbrev  0x00007100       0xdd c:/program files (x86)/atmel/atmel studio 6.0/extensions/atmel/avrgcc/3.4.1.95/avrtoolchain/bin/../lib/gcc/avr32/4.4.3/../../../../avr32/lib/ucr3fp\libc.a(lib_a-s_isinfd.o)
 .debug_abbrev  0x000071dd       0xce c:/program files (x86)/atmel/atmel studio 6.0/extensions/atmel/avrgcc/3.4.1.95/avrtoolchain/bin/../lib/gcc/avr32/4.4.3/../../../../avr32/lib/ucr3fp\libc.a(lib_a-s_isnand.o)
 .debug_abbrev  0x000072ab      0x192 c:/program files (x86)/atmel/atmel studio 6.0/extensions/atmel/avrgcc/3.4.1.95/avrtoolchain/bin/../lib/gcc/avr32/4.4.3/../../../../avr32/lib/ucr3fp\libc.a(lib_a-stdio.o)
 .debug_abbrev  0x0000743d       0x83 c:/program files (x86)/atmel/atmel studio 6.0/extensions/atmel/avrgcc/3.4.1.95/avrtoolchain/bin/../lib/gcc/avr32/4.4.3/../../../../avr32/lib/ucr3fp\libc.a(lib_a-strlen.o)
 .debug_abbrev  0x000074c0      0x19a c:/program files (x86)/atmel/atmel studio 6.0/extensions/atmel/avrgcc/3.4.1.95/avrtoolchain/bin/../lib/gcc/avr32/4.4.3/../../../../avr32/lib/ucr3fp\libc.a(lib_a-syscalls.o)
 .debug_abbrev  0x0000765a      0x175 c:/program files (x86)/atmel/atmel studio 6.0/extensions/atmel/avrgcc/3.4.1.95/avrtoolchain/bin/../lib/gcc/avr32/4.4.3/../../../../avr32/lib/ucr3fp\libc.a(lib_a-writer.o)
 .debug_abbrev  0x000077cf      0x193 c:/program files (x86)/atmel/atmel studio 6.0/extensions/atmel/avrgcc/3.4.1.95/avrtoolchain/bin/../lib/gcc/avr32/4.4.3/../../../../avr32/lib/ucr3fp\libc.a(lib_a-callocr.o)
 .debug_abbrev  0x00007962      0x170 c:/program files (x86)/atmel/atmel studio 6.0/extensions/atmel/avrgcc/3.4.1.95/avrtoolchain/bin/../lib/gcc/avr32/4.4.3/../../../../avr32/lib/ucr3fp\libc.a(lib_a-closer.o)
 .debug_abbrev  0x00007ad2      0x150 c:/program files (x86)/atmel/atmel studio 6.0/extensions/atmel/avrgcc/3.4.1.95/avrtoolchain/bin/../lib/gcc/avr32/4.4.3/../../../../avr32/lib/ucr3fp\libc.a(lib_a-errno.o)
 .debug_abbrev  0x00007c22      0x1a1 c:/program files (x86)/atmel/atmel studio 6.0/extensions/atmel/avrgcc/3.4.1.95/avrtoolchain/bin/../lib/gcc/avr32/4.4.3/../../../../avr32/lib/ucr3fp\libc.a(lib_a-fclose.o)
 .debug_abbrev  0x00007dc3      0x17f c:/program files (x86)/atmel/atmel studio 6.0/extensions/atmel/avrgcc/3.4.1.95/avrtoolchain/bin/../lib/gcc/avr32/4.4.3/../../../../avr32/lib/ucr3fp\libc.a(lib_a-fstatr.o)
 .debug_abbrev  0x00007f42      0x17f c:/program files (x86)/atmel/atmel studio 6.0/extensions/atmel/avrgcc/3.4.1.95/avrtoolchain/bin/../lib/gcc/avr32/4.4.3/../../../../avr32/lib/ucr3fp\libc.a(lib_a-lseekr.o)
 .debug_abbrev  0x000080c1      0x170 c:/program files (x86)/atmel/atmel studio 6.0/extensions/atmel/avrgcc/3.4.1.95/avrtoolchain/bin/../lib/gcc/avr32/4.4.3/../../../../avr32/lib/ucr3fp\libc.a(lib_a-readr.o)
 .debug_abbrev  0x00008231      0x1e6 c:/program files (x86)/atmel/atmel studio 6.0/extensions/atmel/avrgcc/3.4.1.95/avrtoolchain/bin/../lib/gcc/avr32/4.4.3/../../../../avr32/lib/ucr3fp\libc.a(lib_a-reent.o)
 .debug_abbrev  0x00008417      0x151 c:/program files (x86)/atmel/atmel studio 6.0/extensions/atmel/avrgcc/3.4.1.95/avrtoolchain/bin/../lib/gcc/avr32/4.4.3/ucr3fp\libgcc.a(_udivdi3.o)
 .debug_abbrev  0x00008568      0x157 c:/program files (x86)/atmel/atmel studio 6.0/extensions/atmel/avrgcc/3.4.1.95/avrtoolchain/bin/../lib/gcc/avr32/4.4.3/ucr3fp\libgcc.a(_umoddi3.o)

.debug_line     0x00000000    0x1efb8
 *(.debug_line)
 .debug_line    0x00000000      0xbfe src/asf/avr32/components/memory/sd_mmc/sd_mmc_spi/sd_mmc_spi.o
 .debug_line    0x00000bfe      0x929 src/asf/avr32/components/memory/sd_mmc/sd_mmc_spi/sd_mmc_spi_mem.o
 .debug_line    0x00001527      0x8c1 src/asf/avr32/drivers/acifa/acifa.o
 .debug_line    0x00001de8      0x8c5 src/asf/avr32/drivers/ebi/sdramc/sdramc.o
 .debug_line    0x000026ad      0x8c8 src/asf/avr32/drivers/eic/eic.o
 .debug_line    0x00002f75      0xd01 src/asf/avr32/drivers/flashc/flashc.o
 .debug_line    0x00003c76      0xa44 src/asf/avr32/drivers/gpio/gpio.o
 .debug_line    0x000046ba      0x79b src/asf/avr32/drivers/intc/intc.o
 .debug_line    0x00004e55      0x806 src/asf/avr32/drivers/pm/pm_uc3c.o
 .debug_line    0x0000565b      0x87c src/asf/avr32/drivers/pm/power_clocks_lib.o
 .debug_line    0x00005ed7      0x9bf src/asf/avr32/drivers/pwm/pwm4.o
 .debug_line    0x00006896      0xaea src/asf/avr32/drivers/scif/scif_uc3c.o
 .debug_line    0x00007380      0x8db src/asf/avr32/drivers/spi/spi.o
 .debug_line    0x00007c5b      0x9bd src/asf/avr32/drivers/twim/twim.o
 .debug_line    0x00008618      0xa20 src/asf/avr32/drivers/usart/usart.o
 .debug_line    0x00009038      0xdb9 src/asf/avr32/services/fs/fat/fat.o
 .debug_line    0x00009df1      0xed4 src/asf/avr32/services/fs/fat/fat_unusual.o
 .debug_line    0x0000acc5      0xac1 src/asf/avr32/services/fs/fat/file.o
 .debug_line    0x0000b786      0xf4e src/asf/avr32/services/fs/fat/navigation.o
 .debug_line    0x0000c6d4      0x93b src/asf/avr32/utils/debug/print_funcs.o
 .debug_line    0x0000d00f      0xcf1 src/asf/common/boards/user_board/init.o
 .debug_line    0x0000dd00      0x994 src/asf/common/services/storage/ctrl_access/ctrl_access.o
 .debug_line    0x0000e694      0xaf9 src/asf/thirdparty/dlmalloc/dlmalloc.o
 .debug_line    0x0000f18d       0xaa src/asf/thirdparty/dlmalloc/dlsbrk.o
 .debug_line    0x0000f237      0xc95 src/CustomDevices/Bitmap.o
 .debug_line    0x0000fecc      0xe1e src/CustomDevices/ImageProcessor.o
 .debug_line    0x00010cea      0xf1c src/CustomDevices/MotorDriver.o
 .debug_line    0x00011c06     0x122e src/CustomDevices/OV7670.o
 .debug_line    0x00012e34      0xc9b src/CustomDevices/OV7670_Setup.o
 .debug_line    0x00013acf      0xcc4 src/CustomDevices/PCA9542A.o
 .debug_line    0x00014793      0xee8 src/CustomDevices/SD_Card.o
 .debug_line    0x0001567b      0xcaa src/CustomDevices/TWI.o
 .debug_line    0x00016325     0x101d src/main.o
 .debug_line    0x00017342      0x1fb c:/program files (x86)/atmel/atmel studio 6.0/extensions/atmel/avrgcc/3.4.1.95/avrtoolchain/bin/../lib/gcc/avr32/4.4.3/../../../../avr32/lib/ucr3fp\libc.a(lib_a-atoi.o)
 .debug_line    0x0001753d       0x78 c:/program files (x86)/atmel/atmel studio 6.0/extensions/atmel/avrgcc/3.4.1.95/avrtoolchain/bin/../lib/gcc/avr32/4.4.3/../../../../avr32/lib/ucr3fp\libc.a(lib_a-ctype_.o)
 .debug_line    0x000175b5      0x166 c:/program files (x86)/atmel/atmel studio 6.0/extensions/atmel/avrgcc/3.4.1.95/avrtoolchain/bin/../lib/gcc/avr32/4.4.3/../../../../avr32/lib/ucr3fp\libc.a(lib_a-impure.o)
 .debug_line    0x0001771b      0x182 c:/program files (x86)/atmel/atmel studio 6.0/extensions/atmel/avrgcc/3.4.1.95/avrtoolchain/bin/../lib/gcc/avr32/4.4.3/../../../../avr32/lib/ucr3fp\libc.a(lib_a-memcmp.o)
 .debug_line    0x0001789d      0x17c c:/program files (x86)/atmel/atmel studio 6.0/extensions/atmel/avrgcc/3.4.1.95/avrtoolchain/bin/../lib/gcc/avr32/4.4.3/../../../../avr32/lib/ucr3fp\libc.a(lib_a-memset.o)
 .debug_line    0x00017a19      0x262 c:/program files (x86)/atmel/atmel studio 6.0/extensions/atmel/avrgcc/3.4.1.95/avrtoolchain/bin/../lib/gcc/avr32/4.4.3/../../../../avr32/lib/ucr3fp\libc.a(lib_a-sprintf.o)
 .debug_line    0x00017c7b      0x31c c:/program files (x86)/atmel/atmel studio 6.0/extensions/atmel/avrgcc/3.4.1.95/avrtoolchain/bin/../lib/gcc/avr32/4.4.3/../../../../avr32/lib/ucr3fp\libc.a(lib_a-strtol.o)
 .debug_line    0x00017f97      0xc23 c:/program files (x86)/atmel/atmel studio 6.0/extensions/atmel/avrgcc/3.4.1.95/avrtoolchain/bin/../lib/gcc/avr32/4.4.3/../../../../avr32/lib/ucr3fp\libc.a(lib_a-vfprintf.o)
 .debug_line    0x00018bba      0x249 c:/program files (x86)/atmel/atmel studio 6.0/extensions/atmel/avrgcc/3.4.1.95/avrtoolchain/bin/../lib/gcc/avr32/4.4.3/../../../../avr32/lib/ucr3fp\libc.a(lib_a-wsetup.o)
 .debug_line    0x00018e03      0xb95 c:/program files (x86)/atmel/atmel studio 6.0/extensions/atmel/avrgcc/3.4.1.95/avrtoolchain/bin/../lib/gcc/avr32/4.4.3/../../../../avr32/lib/ucr3fp\libc.a(lib_a-dtoa.o)
 .debug_line    0x00019998      0x2fd c:/program files (x86)/atmel/atmel studio 6.0/extensions/atmel/avrgcc/3.4.1.95/avrtoolchain/bin/../lib/gcc/avr32/4.4.3/../../../../avr32/lib/ucr3fp\libc.a(lib_a-fflush.o)
 .debug_line    0x00019c95      0x555 c:/program files (x86)/atmel/atmel studio 6.0/extensions/atmel/avrgcc/3.4.1.95/avrtoolchain/bin/../lib/gcc/avr32/4.4.3/../../../../avr32/lib/ucr3fp\libc.a(lib_a-findfp.o)
 .debug_line    0x0001a1ea      0x30a c:/program files (x86)/atmel/atmel studio 6.0/extensions/atmel/avrgcc/3.4.1.95/avrtoolchain/bin/../lib/gcc/avr32/4.4.3/../../../../avr32/lib/ucr3fp\libc.a(lib_a-freer.o)
 .debug_line    0x0001a4f4      0x42b c:/program files (x86)/atmel/atmel studio 6.0/extensions/atmel/avrgcc/3.4.1.95/avrtoolchain/bin/../lib/gcc/avr32/4.4.3/../../../../avr32/lib/ucr3fp\libc.a(lib_a-fvwrite.o)
 .debug_line    0x0001a91f      0x2a2 c:/program files (x86)/atmel/atmel studio 6.0/extensions/atmel/avrgcc/3.4.1.95/avrtoolchain/bin/../lib/gcc/avr32/4.4.3/../../../../avr32/lib/ucr3fp\libc.a(lib_a-fwalk.o)
 .debug_line    0x0001abc1      0x267 c:/program files (x86)/atmel/atmel studio 6.0/extensions/atmel/avrgcc/3.4.1.95/avrtoolchain/bin/../lib/gcc/avr32/4.4.3/../../../../avr32/lib/ucr3fp\libc.a(lib_a-locale.o)
 .debug_line    0x0001ae28      0x2b3 c:/program files (x86)/atmel/atmel studio 6.0/extensions/atmel/avrgcc/3.4.1.95/avrtoolchain/bin/../lib/gcc/avr32/4.4.3/../../../../avr32/lib/ucr3fp\libc.a(lib_a-makebuf.o)
 .debug_line    0x0001b0db      0x52f c:/program files (x86)/atmel/atmel studio 6.0/extensions/atmel/avrgcc/3.4.1.95/avrtoolchain/bin/../lib/gcc/avr32/4.4.3/../../../../avr32/lib/ucr3fp\libc.a(lib_a-mallocr.o)
 .debug_line    0x0001b60a      0x17d c:/program files (x86)/atmel/atmel studio 6.0/extensions/atmel/avrgcc/3.4.1.95/avrtoolchain/bin/../lib/gcc/avr32/4.4.3/../../../../avr32/lib/ucr3fp\libc.a(lib_a-memchr.o)
 .debug_line    0x0001b787      0x190 c:/program files (x86)/atmel/atmel studio 6.0/extensions/atmel/avrgcc/3.4.1.95/avrtoolchain/bin/../lib/gcc/avr32/4.4.3/../../../../avr32/lib/ucr3fp\libc.a(lib_a-memmove.o)
 .debug_line    0x0001b917      0x192 c:/program files (x86)/atmel/atmel studio 6.0/extensions/atmel/avrgcc/3.4.1.95/avrtoolchain/bin/../lib/gcc/avr32/4.4.3/../../../../avr32/lib/ucr3fp\libc.a(lib_a-mlock.o)
 .debug_line    0x0001baa9      0xd0b c:/program files (x86)/atmel/atmel studio 6.0/extensions/atmel/avrgcc/3.4.1.95/avrtoolchain/bin/../lib/gcc/avr32/4.4.3/../../../../avr32/lib/ucr3fp\libc.a(lib_a-mprec.o)
 .debug_line    0x0001c7b4      0x347 c:/program files (x86)/atmel/atmel studio 6.0/extensions/atmel/avrgcc/3.4.1.95/avrtoolchain/bin/../lib/gcc/avr32/4.4.3/../../../../avr32/lib/ucr3fp\libc.a(lib_a-reallocr.o)
 .debug_line    0x0001cafb      0x200 c:/program files (x86)/atmel/atmel studio 6.0/extensions/atmel/avrgcc/3.4.1.95/avrtoolchain/bin/../lib/gcc/avr32/4.4.3/../../../../avr32/lib/ucr3fp\libc.a(lib_a-sbrkr.o)
 .debug_line    0x0001ccfb      0x17a c:/program files (x86)/atmel/atmel studio 6.0/extensions/atmel/avrgcc/3.4.1.95/avrtoolchain/bin/../lib/gcc/avr32/4.4.3/../../../../avr32/lib/ucr3fp\libc.a(lib_a-s_isinfd.o)
 .debug_line    0x0001ce75      0x16f c:/program files (x86)/atmel/atmel studio 6.0/extensions/atmel/avrgcc/3.4.1.95/avrtoolchain/bin/../lib/gcc/avr32/4.4.3/../../../../avr32/lib/ucr3fp\libc.a(lib_a-s_isnand.o)
 .debug_line    0x0001cfe4      0x299 c:/program files (x86)/atmel/atmel studio 6.0/extensions/atmel/avrgcc/3.4.1.95/avrtoolchain/bin/../lib/gcc/avr32/4.4.3/../../../../avr32/lib/ucr3fp\libc.a(lib_a-stdio.o)
 .debug_line    0x0001d27d      0x182 c:/program files (x86)/atmel/atmel studio 6.0/extensions/atmel/avrgcc/3.4.1.95/avrtoolchain/bin/../lib/gcc/avr32/4.4.3/../../../../avr32/lib/ucr3fp\libc.a(lib_a-strlen.o)
 .debug_line    0x0001d3ff      0x562 c:/program files (x86)/atmel/atmel studio 6.0/extensions/atmel/avrgcc/3.4.1.95/avrtoolchain/bin/../lib/gcc/avr32/4.4.3/../../../../avr32/lib/ucr3fp\libc.a(lib_a-syscalls.o)
 .debug_line    0x0001d961      0x20d c:/program files (x86)/atmel/atmel studio 6.0/extensions/atmel/avrgcc/3.4.1.95/avrtoolchain/bin/../lib/gcc/avr32/4.4.3/../../../../avr32/lib/ucr3fp\libc.a(lib_a-writer.o)
 .debug_line    0x0001db6e      0x191 c:/program files (x86)/atmel/atmel studio 6.0/extensions/atmel/avrgcc/3.4.1.95/avrtoolchain/bin/../lib/gcc/avr32/4.4.3/../../../../avr32/lib/ucr3fp\libc.a(lib_a-callocr.o)
 .debug_line    0x0001dcff      0x201 c:/program files (x86)/atmel/atmel studio 6.0/extensions/atmel/avrgcc/3.4.1.95/avrtoolchain/bin/../lib/gcc/avr32/4.4.3/../../../../avr32/lib/ucr3fp\libc.a(lib_a-closer.o)
 .debug_line    0x0001df00      0x18c c:/program files (x86)/atmel/atmel studio 6.0/extensions/atmel/avrgcc/3.4.1.95/avrtoolchain/bin/../lib/gcc/avr32/4.4.3/../../../../avr32/lib/ucr3fp\libc.a(lib_a-errno.o)
 .debug_line    0x0001e08c      0x267 c:/program files (x86)/atmel/atmel studio 6.0/extensions/atmel/avrgcc/3.4.1.95/avrtoolchain/bin/../lib/gcc/avr32/4.4.3/../../../../avr32/lib/ucr3fp\libc.a(lib_a-fclose.o)
 .debug_line    0x0001e2f3      0x216 c:/program files (x86)/atmel/atmel studio 6.0/extensions/atmel/avrgcc/3.4.1.95/avrtoolchain/bin/../lib/gcc/avr32/4.4.3/../../../../avr32/lib/ucr3fp\libc.a(lib_a-fstatr.o)
 .debug_line    0x0001e509      0x20d c:/program files (x86)/atmel/atmel studio 6.0/extensions/atmel/avrgcc/3.4.1.95/avrtoolchain/bin/../lib/gcc/avr32/4.4.3/../../../../avr32/lib/ucr3fp\libc.a(lib_a-lseekr.o)
 .debug_line    0x0001e716      0x20c c:/program files (x86)/atmel/atmel studio 6.0/extensions/atmel/avrgcc/3.4.1.95/avrtoolchain/bin/../lib/gcc/avr32/4.4.3/../../../../avr32/lib/ucr3fp\libc.a(lib_a-readr.o)
 .debug_line    0x0001e922      0x2aa c:/program files (x86)/atmel/atmel studio 6.0/extensions/atmel/avrgcc/3.4.1.95/avrtoolchain/bin/../lib/gcc/avr32/4.4.3/../../../../avr32/lib/ucr3fp\libc.a(lib_a-reent.o)
 .debug_line    0x0001ebcc      0x1e5 c:/program files (x86)/atmel/atmel studio 6.0/extensions/atmel/avrgcc/3.4.1.95/avrtoolchain/bin/../lib/gcc/avr32/4.4.3/ucr3fp\libgcc.a(_udivdi3.o)
 .debug_line    0x0001edb1      0x207 c:/program files (x86)/atmel/atmel studio 6.0/extensions/atmel/avrgcc/3.4.1.95/avrtoolchain/bin/../lib/gcc/avr32/4.4.3/ucr3fp\libgcc.a(_umoddi3.o)

.debug_frame    0x00000000     0x4ffc
 *(.debug_frame)
 .debug_frame   0x00000000      0x364 src/asf/avr32/components/memory/sd_mmc/sd_mmc_spi/sd_mmc_spi.o
 .debug_frame   0x00000364       0xb4 src/asf/avr32/components/memory/sd_mmc/sd_mmc_spi/sd_mmc_spi_mem.o
 .debug_frame   0x00000418      0x14c src/asf/avr32/drivers/acifa/acifa.o
 .debug_frame   0x00000564       0x70 src/asf/avr32/drivers/ebi/sdramc/sdramc.o
 .debug_frame   0x000005d4      0x100 src/asf/avr32/drivers/eic/eic.o
 .debug_frame   0x000006d4      0x6c0 src/asf/avr32/drivers/flashc/flashc.o
 .debug_frame   0x00000d94      0x244 src/asf/avr32/drivers/gpio/gpio.o
 .debug_frame   0x00000fd8       0x64 src/asf/avr32/drivers/intc/intc.o
 .debug_frame   0x0000103c       0x90 src/asf/avr32/drivers/pm/pm_uc3c.o
 .debug_frame   0x000010cc       0xa4 src/asf/avr32/drivers/pm/power_clocks_lib.o
 .debug_frame   0x00001170      0x1ec src/asf/avr32/drivers/pwm/pwm4.o
 .debug_frame   0x0000135c      0x308 src/asf/avr32/drivers/scif/scif_uc3c.o
 .debug_frame   0x00001664      0x168 src/asf/avr32/drivers/spi/spi.o
 .debug_frame   0x000017cc      0x148 src/asf/avr32/drivers/twim/twim.o
 .debug_frame   0x00001914      0x2ac src/asf/avr32/drivers/usart/usart.o
 .debug_frame   0x00001bc0      0x434 src/asf/avr32/services/fs/fat/fat.o
 .debug_frame   0x00001ff4      0x4fc src/asf/avr32/services/fs/fat/fat_unusual.o
 .debug_frame   0x000024f0      0x1d8 src/asf/avr32/services/fs/fat/file.o
 .debug_frame   0x000026c8      0x714 src/asf/avr32/services/fs/fat/navigation.o
 .debug_frame   0x00002ddc      0x17c src/asf/avr32/utils/debug/print_funcs.o
 .debug_frame   0x00002f58       0x5c src/asf/common/boards/user_board/init.o
 .debug_frame   0x00002fb4      0x128 src/asf/common/services/storage/ctrl_access/ctrl_access.o
 .debug_frame   0x000030dc      0x584 src/asf/thirdparty/dlmalloc/dlmalloc.o
 .debug_frame   0x00003660       0x40 src/asf/thirdparty/dlmalloc/dlsbrk.o
 .debug_frame   0x000036a0      0x16c src/CustomDevices/ImageProcessor.o
 .debug_frame   0x0000380c      0x114 src/CustomDevices/MotorDriver.o
 .debug_frame   0x00003920      0x188 src/CustomDevices/OV7670.o
 .debug_frame   0x00003aa8       0x48 src/CustomDevices/PCA9542A.o
 .debug_frame   0x00003af0      0x254 src/CustomDevices/SD_Card.o
 .debug_frame   0x00003d44       0x2c src/CustomDevices/TWI.o
 .debug_frame   0x00003d70      0x170 src/main.o
 .debug_frame   0x00003ee0       0x40 c:/program files (x86)/atmel/atmel studio 6.0/extensions/atmel/avrgcc/3.4.1.95/avrtoolchain/bin/../lib/gcc/avr32/4.4.3/../../../../avr32/lib/ucr3fp\libc.a(lib_a-atoi.o)
 .debug_frame   0x00003f20       0x28 c:/program files (x86)/atmel/atmel studio 6.0/extensions/atmel/avrgcc/3.4.1.95/avrtoolchain/bin/../lib/gcc/avr32/4.4.3/../../../../avr32/lib/ucr3fp\libc.a(lib_a-memcmp.o)
 .debug_frame   0x00003f48       0x20 c:/program files (x86)/atmel/atmel studio 6.0/extensions/atmel/avrgcc/3.4.1.95/avrtoolchain/bin/../lib/gcc/avr32/4.4.3/../../../../avr32/lib/ucr3fp\libc.a(lib_a-memset.o)
 .debug_frame   0x00003f68       0x48 c:/program files (x86)/atmel/atmel studio 6.0/extensions/atmel/avrgcc/3.4.1.95/avrtoolchain/bin/../lib/gcc/avr32/4.4.3/../../../../avr32/lib/ucr3fp\libc.a(lib_a-sprintf.o)
 .debug_frame   0x00003fb0       0x5c c:/program files (x86)/atmel/atmel studio 6.0/extensions/atmel/avrgcc/3.4.1.95/avrtoolchain/bin/../lib/gcc/avr32/4.4.3/../../../../avr32/lib/ucr3fp\libc.a(lib_a-strtol.o)
 .debug_frame   0x0000400c      0x258 c:/program files (x86)/atmel/atmel studio 6.0/extensions/atmel/avrgcc/3.4.1.95/avrtoolchain/bin/../lib/gcc/avr32/4.4.3/../../../../avr32/lib/ucr3fp\libc.a(lib_a-vfprintf.o)
 .debug_frame   0x00004264       0x34 c:/program files (x86)/atmel/atmel studio 6.0/extensions/atmel/avrgcc/3.4.1.95/avrtoolchain/bin/../lib/gcc/avr32/4.4.3/../../../../avr32/lib/ucr3fp\libc.a(lib_a-wsetup.o)
 .debug_frame   0x00004298       0x78 c:/program files (x86)/atmel/atmel studio 6.0/extensions/atmel/avrgcc/3.4.1.95/avrtoolchain/bin/../lib/gcc/avr32/4.4.3/../../../../avr32/lib/ucr3fp\libc.a(lib_a-dtoa.o)
 .debug_frame   0x00004310       0x4c c:/program files (x86)/atmel/atmel studio 6.0/extensions/atmel/avrgcc/3.4.1.95/avrtoolchain/bin/../lib/gcc/avr32/4.4.3/../../../../avr32/lib/ucr3fp\libc.a(lib_a-fflush.o)
 .debug_frame   0x0000435c      0x13c c:/program files (x86)/atmel/atmel studio 6.0/extensions/atmel/avrgcc/3.4.1.95/avrtoolchain/bin/../lib/gcc/avr32/4.4.3/../../../../avr32/lib/ucr3fp\libc.a(lib_a-findfp.o)
 .debug_frame   0x00004498       0x58 c:/program files (x86)/atmel/atmel studio 6.0/extensions/atmel/avrgcc/3.4.1.95/avrtoolchain/bin/../lib/gcc/avr32/4.4.3/../../../../avr32/lib/ucr3fp\libc.a(lib_a-freer.o)
 .debug_frame   0x000044f0       0x44 c:/program files (x86)/atmel/atmel studio 6.0/extensions/atmel/avrgcc/3.4.1.95/avrtoolchain/bin/../lib/gcc/avr32/4.4.3/../../../../avr32/lib/ucr3fp\libc.a(lib_a-fvwrite.o)
 .debug_frame   0x00004534       0x70 c:/program files (x86)/atmel/atmel studio 6.0/extensions/atmel/avrgcc/3.4.1.95/avrtoolchain/bin/../lib/gcc/avr32/4.4.3/../../../../avr32/lib/ucr3fp\libc.a(lib_a-fwalk.o)
 .debug_frame   0x000045a4       0x7c c:/program files (x86)/atmel/atmel studio 6.0/extensions/atmel/avrgcc/3.4.1.95/avrtoolchain/bin/../lib/gcc/avr32/4.4.3/../../../../avr32/lib/ucr3fp\libc.a(lib_a-locale.o)
 .debug_frame   0x00004620       0x38 c:/program files (x86)/atmel/atmel studio 6.0/extensions/atmel/avrgcc/3.4.1.95/avrtoolchain/bin/../lib/gcc/avr32/4.4.3/../../../../avr32/lib/ucr3fp\libc.a(lib_a-makebuf.o)
 .debug_frame   0x00004658       0x40 c:/program files (x86)/atmel/atmel studio 6.0/extensions/atmel/avrgcc/3.4.1.95/avrtoolchain/bin/../lib/gcc/avr32/4.4.3/../../../../avr32/lib/ucr3fp\libc.a(lib_a-mallocr.o)
 .debug_frame   0x00004698       0x20 c:/program files (x86)/atmel/atmel studio 6.0/extensions/atmel/avrgcc/3.4.1.95/avrtoolchain/bin/../lib/gcc/avr32/4.4.3/../../../../avr32/lib/ucr3fp\libc.a(lib_a-memchr.o)
 .debug_frame   0x000046b8       0x28 c:/program files (x86)/atmel/atmel studio 6.0/extensions/atmel/avrgcc/3.4.1.95/avrtoolchain/bin/../lib/gcc/avr32/4.4.3/../../../../avr32/lib/ucr3fp\libc.a(lib_a-memmove.o)
 .debug_frame   0x000046e0       0x30 c:/program files (x86)/atmel/atmel studio 6.0/extensions/atmel/avrgcc/3.4.1.95/avrtoolchain/bin/../lib/gcc/avr32/4.4.3/../../../../avr32/lib/ucr3fp\libc.a(lib_a-mlock.o)
 .debug_frame   0x00004710      0x2b4 c:/program files (x86)/atmel/atmel studio 6.0/extensions/atmel/avrgcc/3.4.1.95/avrtoolchain/bin/../lib/gcc/avr32/4.4.3/../../../../avr32/lib/ucr3fp\libc.a(lib_a-mprec.o)
 .debug_frame   0x000049c4       0x44 c:/program files (x86)/atmel/atmel studio 6.0/extensions/atmel/avrgcc/3.4.1.95/avrtoolchain/bin/../lib/gcc/avr32/4.4.3/../../../../avr32/lib/ucr3fp\libc.a(lib_a-reallocr.o)
 .debug_frame   0x00004a08       0x34 c:/program files (x86)/atmel/atmel studio 6.0/extensions/atmel/avrgcc/3.4.1.95/avrtoolchain/bin/../lib/gcc/avr32/4.4.3/../../../../avr32/lib/ucr3fp\libc.a(lib_a-sbrkr.o)
 .debug_frame   0x00004a3c       0x20 c:/program files (x86)/atmel/atmel studio 6.0/extensions/atmel/avrgcc/3.4.1.95/avrtoolchain/bin/../lib/gcc/avr32/4.4.3/../../../../avr32/lib/ucr3fp\libc.a(lib_a-s_isinfd.o)
 .debug_frame   0x00004a5c       0x20 c:/program files (x86)/atmel/atmel studio 6.0/extensions/atmel/avrgcc/3.4.1.95/avrtoolchain/bin/../lib/gcc/avr32/4.4.3/../../../../avr32/lib/ucr3fp\libc.a(lib_a-s_isnand.o)
 .debug_frame   0x00004a7c       0x94 c:/program files (x86)/atmel/atmel studio 6.0/extensions/atmel/avrgcc/3.4.1.95/avrtoolchain/bin/../lib/gcc/avr32/4.4.3/../../../../avr32/lib/ucr3fp\libc.a(lib_a-stdio.o)
 .debug_frame   0x00004b10       0x20 c:/program files (x86)/atmel/atmel studio 6.0/extensions/atmel/avrgcc/3.4.1.95/avrtoolchain/bin/../lib/gcc/avr32/4.4.3/../../../../avr32/lib/ucr3fp\libc.a(lib_a-strlen.o)
 .debug_frame   0x00004b30      0x220 c:/program files (x86)/atmel/atmel studio 6.0/extensions/atmel/avrgcc/3.4.1.95/avrtoolchain/bin/../lib/gcc/avr32/4.4.3/../../../../avr32/lib/ucr3fp\libc.a(lib_a-syscalls.o)
 .debug_frame   0x00004d50       0x34 c:/program files (x86)/atmel/atmel studio 6.0/extensions/atmel/avrgcc/3.4.1.95/avrtoolchain/bin/../lib/gcc/avr32/4.4.3/../../../../avr32/lib/ucr3fp\libc.a(lib_a-writer.o)
 .debug_frame   0x00004d84       0x34 c:/program files (x86)/atmel/atmel studio 6.0/extensions/atmel/avrgcc/3.4.1.95/avrtoolchain/bin/../lib/gcc/avr32/4.4.3/../../../../avr32/lib/ucr3fp\libc.a(lib_a-callocr.o)
 .debug_frame   0x00004db8       0x34 c:/program files (x86)/atmel/atmel studio 6.0/extensions/atmel/avrgcc/3.4.1.95/avrtoolchain/bin/../lib/gcc/avr32/4.4.3/../../../../avr32/lib/ucr3fp\libc.a(lib_a-closer.o)
 .debug_frame   0x00004dec       0x20 c:/program files (x86)/atmel/atmel studio 6.0/extensions/atmel/avrgcc/3.4.1.95/avrtoolchain/bin/../lib/gcc/avr32/4.4.3/../../../../avr32/lib/ucr3fp\libc.a(lib_a-errno.o)
 .debug_frame   0x00004e0c       0x4c c:/program files (x86)/atmel/atmel studio 6.0/extensions/atmel/avrgcc/3.4.1.95/avrtoolchain/bin/../lib/gcc/avr32/4.4.3/../../../../avr32/lib/ucr3fp\libc.a(lib_a-fclose.o)
 .debug_frame   0x00004e58       0x34 c:/program files (x86)/atmel/atmel studio 6.0/extensions/atmel/avrgcc/3.4.1.95/avrtoolchain/bin/../lib/gcc/avr32/4.4.3/../../../../avr32/lib/ucr3fp\libc.a(lib_a-fstatr.o)
 .debug_frame   0x00004e8c       0x34 c:/program files (x86)/atmel/atmel studio 6.0/extensions/atmel/avrgcc/3.4.1.95/avrtoolchain/bin/../lib/gcc/avr32/4.4.3/../../../../avr32/lib/ucr3fp\libc.a(lib_a-lseekr.o)
 .debug_frame   0x00004ec0       0x34 c:/program files (x86)/atmel/atmel studio 6.0/extensions/atmel/avrgcc/3.4.1.95/avrtoolchain/bin/../lib/gcc/avr32/4.4.3/../../../../avr32/lib/ucr3fp\libc.a(lib_a-readr.o)
 .debug_frame   0x00004ef4       0x80 c:/program files (x86)/atmel/atmel studio 6.0/extensions/atmel/avrgcc/3.4.1.95/avrtoolchain/bin/../lib/gcc/avr32/4.4.3/../../../../avr32/lib/ucr3fp\libc.a(lib_a-reent.o)
 .debug_frame   0x00004f74       0x44 c:/program files (x86)/atmel/atmel studio 6.0/extensions/atmel/avrgcc/3.4.1.95/avrtoolchain/bin/../lib/gcc/avr32/4.4.3/ucr3fp\libgcc.a(_udivdi3.o)
 .debug_frame   0x00004fb8       0x44 c:/program files (x86)/atmel/atmel studio 6.0/extensions/atmel/avrgcc/3.4.1.95/avrtoolchain/bin/../lib/gcc/avr32/4.4.3/ucr3fp\libgcc.a(_umoddi3.o)

.debug_str      0x00000000     0xa55e
 *(.debug_str)
 .debug_str     0x00000000      0x803 src/asf/avr32/components/memory/sd_mmc/sd_mmc_spi/sd_mmc_spi.o
                                0x8c9 (size before relaxing)
 .debug_str     0x00000803      0x150 src/asf/avr32/components/memory/sd_mmc/sd_mmc_spi/sd_mmc_spi_mem.o
                                0x285 (size before relaxing)
 .debug_str     0x00000953      0x50b src/asf/avr32/drivers/acifa/acifa.o
                                0x61a (size before relaxing)
 .debug_str     0x00000e5e      0x38d src/asf/avr32/drivers/ebi/sdramc/sdramc.o
                                0x4b5 (size before relaxing)
 .debug_str     0x000011eb      0x35d src/asf/avr32/drivers/eic/eic.o
                                0x4a0 (size before relaxing)
 .debug_str     0x00001548      0xaae src/asf/avr32/drivers/flashc/flashc.o
                                0xc8e (size before relaxing)
 .debug_str     0x00001ff6      0x580 src/asf/avr32/drivers/gpio/gpio.o
                                0x6d5 (size before relaxing)
 .debug_str     0x00002576      0x656 src/asf/avr32/drivers/intc/intc.o
                                0x755 (size before relaxing)
 .debug_str     0x00002bcc      0x61c src/asf/avr32/drivers/pm/pm_uc3c.o
                                0x794 (size before relaxing)
 .debug_str     0x000031e8      0x370 src/asf/avr32/drivers/pm/power_clocks_lib.o
                                0x630 (size before relaxing)
 .debug_str     0x00003558      0xce8 src/asf/avr32/drivers/pwm/pwm4.o
                                0xec2 (size before relaxing)
 .debug_str     0x00004240      0x8db src/asf/avr32/drivers/scif/scif_uc3c.o
                                0xc42 (size before relaxing)
 .debug_str     0x00004b1b      0x194 src/asf/avr32/drivers/spi/spi.o
                                0x653 (size before relaxing)
 .debug_str     0x00004caf      0x501 src/asf/avr32/drivers/twim/twim.o
                                0x6e4 (size before relaxing)
 .debug_str     0x000051b0      0x8ee src/asf/avr32/drivers/usart/usart.o
                                0xae1 (size before relaxing)
 .debug_str     0x00005a9e      0x903 src/asf/avr32/services/fs/fat/fat.o
                                0xab4 (size before relaxing)
 .debug_str     0x000063a1      0x6a2 src/asf/avr32/services/fs/fat/fat_unusual.o
                                0xae0 (size before relaxing)
 .debug_str     0x00006a43      0x1c8 src/asf/avr32/services/fs/fat/file.o
                                0x520 (size before relaxing)
 .debug_str     0x00006c0b      0x78b src/asf/avr32/services/fs/fat/navigation.o
                                0xbbf (size before relaxing)
 .debug_str     0x00007396      0x11a src/asf/avr32/utils/debug/print_funcs.o
                                0x820 (size before relaxing)
 .debug_str     0x000074b0      0x1cb src/asf/common/boards/user_board/init.o
                                0x57b (size before relaxing)
 .debug_str     0x0000767b      0x12e src/asf/common/services/storage/ctrl_access/ctrl_access.o
                                0x2db (size before relaxing)
 .debug_str     0x000077a9      0x943 src/asf/thirdparty/dlmalloc/dlmalloc.o
                                0xc05 (size before relaxing)
 .debug_str     0x000080ec       0x6b src/asf/thirdparty/dlmalloc/dlsbrk.o
                                 0xe3 (size before relaxing)
 .debug_str     0x00008157       0x1e src/CustomDevices/Bitmap.o
                                0x432 (size before relaxing)
 .debug_str     0x00008175      0x14d src/CustomDevices/ImageProcessor.o
                                0x584 (size before relaxing)
 .debug_str     0x000082c2      0x233 src/CustomDevices/MotorDriver.o
                                0xb0b (size before relaxing)
 .debug_str     0x000084f5      0x10a src/CustomDevices/OV7670.o
                                0xd63 (size before relaxing)
 .debug_str     0x000085ff       0x24 src/CustomDevices/OV7670_Setup.o
                                0x448 (size before relaxing)
 .debug_str     0x00008623       0x48 src/CustomDevices/PCA9542A.o
                                0x746 (size before relaxing)
 .debug_str     0x0000866b      0x2d9 src/CustomDevices/SD_Card.o
                                0xb7a (size before relaxing)
 .debug_str     0x00008944       0x40 src/CustomDevices/TWI.o
                                0x6a0 (size before relaxing)
 .debug_str     0x00008984       0xc8 src/main.o
                                0xcfd (size before relaxing)
 .debug_str     0x00008a4c       0x63 c:/program files (x86)/atmel/atmel studio 6.0/extensions/atmel/avrgcc/3.4.1.95/avrtoolchain/bin/../lib/gcc/avr32/4.4.3/../../../../avr32/lib/ucr3fp\libc.a(lib_a-atoi.o)
                                0x48e (size before relaxing)
 .debug_str     0x00008aaf       0x5f c:/program files (x86)/atmel/atmel studio 6.0/extensions/atmel/avrgcc/3.4.1.95/avrtoolchain/bin/../lib/gcc/avr32/4.4.3/../../../../avr32/lib/ucr3fp\libc.a(lib_a-ctype_.o)
                                 0x7c (size before relaxing)
 .debug_str     0x00008b0e       0xb5 c:/program files (x86)/atmel/atmel studio 6.0/extensions/atmel/avrgcc/3.4.1.95/avrtoolchain/bin/../lib/gcc/avr32/4.4.3/../../../../avr32/lib/ucr3fp\libc.a(lib_a-impure.o)
                                0x4ec (size before relaxing)
 .debug_str     0x00008bc3       0x5f c:/program files (x86)/atmel/atmel studio 6.0/extensions/atmel/avrgcc/3.4.1.95/avrtoolchain/bin/../lib/gcc/avr32/4.4.3/../../../../avr32/lib/ucr3fp\libc.a(lib_a-memcmp.o)
                                 0xfb (size before relaxing)
 .debug_str     0x00008c22       0x5f c:/program files (x86)/atmel/atmel studio 6.0/extensions/atmel/avrgcc/3.4.1.95/avrtoolchain/bin/../lib/gcc/avr32/4.4.3/../../../../avr32/lib/ucr3fp\libc.a(lib_a-memset.o)
                                 0xfb (size before relaxing)
 .debug_str     0x00008c81       0x8c c:/program files (x86)/atmel/atmel studio 6.0/extensions/atmel/avrgcc/3.4.1.95/avrtoolchain/bin/../lib/gcc/avr32/4.4.3/../../../../avr32/lib/ucr3fp\libc.a(lib_a-sprintf.o)
                                0x4d0 (size before relaxing)
 .debug_str     0x00008d0d       0x83 c:/program files (x86)/atmel/atmel studio 6.0/extensions/atmel/avrgcc/3.4.1.95/avrtoolchain/bin/../lib/gcc/avr32/4.4.3/../../../../avr32/lib/ucr3fp\libc.a(lib_a-strtol.o)
                                0x4d0 (size before relaxing)
 .debug_str     0x00008d90      0x3cb c:/program files (x86)/atmel/atmel studio 6.0/extensions/atmel/avrgcc/3.4.1.95/avrtoolchain/bin/../lib/gcc/avr32/4.4.3/../../../../avr32/lib/ucr3fp\libc.a(lib_a-vfprintf.o)
                                0x983 (size before relaxing)
 .debug_str     0x0000915b       0x63 c:/program files (x86)/atmel/atmel studio 6.0/extensions/atmel/avrgcc/3.4.1.95/avrtoolchain/bin/../lib/gcc/avr32/4.4.3/../../../../avr32/lib/ucr3fp\libc.a(lib_a-wsetup.o)
                                0x4de (size before relaxing)
 .debug_str     0x000091be      0x11f c:/program files (x86)/atmel/atmel studio 6.0/extensions/atmel/avrgcc/3.4.1.95/avrtoolchain/bin/../lib/gcc/avr32/4.4.3/../../../../avr32/lib/ucr3fp\libc.a(lib_a-dtoa.o)
                                0x593 (size before relaxing)
 .debug_str     0x000092dd       0x6f c:/program files (x86)/atmel/atmel studio 6.0/extensions/atmel/avrgcc/3.4.1.95/avrtoolchain/bin/../lib/gcc/avr32/4.4.3/../../../../avr32/lib/ucr3fp\libc.a(lib_a-fflush.o)
                                0x504 (size before relaxing)
 .debug_str     0x0000934c      0x119 c:/program files (x86)/atmel/atmel studio 6.0/extensions/atmel/avrgcc/3.4.1.95/avrtoolchain/bin/../lib/gcc/avr32/4.4.3/../../../../avr32/lib/ucr3fp\libc.a(lib_a-findfp.o)
                                0x5c6 (size before relaxing)
 .debug_str     0x00009465      0x116 c:/program files (x86)/atmel/atmel studio 6.0/extensions/atmel/avrgcc/3.4.1.95/avrtoolchain/bin/../lib/gcc/avr32/4.4.3/../../../../avr32/lib/ucr3fp\libc.a(lib_a-freer.o)
                                0x5d5 (size before relaxing)
 .debug_str     0x0000957b       0x7b c:/program files (x86)/atmel/atmel studio 6.0/extensions/atmel/avrgcc/3.4.1.95/avrtoolchain/bin/../lib/gcc/avr32/4.4.3/../../../../avr32/lib/ucr3fp\libc.a(lib_a-fvwrite.o)
                                0x4f6 (size before relaxing)
 .debug_str     0x000095f6       0x7b c:/program files (x86)/atmel/atmel studio 6.0/extensions/atmel/avrgcc/3.4.1.95/avrtoolchain/bin/../lib/gcc/avr32/4.4.3/../../../../avr32/lib/ucr3fp\libc.a(lib_a-fwalk.o)
                                0x4c8 (size before relaxing)
 .debug_str     0x00009671      0x1b6 c:/program files (x86)/atmel/atmel studio 6.0/extensions/atmel/avrgcc/3.4.1.95/avrtoolchain/bin/../lib/gcc/avr32/4.4.3/../../../../avr32/lib/ucr3fp\libc.a(lib_a-locale.o)
                                0x63b (size before relaxing)
 .debug_str     0x00009827      0x139 c:/program files (x86)/atmel/atmel studio 6.0/extensions/atmel/avrgcc/3.4.1.95/avrtoolchain/bin/../lib/gcc/avr32/4.4.3/../../../../avr32/lib/ucr3fp\libc.a(lib_a-makebuf.o)
                                0x599 (size before relaxing)
 .debug_str     0x00009960       0xc0 c:/program files (x86)/atmel/atmel studio 6.0/extensions/atmel/avrgcc/3.4.1.95/avrtoolchain/bin/../lib/gcc/avr32/4.4.3/../../../../avr32/lib/ucr3fp\libc.a(lib_a-mallocr.o)
                                0x683 (size before relaxing)
 .debug_str     0x00009a20       0x68 c:/program files (x86)/atmel/atmel studio 6.0/extensions/atmel/avrgcc/3.4.1.95/avrtoolchain/bin/../lib/gcc/avr32/4.4.3/../../../../avr32/lib/ucr3fp\libc.a(lib_a-memchr.o)
                                0x10b (size before relaxing)
 .debug_str     0x00009a88       0x6a c:/program files (x86)/atmel/atmel studio 6.0/extensions/atmel/avrgcc/3.4.1.95/avrtoolchain/bin/../lib/gcc/avr32/4.4.3/../../../../avr32/lib/ucr3fp\libc.a(lib_a-memmove.o)
                                0x116 (size before relaxing)
 .debug_str     0x00009af2       0x8a c:/program files (x86)/atmel/atmel studio 6.0/extensions/atmel/avrgcc/3.4.1.95/avrtoolchain/bin/../lib/gcc/avr32/4.4.3/../../../../avr32/lib/ucr3fp\libc.a(lib_a-mlock.o)
                                0x4b5 (size before relaxing)
 .debug_str     0x00009b7c      0x115 c:/program files (x86)/atmel/atmel studio 6.0/extensions/atmel/avrgcc/3.4.1.95/avrtoolchain/bin/../lib/gcc/avr32/4.4.3/../../../../avr32/lib/ucr3fp\libc.a(lib_a-mprec.o)
                                0x5a0 (size before relaxing)
 .debug_str     0x00009c91       0x2b c:/program files (x86)/atmel/atmel studio 6.0/extensions/atmel/avrgcc/3.4.1.95/avrtoolchain/bin/../lib/gcc/avr32/4.4.3/../../../../avr32/lib/ucr3fp\libc.a(lib_a-reallocr.o)
                                0x555 (size before relaxing)
 .debug_str     0x00009cbc       0x6d c:/program files (x86)/atmel/atmel studio 6.0/extensions/atmel/avrgcc/3.4.1.95/avrtoolchain/bin/../lib/gcc/avr32/4.4.3/../../../../avr32/lib/ucr3fp\libc.a(lib_a-sbrkr.o)
                                0x49e (size before relaxing)
 .debug_str     0x00009d29       0x8f c:/program files (x86)/atmel/atmel studio 6.0/extensions/atmel/avrgcc/3.4.1.95/avrtoolchain/bin/../lib/gcc/avr32/4.4.3/../../../../avr32/lib/ucr3fp\libc.a(lib_a-s_isinfd.o)
                                0x14e (size before relaxing)
 .debug_str     0x00009db8       0x63 c:/program files (x86)/atmel/atmel studio 6.0/extensions/atmel/avrgcc/3.4.1.95/avrtoolchain/bin/../lib/gcc/avr32/4.4.3/../../../../avr32/lib/ucr3fp\libc.a(lib_a-s_isnand.o)
                                0x14e (size before relaxing)
 .debug_str     0x00009e1b       0x78 c:/program files (x86)/atmel/atmel studio 6.0/extensions/atmel/avrgcc/3.4.1.95/avrtoolchain/bin/../lib/gcc/avr32/4.4.3/../../../../avr32/lib/ucr3fp\libc.a(lib_a-stdio.o)
                                0x4c4 (size before relaxing)
 .debug_str     0x00009e93       0x5f c:/program files (x86)/atmel/atmel studio 6.0/extensions/atmel/avrgcc/3.4.1.95/avrtoolchain/bin/../lib/gcc/avr32/4.4.3/../../../../avr32/lib/ucr3fp\libc.a(lib_a-strlen.o)
                                0x101 (size before relaxing)
 .debug_str     0x00009ef2      0x1e8 c:/program files (x86)/atmel/atmel studio 6.0/extensions/atmel/avrgcc/3.4.1.95/avrtoolchain/bin/../lib/gcc/avr32/4.4.3/../../../../avr32/lib/ucr3fp\libc.a(lib_a-syscalls.o)
                                0x427 (size before relaxing)
 .debug_str     0x0000a0da       0x69 c:/program files (x86)/atmel/atmel studio 6.0/extensions/atmel/avrgcc/3.4.1.95/avrtoolchain/bin/../lib/gcc/avr32/4.4.3/../../../../avr32/lib/ucr3fp\libc.a(lib_a-writer.o)
                                0x4a1 (size before relaxing)
 .debug_str     0x0000a143        0xf c:/program files (x86)/atmel/atmel studio 6.0/extensions/atmel/avrgcc/3.4.1.95/avrtoolchain/bin/../lib/gcc/avr32/4.4.3/../../../../avr32/lib/ucr3fp\libc.a(lib_a-callocr.o)
                                0x4d4 (size before relaxing)
 .debug_str     0x0000a152       0x60 c:/program files (x86)/atmel/atmel studio 6.0/extensions/atmel/avrgcc/3.4.1.95/avrtoolchain/bin/../lib/gcc/avr32/4.4.3/../../../../avr32/lib/ucr3fp\libc.a(lib_a-closer.o)
                                0x491 (size before relaxing)
 .debug_str     0x0000a1b2       0x5e c:/program files (x86)/atmel/atmel studio 6.0/extensions/atmel/avrgcc/3.4.1.95/avrtoolchain/bin/../lib/gcc/avr32/4.4.3/../../../../avr32/lib/ucr3fp\libc.a(lib_a-errno.o)
                                0x495 (size before relaxing)
 .debug_str     0x0000a210       0x68 c:/program files (x86)/atmel/atmel studio 6.0/extensions/atmel/avrgcc/3.4.1.95/avrtoolchain/bin/../lib/gcc/avr32/4.4.3/../../../../avr32/lib/ucr3fp\libc.a(lib_a-fclose.o)
                                0x4e8 (size before relaxing)
 .debug_str     0x0000a278       0x66 c:/program files (x86)/atmel/atmel studio 6.0/extensions/atmel/avrgcc/3.4.1.95/avrtoolchain/bin/../lib/gcc/avr32/4.4.3/../../../../avr32/lib/ucr3fp\libc.a(lib_a-fstatr.o)
                                0x584 (size before relaxing)
 .debug_str     0x0000a2de       0x60 c:/program files (x86)/atmel/atmel studio 6.0/extensions/atmel/avrgcc/3.4.1.95/avrtoolchain/bin/../lib/gcc/avr32/4.4.3/../../../../avr32/lib/ucr3fp\libc.a(lib_a-lseekr.o)
                                0x49f (size before relaxing)
 .debug_str     0x0000a33e       0x5e c:/program files (x86)/atmel/atmel studio 6.0/extensions/atmel/avrgcc/3.4.1.95/avrtoolchain/bin/../lib/gcc/avr32/4.4.3/../../../../avr32/lib/ucr3fp\libc.a(lib_a-readr.o)
                                0x49f (size before relaxing)
 .debug_str     0x0000a39c       0x90 c:/program files (x86)/atmel/atmel studio 6.0/extensions/atmel/avrgcc/3.4.1.95/avrtoolchain/bin/../lib/gcc/avr32/4.4.3/../../../../avr32/lib/ucr3fp\libc.a(lib_a-reent.o)
                                0x4d2 (size before relaxing)
 .debug_str     0x0000a42c      0x128 c:/program files (x86)/atmel/atmel studio 6.0/extensions/atmel/avrgcc/3.4.1.95/avrtoolchain/bin/../lib/gcc/avr32/4.4.3/ucr3fp\libgcc.a(_udivdi3.o)
                                0x1dd (size before relaxing)
 .debug_str     0x0000a554        0xa c:/program files (x86)/atmel/atmel studio 6.0/extensions/atmel/avrgcc/3.4.1.95/avrtoolchain/bin/../lib/gcc/avr32/4.4.3/ucr3fp\libgcc.a(_umoddi3.o)
                                0x1dd (size before relaxing)

.debug_loc      0x00000000    0x16291
 *(.debug_loc)
 .debug_loc     0x00000000      0x911 src/asf/avr32/components/memory/sd_mmc/sd_mmc_spi/sd_mmc_spi.o
 .debug_loc     0x00000911      0x131 src/asf/avr32/components/memory/sd_mmc/sd_mmc_spi/sd_mmc_spi_mem.o
 .debug_loc     0x00000a42      0x21c src/asf/avr32/drivers/acifa/acifa.o
 .debug_loc     0x00000c5e       0x50 src/asf/avr32/drivers/ebi/sdramc/sdramc.o
 .debug_loc     0x00000cae       0x7e src/asf/avr32/drivers/eic/eic.o
 .debug_loc     0x00000d2c     0x1137 src/asf/avr32/drivers/flashc/flashc.o
 .debug_loc     0x00001e63      0x3b4 src/asf/avr32/drivers/gpio/gpio.o
 .debug_loc     0x00002217       0xd3 src/asf/avr32/drivers/intc/intc.o
 .debug_loc     0x000022ea      0x17f src/asf/avr32/drivers/pm/pm_uc3c.o
 .debug_loc     0x00002469      0x31f src/asf/avr32/drivers/pm/power_clocks_lib.o
 .debug_loc     0x00002788      0x424 src/asf/avr32/drivers/pwm/pwm4.o
 .debug_loc     0x00002bac      0x4b4 src/asf/avr32/drivers/scif/scif_uc3c.o
 .debug_loc     0x00003060      0x3dc src/asf/avr32/drivers/spi/spi.o
 .debug_loc     0x0000343c      0x496 src/asf/avr32/drivers/twim/twim.o
 .debug_loc     0x000038d2      0x9c5 src/asf/avr32/drivers/usart/usart.o
 .debug_loc     0x00004297      0xbe2 src/asf/avr32/services/fs/fat/fat.o
 .debug_loc     0x00004e79     0x138b src/asf/avr32/services/fs/fat/fat_unusual.o
 .debug_loc     0x00006204      0x595 src/asf/avr32/services/fs/fat/file.o
 .debug_loc     0x00006799     0x1210 src/asf/avr32/services/fs/fat/navigation.o
 .debug_loc     0x000079a9      0x3bc src/asf/avr32/utils/debug/print_funcs.o
 .debug_loc     0x00007d65       0x89 src/asf/common/boards/user_board/init.o
 .debug_loc     0x00007dee      0x395 src/asf/common/services/storage/ctrl_access/ctrl_access.o
 .debug_loc     0x00008183     0x4775 src/asf/thirdparty/dlmalloc/dlmalloc.o
 .debug_loc     0x0000c8f8       0xa6 src/asf/thirdparty/dlmalloc/dlsbrk.o
 .debug_loc     0x0000c99e      0x497 src/CustomDevices/ImageProcessor.o
 .debug_loc     0x0000ce35      0x2d4 src/CustomDevices/MotorDriver.o
 .debug_loc     0x0000d109      0x664 src/CustomDevices/OV7670.o
 .debug_loc     0x0000d76d       0x9d src/CustomDevices/PCA9542A.o
 .debug_loc     0x0000d80a      0x78b src/CustomDevices/SD_Card.o
 .debug_loc     0x0000df95       0x2b src/CustomDevices/TWI.o
 .debug_loc     0x0000dfc0      0x37d src/main.o
 .debug_loc     0x0000e33d       0x77 c:/program files (x86)/atmel/atmel studio 6.0/extensions/atmel/avrgcc/3.4.1.95/avrtoolchain/bin/../lib/gcc/avr32/4.4.3/../../../../avr32/lib/ucr3fp\libc.a(lib_a-atoi.o)
 .debug_loc     0x0000e3b4       0x3d c:/program files (x86)/atmel/atmel studio 6.0/extensions/atmel/avrgcc/3.4.1.95/avrtoolchain/bin/../lib/gcc/avr32/4.4.3/../../../../avr32/lib/ucr3fp\libc.a(lib_a-memcmp.o)
 .debug_loc     0x0000e3f1       0xb7 c:/program files (x86)/atmel/atmel studio 6.0/extensions/atmel/avrgcc/3.4.1.95/avrtoolchain/bin/../lib/gcc/avr32/4.4.3/../../../../avr32/lib/ucr3fp\libc.a(lib_a-sprintf.o)
 .debug_loc     0x0000e4a8      0x176 c:/program files (x86)/atmel/atmel studio 6.0/extensions/atmel/avrgcc/3.4.1.95/avrtoolchain/bin/../lib/gcc/avr32/4.4.3/../../../../avr32/lib/ucr3fp\libc.a(lib_a-strtol.o)
 .debug_loc     0x0000e61e     0x2f89 c:/program files (x86)/atmel/atmel studio 6.0/extensions/atmel/avrgcc/3.4.1.95/avrtoolchain/bin/../lib/gcc/avr32/4.4.3/../../../../avr32/lib/ucr3fp\libc.a(lib_a-vfprintf.o)
 .debug_loc     0x000115a7       0x5b c:/program files (x86)/atmel/atmel studio 6.0/extensions/atmel/avrgcc/3.4.1.95/avrtoolchain/bin/../lib/gcc/avr32/4.4.3/../../../../avr32/lib/ucr3fp\libc.a(lib_a-wsetup.o)
 .debug_loc     0x00011602      0xb95 c:/program files (x86)/atmel/atmel studio 6.0/extensions/atmel/avrgcc/3.4.1.95/avrtoolchain/bin/../lib/gcc/avr32/4.4.3/../../../../avr32/lib/ucr3fp\libc.a(lib_a-dtoa.o)
 .debug_loc     0x00012197      0x13f c:/program files (x86)/atmel/atmel studio 6.0/extensions/atmel/avrgcc/3.4.1.95/avrtoolchain/bin/../lib/gcc/avr32/4.4.3/../../../../avr32/lib/ucr3fp\libc.a(lib_a-fflush.o)
 .debug_loc     0x000122d6      0x202 c:/program files (x86)/atmel/atmel studio 6.0/extensions/atmel/avrgcc/3.4.1.95/avrtoolchain/bin/../lib/gcc/avr32/4.4.3/../../../../avr32/lib/ucr3fp\libc.a(lib_a-findfp.o)
 .debug_loc     0x000124d8      0x384 c:/program files (x86)/atmel/atmel studio 6.0/extensions/atmel/avrgcc/3.4.1.95/avrtoolchain/bin/../lib/gcc/avr32/4.4.3/../../../../avr32/lib/ucr3fp\libc.a(lib_a-freer.o)
 .debug_loc     0x0001285c      0x28e c:/program files (x86)/atmel/atmel studio 6.0/extensions/atmel/avrgcc/3.4.1.95/avrtoolchain/bin/../lib/gcc/avr32/4.4.3/../../../../avr32/lib/ucr3fp\libc.a(lib_a-fvwrite.o)
 .debug_loc     0x00012aea       0xe7 c:/program files (x86)/atmel/atmel studio 6.0/extensions/atmel/avrgcc/3.4.1.95/avrtoolchain/bin/../lib/gcc/avr32/4.4.3/../../../../avr32/lib/ucr3fp\libc.a(lib_a-fwalk.o)
 .debug_loc     0x00012bd1       0xd1 c:/program files (x86)/atmel/atmel studio 6.0/extensions/atmel/avrgcc/3.4.1.95/avrtoolchain/bin/../lib/gcc/avr32/4.4.3/../../../../avr32/lib/ucr3fp\libc.a(lib_a-locale.o)
 .debug_loc     0x00012ca2       0xc2 c:/program files (x86)/atmel/atmel studio 6.0/extensions/atmel/avrgcc/3.4.1.95/avrtoolchain/bin/../lib/gcc/avr32/4.4.3/../../../../avr32/lib/ucr3fp\libc.a(lib_a-makebuf.o)
 .debug_loc     0x00012d64      0x5a5 c:/program files (x86)/atmel/atmel studio 6.0/extensions/atmel/avrgcc/3.4.1.95/avrtoolchain/bin/../lib/gcc/avr32/4.4.3/../../../../avr32/lib/ucr3fp\libc.a(lib_a-mallocr.o)
 .debug_loc     0x00013309       0x31 c:/program files (x86)/atmel/atmel studio 6.0/extensions/atmel/avrgcc/3.4.1.95/avrtoolchain/bin/../lib/gcc/avr32/4.4.3/../../../../avr32/lib/ucr3fp\libc.a(lib_a-memchr.o)
 .debug_loc     0x0001333a       0x81 c:/program files (x86)/atmel/atmel studio 6.0/extensions/atmel/avrgcc/3.4.1.95/avrtoolchain/bin/../lib/gcc/avr32/4.4.3/../../../../avr32/lib/ucr3fp\libc.a(lib_a-memmove.o)
 .debug_loc     0x000133bb     0x122d c:/program files (x86)/atmel/atmel studio 6.0/extensions/atmel/avrgcc/3.4.1.95/avrtoolchain/bin/../lib/gcc/avr32/4.4.3/../../../../avr32/lib/ucr3fp\libc.a(lib_a-mprec.o)
 .debug_loc     0x000145e8      0x56e c:/program files (x86)/atmel/atmel studio 6.0/extensions/atmel/avrgcc/3.4.1.95/avrtoolchain/bin/../lib/gcc/avr32/4.4.3/../../../../avr32/lib/ucr3fp\libc.a(lib_a-reallocr.o)
 .debug_loc     0x00014b56       0x63 c:/program files (x86)/atmel/atmel studio 6.0/extensions/atmel/avrgcc/3.4.1.95/avrtoolchain/bin/../lib/gcc/avr32/4.4.3/../../../../avr32/lib/ucr3fp\libc.a(lib_a-sbrkr.o)
 .debug_loc     0x00014bb9       0x43 c:/program files (x86)/atmel/atmel studio 6.0/extensions/atmel/avrgcc/3.4.1.95/avrtoolchain/bin/../lib/gcc/avr32/4.4.3/../../../../avr32/lib/ucr3fp\libc.a(lib_a-s_isinfd.o)
 .debug_loc     0x00014bfc       0x18 c:/program files (x86)/atmel/atmel studio 6.0/extensions/atmel/avrgcc/3.4.1.95/avrtoolchain/bin/../lib/gcc/avr32/4.4.3/../../../../avr32/lib/ucr3fp\libc.a(lib_a-s_isnand.o)
 .debug_loc     0x00014c14      0x1ee c:/program files (x86)/atmel/atmel studio 6.0/extensions/atmel/avrgcc/3.4.1.95/avrtoolchain/bin/../lib/gcc/avr32/4.4.3/../../../../avr32/lib/ucr3fp\libc.a(lib_a-stdio.o)
 .debug_loc     0x00014e02       0x1e c:/program files (x86)/atmel/atmel studio 6.0/extensions/atmel/avrgcc/3.4.1.95/avrtoolchain/bin/../lib/gcc/avr32/4.4.3/../../../../avr32/lib/ucr3fp\libc.a(lib_a-strlen.o)
 .debug_loc     0x00014e20      0x268 c:/program files (x86)/atmel/atmel studio 6.0/extensions/atmel/avrgcc/3.4.1.95/avrtoolchain/bin/../lib/gcc/avr32/4.4.3/../../../../avr32/lib/ucr3fp\libc.a(lib_a-syscalls.o)
 .debug_loc     0x00015088       0x94 c:/program files (x86)/atmel/atmel studio 6.0/extensions/atmel/avrgcc/3.4.1.95/avrtoolchain/bin/../lib/gcc/avr32/4.4.3/../../../../avr32/lib/ucr3fp\libc.a(lib_a-writer.o)
 .debug_loc     0x0001511c       0xbd c:/program files (x86)/atmel/atmel studio 6.0/extensions/atmel/avrgcc/3.4.1.95/avrtoolchain/bin/../lib/gcc/avr32/4.4.3/../../../../avr32/lib/ucr3fp\libc.a(lib_a-callocr.o)
 .debug_loc     0x000151d9       0x63 c:/program files (x86)/atmel/atmel studio 6.0/extensions/atmel/avrgcc/3.4.1.95/avrtoolchain/bin/../lib/gcc/avr32/4.4.3/../../../../avr32/lib/ucr3fp\libc.a(lib_a-closer.o)
 .debug_loc     0x0001523c       0xb6 c:/program files (x86)/atmel/atmel studio 6.0/extensions/atmel/avrgcc/3.4.1.95/avrtoolchain/bin/../lib/gcc/avr32/4.4.3/../../../../avr32/lib/ucr3fp\libc.a(lib_a-fclose.o)
 .debug_loc     0x000152f2       0x76 c:/program files (x86)/atmel/atmel studio 6.0/extensions/atmel/avrgcc/3.4.1.95/avrtoolchain/bin/../lib/gcc/avr32/4.4.3/../../../../avr32/lib/ucr3fp\libc.a(lib_a-fstatr.o)
 .debug_loc     0x00015368       0x94 c:/program files (x86)/atmel/atmel studio 6.0/extensions/atmel/avrgcc/3.4.1.95/avrtoolchain/bin/../lib/gcc/avr32/4.4.3/../../../../avr32/lib/ucr3fp\libc.a(lib_a-lseekr.o)
 .debug_loc     0x000153fc       0x94 c:/program files (x86)/atmel/atmel studio 6.0/extensions/atmel/avrgcc/3.4.1.95/avrtoolchain/bin/../lib/gcc/avr32/4.4.3/../../../../avr32/lib/ucr3fp\libc.a(lib_a-readr.o)
 .debug_loc     0x00015490      0x10a c:/program files (x86)/atmel/atmel studio 6.0/extensions/atmel/avrgcc/3.4.1.95/avrtoolchain/bin/../lib/gcc/avr32/4.4.3/../../../../avr32/lib/ucr3fp\libc.a(lib_a-reent.o)
 .debug_loc     0x0001559a      0x6d9 c:/program files (x86)/atmel/atmel studio 6.0/extensions/atmel/avrgcc/3.4.1.95/avrtoolchain/bin/../lib/gcc/avr32/4.4.3/ucr3fp\libgcc.a(_udivdi3.o)
 .debug_loc     0x00015c73      0x61e c:/program files (x86)/atmel/atmel studio 6.0/extensions/atmel/avrgcc/3.4.1.95/avrtoolchain/bin/../lib/gcc/avr32/4.4.3/ucr3fp\libgcc.a(_umoddi3.o)

.debug_macinfo  0x00000000  0x2865663
 *(.debug_macinfo)
 .debug_macinfo
                0x00000000   0x14ba84 src/asf/avr32/components/memory/sd_mmc/sd_mmc_spi/sd_mmc_spi.o
 .debug_macinfo
                0x0014ba84   0x14b924 src/asf/avr32/components/memory/sd_mmc/sd_mmc_spi/sd_mmc_spi_mem.o
 .debug_macinfo
                0x002973a8   0x149298 src/asf/avr32/drivers/acifa/acifa.o
 .debug_macinfo
                0x003e0640   0x14a6c2 src/asf/avr32/drivers/ebi/sdramc/sdramc.o
 .debug_macinfo
                0x0052ad02   0x148faf src/asf/avr32/drivers/eic/eic.o
 .debug_macinfo
                0x00673cb1   0x148f77 src/asf/avr32/drivers/flashc/flashc.o
 .debug_macinfo
                0x007bcc28   0x148f25 src/asf/avr32/drivers/gpio/gpio.o
 .debug_macinfo
                0x00905b4d   0x148fd2 src/asf/avr32/drivers/intc/intc.o
 .debug_macinfo
                0x00a4eb1f   0x148e17 src/asf/avr32/drivers/pm/pm_uc3c.o
 .debug_macinfo
                0x00b97936   0x1491af src/asf/avr32/drivers/pm/power_clocks_lib.o
 .debug_macinfo
                0x00ce0ae5   0x149322 src/asf/avr32/drivers/pwm/pwm4.o
 .debug_macinfo
                0x00e29e07   0x148e1d src/asf/avr32/drivers/scif/scif_uc3c.o
 .debug_macinfo
                0x00f72c24   0x148d73 src/asf/avr32/drivers/spi/spi.o
 .debug_macinfo
                0x010bb997   0x14a4fa src/asf/avr32/drivers/twim/twim.o
 .debug_macinfo
                0x01205e91   0x149136 src/asf/avr32/drivers/usart/usart.o
 .debug_macinfo
                0x0134efc7   0x14ccd8 src/asf/avr32/services/fs/fat/fat.o
 .debug_macinfo
                0x0149bc9f   0x14ccd9 src/asf/avr32/services/fs/fat/fat_unusual.o
 .debug_macinfo
                0x015e8978   0x14cd7a src/asf/avr32/services/fs/fat/file.o
 .debug_macinfo
                0x017356f2   0x14cff7 src/asf/avr32/services/fs/fat/navigation.o
 .debug_macinfo
                0x018826e9   0x14ab78 src/asf/avr32/utils/debug/print_funcs.o
 .debug_macinfo
                0x019cd261   0x15279e src/asf/common/boards/user_board/init.o
 .debug_macinfo
                0x01b1f9ff   0x14ccea src/asf/common/services/storage/ctrl_access/ctrl_access.o
 .debug_macinfo
                0x01c6c6e9     0x7972 src/asf/thirdparty/dlmalloc/dlmalloc.o
 .debug_macinfo
                0x01c7405b      0xdd8 src/asf/thirdparty/dlmalloc/dlsbrk.o
 .debug_macinfo
                0x01c74e33   0x1527d4 src/CustomDevices/Bitmap.o
 .debug_macinfo
                0x01dc7607   0x152bb2 src/CustomDevices/ImageProcessor.o
 .debug_macinfo
                0x01f1a1b9   0x154a09 src/CustomDevices/MotorDriver.o
 .debug_macinfo
                0x0206ebc2   0x15527f src/CustomDevices/OV7670.o
 .debug_macinfo
                0x021c3e41   0x152bb2 src/CustomDevices/OV7670_Setup.o
 .debug_macinfo
                0x023169f3   0x152bb2 src/CustomDevices/PCA9542A.o
 .debug_macinfo
                0x024695a5   0x153578 src/CustomDevices/SD_Card.o
 .debug_macinfo
                0x025bcb1d   0x152c10 src/CustomDevices/TWI.o
 .debug_macinfo
                0x0270f72d   0x155f36 src/main.o

.debug_weaknames
 *(.debug_weaknames)

.debug_funcnames
 *(.debug_funcnames)

.debug_typenames
 *(.debug_typenames)

.debug_varnames
 *(.debug_varnames)

.stack          0x0000f000     0x1000
                0x0000f000                _stack = .
 *(.stack)
                0x00001000                . = _stack_size
 *fill*         0x0000f000     0x1000 00
                0x00010000                _estack = .

.userpage
 *(.userpage .userpage.*)

.factorypage
 *(.factorypage .factorypage.*)

.flashvault_flash_size
 *(.flashvault_flash_size .flashvault_flash_size.*)

.flashvault_ram_size
 *(.flashvault_ram_size .flashvault_ram_size.*)

/DISCARD/
 *(.note.GNU-stack)
OUTPUT(ColumbusTest.elf elf32-avr32)

.debug_ranges   0x00000000     0x2300
 .debug_ranges  0x00000000       0xe8 src/asf/avr32/components/memory/sd_mmc/sd_mmc_spi/sd_mmc_spi.o
 .debug_ranges  0x000000e8       0x48 src/asf/avr32/components/memory/sd_mmc/sd_mmc_spi/sd_mmc_spi_mem.o
 .debug_ranges  0x00000130       0xa0 src/asf/avr32/drivers/acifa/acifa.o
 .debug_ranges  0x000001d0       0x30 src/asf/avr32/drivers/ebi/sdramc/sdramc.o
 .debug_ranges  0x00000200       0x80 src/asf/avr32/drivers/eic/eic.o
 .debug_ranges  0x00000280      0x218 src/asf/avr32/drivers/flashc/flashc.o
 .debug_ranges  0x00000498      0x118 src/asf/avr32/drivers/gpio/gpio.o
 .debug_ranges  0x000005b0       0x48 src/asf/avr32/drivers/intc/intc.o
 .debug_ranges  0x000005f8       0x60 src/asf/avr32/drivers/pm/pm_uc3c.o
 .debug_ranges  0x00000658       0x38 src/asf/avr32/drivers/pm/power_clocks_lib.o
 .debug_ranges  0x00000690       0xe8 src/asf/avr32/drivers/pwm/pwm4.o
 .debug_ranges  0x00000778      0x160 src/asf/avr32/drivers/scif/scif_uc3c.o
 .debug_ranges  0x000008d8       0xa0 src/asf/avr32/drivers/spi/spi.o
 .debug_ranges  0x00000978       0x68 src/asf/avr32/drivers/twim/twim.o
 .debug_ranges  0x000009e0       0xd8 src/asf/avr32/drivers/usart/usart.o
 .debug_ranges  0x00000ab8      0x158 src/asf/avr32/services/fs/fat/fat.o
 .debug_ranges  0x00000c10      0x120 src/asf/avr32/services/fs/fat/fat_unusual.o
 .debug_ranges  0x00000d30       0x90 src/asf/avr32/services/fs/fat/file.o
 .debug_ranges  0x00000dc0      0x228 src/asf/avr32/services/fs/fat/navigation.o
 .debug_ranges  0x00000fe8       0x80 src/asf/avr32/utils/debug/print_funcs.o
 .debug_ranges  0x00001068       0x28 src/asf/common/boards/user_board/init.o
 .debug_ranges  0x00001090       0x78 src/asf/common/services/storage/ctrl_access/ctrl_access.o
 .debug_ranges  0x00001108      0x248 src/asf/thirdparty/dlmalloc/dlmalloc.o
 .debug_ranges  0x00001350       0x28 src/asf/thirdparty/dlmalloc/dlsbrk.o
 .debug_ranges  0x00001378       0x58 src/CustomDevices/ImageProcessor.o
 .debug_ranges  0x000013d0       0x70 src/CustomDevices/MotorDriver.o
 .debug_ranges  0x00001440      0x430 src/CustomDevices/OV7670.o
 .debug_ranges  0x00001870       0x20 src/CustomDevices/PCA9542A.o
 .debug_ranges  0x00001890       0x88 src/CustomDevices/SD_Card.o
 .debug_ranges  0x00001918       0x18 src/CustomDevices/TWI.o
 .debug_ranges  0x00001930       0x90 src/main.o
 .debug_ranges  0x000019c0       0x20 c:/program files (x86)/atmel/atmel studio 6.0/extensions/atmel/avrgcc/3.4.1.95/avrtoolchain/bin/../lib/gcc/avr32/4.4.3/../../../../avr32/lib/ucr3fp\libc.a(lib_a-atoi.o)
 .debug_ranges  0x000019e0       0x18 c:/program files (x86)/atmel/atmel studio 6.0/extensions/atmel/avrgcc/3.4.1.95/avrtoolchain/bin/../lib/gcc/avr32/4.4.3/../../../../avr32/lib/ucr3fp\libc.a(lib_a-memcmp.o)
 .debug_ranges  0x000019f8       0x18 c:/program files (x86)/atmel/atmel studio 6.0/extensions/atmel/avrgcc/3.4.1.95/avrtoolchain/bin/../lib/gcc/avr32/4.4.3/../../../../avr32/lib/ucr3fp\libc.a(lib_a-memset.o)
 .debug_ranges  0x00001a10       0x20 c:/program files (x86)/atmel/atmel studio 6.0/extensions/atmel/avrgcc/3.4.1.95/avrtoolchain/bin/../lib/gcc/avr32/4.4.3/../../../../avr32/lib/ucr3fp\libc.a(lib_a-sprintf.o)
 .debug_ranges  0x00001a30       0x20 c:/program files (x86)/atmel/atmel studio 6.0/extensions/atmel/avrgcc/3.4.1.95/avrtoolchain/bin/../lib/gcc/avr32/4.4.3/../../../../avr32/lib/ucr3fp\libc.a(lib_a-strtol.o)
 .debug_ranges  0x00001a50       0xa0 c:/program files (x86)/atmel/atmel studio 6.0/extensions/atmel/avrgcc/3.4.1.95/avrtoolchain/bin/../lib/gcc/avr32/4.4.3/../../../../avr32/lib/ucr3fp\libc.a(lib_a-vfprintf.o)
 .debug_ranges  0x00001af0       0x18 c:/program files (x86)/atmel/atmel studio 6.0/extensions/atmel/avrgcc/3.4.1.95/avrtoolchain/bin/../lib/gcc/avr32/4.4.3/../../../../avr32/lib/ucr3fp\libc.a(lib_a-wsetup.o)
 .debug_ranges  0x00001b08       0x38 c:/program files (x86)/atmel/atmel studio 6.0/extensions/atmel/avrgcc/3.4.1.95/avrtoolchain/bin/../lib/gcc/avr32/4.4.3/../../../../avr32/lib/ucr3fp\libc.a(lib_a-dtoa.o)
 .debug_ranges  0x00001b40       0x20 c:/program files (x86)/atmel/atmel studio 6.0/extensions/atmel/avrgcc/3.4.1.95/avrtoolchain/bin/../lib/gcc/avr32/4.4.3/../../../../avr32/lib/ucr3fp\libc.a(lib_a-fflush.o)
 .debug_ranges  0x00001b60       0xb0 c:/program files (x86)/atmel/atmel studio 6.0/extensions/atmel/avrgcc/3.4.1.95/avrtoolchain/bin/../lib/gcc/avr32/4.4.3/../../../../avr32/lib/ucr3fp\libc.a(lib_a-findfp.o)
 .debug_ranges  0x00001c10       0x20 c:/program files (x86)/atmel/atmel studio 6.0/extensions/atmel/avrgcc/3.4.1.95/avrtoolchain/bin/../lib/gcc/avr32/4.4.3/../../../../avr32/lib/ucr3fp\libc.a(lib_a-freer.o)
 .debug_ranges  0x00001c30       0x18 c:/program files (x86)/atmel/atmel studio 6.0/extensions/atmel/avrgcc/3.4.1.95/avrtoolchain/bin/../lib/gcc/avr32/4.4.3/../../../../avr32/lib/ucr3fp\libc.a(lib_a-fvwrite.o)
 .debug_ranges  0x00001c48       0xa0 c:/program files (x86)/atmel/atmel studio 6.0/extensions/atmel/avrgcc/3.4.1.95/avrtoolchain/bin/../lib/gcc/avr32/4.4.3/../../../../avr32/lib/ucr3fp\libc.a(lib_a-fwalk.o)
 .debug_ranges  0x00001ce8       0x38 c:/program files (x86)/atmel/atmel studio 6.0/extensions/atmel/avrgcc/3.4.1.95/avrtoolchain/bin/../lib/gcc/avr32/4.4.3/../../../../avr32/lib/ucr3fp\libc.a(lib_a-locale.o)
 .debug_ranges  0x00001d20       0x18 c:/program files (x86)/atmel/atmel studio 6.0/extensions/atmel/avrgcc/3.4.1.95/avrtoolchain/bin/../lib/gcc/avr32/4.4.3/../../../../avr32/lib/ucr3fp\libc.a(lib_a-makebuf.o)
 .debug_ranges  0x00001d38       0x18 c:/program files (x86)/atmel/atmel studio 6.0/extensions/atmel/avrgcc/3.4.1.95/avrtoolchain/bin/../lib/gcc/avr32/4.4.3/../../../../avr32/lib/ucr3fp\libc.a(lib_a-mallocr.o)
 .debug_ranges  0x00001d50       0x18 c:/program files (x86)/atmel/atmel studio 6.0/extensions/atmel/avrgcc/3.4.1.95/avrtoolchain/bin/../lib/gcc/avr32/4.4.3/../../../../avr32/lib/ucr3fp\libc.a(lib_a-memchr.o)
 .debug_ranges  0x00001d68       0x18 c:/program files (x86)/atmel/atmel studio 6.0/extensions/atmel/avrgcc/3.4.1.95/avrtoolchain/bin/../lib/gcc/avr32/4.4.3/../../../../avr32/lib/ucr3fp\libc.a(lib_a-memmove.o)
 .debug_ranges  0x00001d80       0x20 c:/program files (x86)/atmel/atmel studio 6.0/extensions/atmel/avrgcc/3.4.1.95/avrtoolchain/bin/../lib/gcc/avr32/4.4.3/../../../../avr32/lib/ucr3fp\libc.a(lib_a-mlock.o)
 .debug_ranges  0x00001da0      0x120 c:/program files (x86)/atmel/atmel studio 6.0/extensions/atmel/avrgcc/3.4.1.95/avrtoolchain/bin/../lib/gcc/avr32/4.4.3/../../../../avr32/lib/ucr3fp\libc.a(lib_a-mprec.o)
 .debug_ranges  0x00001ec0       0x30 c:/program files (x86)/atmel/atmel studio 6.0/extensions/atmel/avrgcc/3.4.1.95/avrtoolchain/bin/../lib/gcc/avr32/4.4.3/../../../../avr32/lib/ucr3fp\libc.a(lib_a-reallocr.o)
 .debug_ranges  0x00001ef0       0x18 c:/program files (x86)/atmel/atmel studio 6.0/extensions/atmel/avrgcc/3.4.1.95/avrtoolchain/bin/../lib/gcc/avr32/4.4.3/../../../../avr32/lib/ucr3fp\libc.a(lib_a-sbrkr.o)
 .debug_ranges  0x00001f08       0x18 c:/program files (x86)/atmel/atmel studio 6.0/extensions/atmel/avrgcc/3.4.1.95/avrtoolchain/bin/../lib/gcc/avr32/4.4.3/../../../../avr32/lib/ucr3fp\libc.a(lib_a-s_isinfd.o)
 .debug_ranges  0x00001f20       0x18 c:/program files (x86)/atmel/atmel studio 6.0/extensions/atmel/avrgcc/3.4.1.95/avrtoolchain/bin/../lib/gcc/avr32/4.4.3/../../../../avr32/lib/ucr3fp\libc.a(lib_a-s_isnand.o)
 .debug_ranges  0x00001f38       0x30 c:/program files (x86)/atmel/atmel studio 6.0/extensions/atmel/avrgcc/3.4.1.95/avrtoolchain/bin/../lib/gcc/avr32/4.4.3/../../../../avr32/lib/ucr3fp\libc.a(lib_a-stdio.o)
 .debug_ranges  0x00001f68       0x18 c:/program files (x86)/atmel/atmel studio 6.0/extensions/atmel/avrgcc/3.4.1.95/avrtoolchain/bin/../lib/gcc/avr32/4.4.3/../../../../avr32/lib/ucr3fp\libc.a(lib_a-strlen.o)
 .debug_ranges  0x00001f80       0xf0 c:/program files (x86)/atmel/atmel studio 6.0/extensions/atmel/avrgcc/3.4.1.95/avrtoolchain/bin/../lib/gcc/avr32/4.4.3/../../../../avr32/lib/ucr3fp\libc.a(lib_a-syscalls.o)
 .debug_ranges  0x00002070       0x18 c:/program files (x86)/atmel/atmel studio 6.0/extensions/atmel/avrgcc/3.4.1.95/avrtoolchain/bin/../lib/gcc/avr32/4.4.3/../../../../avr32/lib/ucr3fp\libc.a(lib_a-writer.o)
 .debug_ranges  0x00002088       0x18 c:/program files (x86)/atmel/atmel studio 6.0/extensions/atmel/avrgcc/3.4.1.95/avrtoolchain/bin/../lib/gcc/avr32/4.4.3/../../../../avr32/lib/ucr3fp\libc.a(lib_a-callocr.o)
 .debug_ranges  0x000020a0       0x18 c:/program files (x86)/atmel/atmel studio 6.0/extensions/atmel/avrgcc/3.4.1.95/avrtoolchain/bin/../lib/gcc/avr32/4.4.3/../../../../avr32/lib/ucr3fp\libc.a(lib_a-closer.o)
 .debug_ranges  0x000020b8       0x18 c:/program files (x86)/atmel/atmel studio 6.0/extensions/atmel/avrgcc/3.4.1.95/avrtoolchain/bin/../lib/gcc/avr32/4.4.3/../../../../avr32/lib/ucr3fp\libc.a(lib_a-errno.o)
 .debug_ranges  0x000020d0       0x20 c:/program files (x86)/atmel/atmel studio 6.0/extensions/atmel/avrgcc/3.4.1.95/avrtoolchain/bin/../lib/gcc/avr32/4.4.3/../../../../avr32/lib/ucr3fp\libc.a(lib_a-fclose.o)
 .debug_ranges  0x000020f0       0x18 c:/program files (x86)/atmel/atmel studio 6.0/extensions/atmel/avrgcc/3.4.1.95/avrtoolchain/bin/../lib/gcc/avr32/4.4.3/../../../../avr32/lib/ucr3fp\libc.a(lib_a-fstatr.o)
 .debug_ranges  0x00002108       0x18 c:/program files (x86)/atmel/atmel studio 6.0/extensions/atmel/avrgcc/3.4.1.95/avrtoolchain/bin/../lib/gcc/avr32/4.4.3/../../../../avr32/lib/ucr3fp\libc.a(lib_a-lseekr.o)
 .debug_ranges  0x00002120       0x18 c:/program files (x86)/atmel/atmel studio 6.0/extensions/atmel/avrgcc/3.4.1.95/avrtoolchain/bin/../lib/gcc/avr32/4.4.3/../../../../avr32/lib/ucr3fp\libc.a(lib_a-readr.o)
 .debug_ranges  0x00002138       0x28 c:/program files (x86)/atmel/atmel studio 6.0/extensions/atmel/avrgcc/3.4.1.95/avrtoolchain/bin/../lib/gcc/avr32/4.4.3/../../../../avr32/lib/ucr3fp\libc.a(lib_a-reent.o)
 .debug_ranges  0x00002160       0xd0 c:/program files (x86)/atmel/atmel studio 6.0/extensions/atmel/avrgcc/3.4.1.95/avrtoolchain/bin/../lib/gcc/avr32/4.4.3/ucr3fp\libgcc.a(_udivdi3.o)
 .debug_ranges  0x00002230       0xd0 c:/program files (x86)/atmel/atmel studio 6.0/extensions/atmel/avrgcc/3.4.1.95/avrtoolchain/bin/../lib/gcc/avr32/4.4.3/ucr3fp\libgcc.a(_umoddi3.o)
