
ColumbusTest.elf:     file format elf32-avr32

Sections:
Idx Name          Size      VMA       LMA       File off  Algn
  0 .reset        00002004  80000000  80000000  00000400  2**2
                  CONTENTS, ALLOC, LOAD, READONLY, CODE
  1 .rela.got     00000000  80002004  80002004  00002404  2**2
                  CONTENTS, ALLOC, LOAD, READONLY, DATA
  2 .text         00001a54  80002004  80002004  00002404  2**2
                  CONTENTS, ALLOC, LOAD, READONLY, CODE
  3 .exception    00000200  80003c00  80003c00  00004000  2**9
                  CONTENTS, ALLOC, LOAD, READONLY, CODE
  4 .rodata       000004e0  80003e00  80003e00  00004200  2**2
                  CONTENTS, ALLOC, LOAD, READONLY, DATA
  5 .data         00000008  00000004  800042e0  00004804  2**2
                  CONTENTS, ALLOC, LOAD, DATA
  6 .balign       00000004  0000000c  800042e8  0000480c  2**0
                  ALLOC
  7 .bss          00000418  00000010  800042e8  00004810  2**2
                  ALLOC
  8 .comment      00000030  00000000  00000000  0000480c  2**0
                  CONTENTS, READONLY
  9 .debug_aranges 000009b8  00000000  00000000  0000483c  2**0
                  CONTENTS, READONLY, DEBUGGING
 10 .debug_pubnames 00001bfc  00000000  00000000  000051f4  2**0
                  CONTENTS, READONLY, DEBUGGING
 11 .debug_info   00011558  00000000  00000000  00006df0  2**0
                  CONTENTS, READONLY, DEBUGGING
 12 .debug_abbrev 00002050  00000000  00000000  00018348  2**0
                  CONTENTS, READONLY, DEBUGGING
 13 .debug_line   00009636  00000000  00000000  0001a398  2**0
                  CONTENTS, READONLY, DEBUGGING
 14 .debug_frame  00001954  00000000  00000000  000239d0  2**2
                  CONTENTS, READONLY, DEBUGGING
 15 .debug_str    000045d0  00000000  00000000  00025324  2**0
                  CONTENTS, READONLY, DEBUGGING
 16 .debug_loc    00003f6a  00000000  00000000  000298f4  2**0
                  CONTENTS, READONLY, DEBUGGING
 17 .debug_macinfo 0135cd31  00000000  00000000  0002d85e  2**0
                  CONTENTS, READONLY, DEBUGGING
 18 .stack        00001000  0000f000  0000f000  00000400  2**0
                  ALLOC
 19 .debug_ranges 000009a0  00000000  00000000  0138a58f  2**0
                  CONTENTS, READONLY, DEBUGGING

Disassembly of section .reset:

80000000 <_trampoline>:
80000000:	e0 8f 10 00 	bral	80002000 <program_start>
	...

80002000 <program_start>:
80002000:	fe cf e9 50 	sub	pc,pc,-5808

Disassembly of section .text:

80002004 <sd_mmc_spi_get_capacity>:
//!         [39]    == data[11] && 0x80
//!
//! @return bit
//!         true
void sd_mmc_spi_get_capacity(void)
{
80002004:	d4 01       	pushm	lr
  uint8_t  read_bl_len;
  uint8_t  erase_grp_size;
  uint8_t  erase_grp_mult;

  // extract variables from CSD array
  read_bl_len = csd[5] & 0x0F;
80002006:	4c 18       	lddpc	r8,80002108 <sd_mmc_spi_get_capacity+0x104>
80002008:	11 db       	ld.ub	r11,r8[0x5]
  if (card_type == SD_CARD_2_SDHC) {
8000200a:	4c 18       	lddpc	r8,8000210c <sd_mmc_spi_get_capacity+0x108>
8000200c:	11 8a       	ld.ub	r10,r8[0x0]
8000200e:	30 38       	mov	r8,3
80002010:	f0 0a 18 00 	cp.b	r10,r8
80002014:	c2 71       	brne	80002062 <sd_mmc_spi_get_capacity+0x5e>
    c_size = ((csd[7] & 0x3F) << 16) | (csd[8] << 8) | csd[9];
80002016:	4b d8       	lddpc	r8,80002108 <sd_mmc_spi_get_capacity+0x104>
80002018:	f1 3a 00 08 	ld.ub	r10,r8[8]
8000201c:	f1 39 00 09 	ld.ub	r9,r8[9]
80002020:	f3 ea 10 89 	or	r9,r9,r10<<0x8
80002024:	11 fa       	ld.ub	r10,r8[0x7]
80002026:	f5 da c0 06 	bfextu	r10,r10,0x0,0x6
8000202a:	f3 ea 11 0a 	or	r10,r9,r10<<0x10
    ++c_size;
8000202e:	2f fa       	sub	r10,-1
    capacity = (uint64_t)c_size << 19;
80002030:	f4 0b 16 0d 	lsr	r11,r10,0xd
80002034:	16 99       	mov	r9,r11
80002036:	f4 08 15 13 	lsl	r8,r10,0x13
8000203a:	4b 6a       	lddpc	r10,80002110 <sd_mmc_spi_get_capacity+0x10c>
8000203c:	f4 e9 00 00 	st.d	r10[0],r8
    capacity_mult = (c_size >> 13) & 0x01FF;
80002040:	f7 db c0 09 	bfextu	r11,r11,0x0,0x9
80002044:	4b 48       	lddpc	r8,80002114 <sd_mmc_spi_get_capacity+0x110>
80002046:	b0 0b       	st.h	r8[0x0],r11
    sd_mmc_spi_last_block_address = (capacity >> 9) + (capacity_mult << 23) - 1;
80002048:	f4 ea 00 00 	ld.d	r10,r10[0]
8000204c:	90 09       	ld.sh	r9,r8[0x0]
8000204e:	f4 08 16 09 	lsr	r8,r10,0x9
80002052:	f1 eb 11 78 	or	r8,r8,r11<<0x17
80002056:	20 18       	sub	r8,1
80002058:	b7 79       	lsl	r9,0x17
8000205a:	12 08       	add	r8,r9
8000205c:	4a f9       	lddpc	r9,80002118 <sd_mmc_spi_get_capacity+0x114>
8000205e:	93 08       	st.w	r9[0x0],r8
80002060:	c4 28       	rjmp	800020e4 <sd_mmc_spi_get_capacity+0xe0>
  } else {
    c_size      = ((csd[6] & 0x03) << 10) + (csd[7] << 2) + ((csd[8] & 0xC0) >> 6);
    c_size_mult = ((csd[9] & 0x03) << 1) + ((csd[10] & 0x80) >> 7);
80002062:	4a a8       	lddpc	r8,80002108 <sd_mmc_spi_get_capacity+0x104>
80002064:	f1 3c 00 0a 	ld.ub	r12,r8[10]
    sd_mmc_spi_last_block_address = ((uint32_t)(c_size + 1) * (uint32_t)((1 << (c_size_mult + 2)))) - 1;
80002068:	f1 39 00 08 	ld.ub	r9,r8[8]
8000206c:	a7 89       	lsr	r9,0x6
8000206e:	11 fe       	ld.ub	lr,r8[0x7]
80002070:	f2 0e 00 29 	add	r9,r9,lr<<0x2
80002074:	11 ee       	ld.ub	lr,r8[0x6]
80002076:	fd de c0 02 	bfextu	lr,lr,0x0,0x2
8000207a:	ab 6e       	lsl	lr,0xa
8000207c:	1c 09       	add	r9,lr
8000207e:	2f f9       	sub	r9,-1
80002080:	f1 38 00 09 	ld.ub	r8,r8[9]
80002084:	f1 d8 c0 02 	bfextu	r8,r8,0x0,0x2
80002088:	f8 0e 16 07 	lsr	lr,r12,0x7
8000208c:	fc 08 00 18 	add	r8,lr,r8<<0x1
80002090:	2f e8       	sub	r8,-2
80002092:	f2 08 09 49 	lsl	r9,r9,r8
80002096:	20 19       	sub	r9,1
80002098:	4a 08       	lddpc	r8,80002118 <sd_mmc_spi_get_capacity+0x114>
8000209a:	91 09       	st.w	r8[0x0],r9
    capacity = (1 << read_bl_len) * (sd_mmc_spi_last_block_address + 1);
8000209c:	70 0e       	ld.w	lr,r8[0x0]
8000209e:	f7 db c0 04 	bfextu	r11,r11,0x0,0x4
800020a2:	2f fe       	sub	lr,-1
800020a4:	fc 0b 09 48 	lsl	r8,lr,r11
800020a8:	30 09       	mov	r9,0
800020aa:	49 ae       	lddpc	lr,80002110 <sd_mmc_spi_get_capacity+0x10c>
800020ac:	fc e9 00 00 	st.d	lr[0],r8
    capacity_mult = 0;
800020b0:	49 98       	lddpc	r8,80002114 <sd_mmc_spi_get_capacity+0x110>
800020b2:	b0 09       	st.h	r8[0x0],r9
    if (read_bl_len > 9) {  // 9 means 2^9 = 512b
800020b4:	30 98       	mov	r8,9
800020b6:	f0 0b 18 00 	cp.b	r11,r8
800020ba:	e0 88 00 08 	brls	800020ca <sd_mmc_spi_get_capacity+0xc6>
      sd_mmc_spi_last_block_address <<= (read_bl_len - 9);
800020be:	49 78       	lddpc	r8,80002118 <sd_mmc_spi_get_capacity+0x114>
800020c0:	70 09       	ld.w	r9,r8[0x0]
800020c2:	20 9b       	sub	r11,9
800020c4:	f2 0b 09 4b 	lsl	r11,r9,r11
800020c8:	91 0b       	st.w	r8[0x0],r11
    }
  }
  if (card_type == MMC_CARD)
800020ca:	58 0a       	cp.w	r10,0
800020cc:	c0 c1       	brne	800020e4 <sd_mmc_spi_get_capacity+0xe0>
  {
    erase_grp_size = ((csd[10] & 0x7C) >> 2);
800020ce:	f1 dc c0 45 	bfextu	r8,r12,0x2,0x5
    erase_grp_mult = ((csd[10] & 0x03) << 3) | ((csd[11] & 0xE0) >> 5);
800020d2:	f9 dc c0 02 	bfextu	r12,r12,0x0,0x2
800020d6:	48 d9       	lddpc	r9,80002108 <sd_mmc_spi_get_capacity+0x104>
800020d8:	f3 39 00 0b 	ld.ub	r9,r9[11]
800020dc:	a3 7c       	lsl	r12,0x3
800020de:	f9 e9 12 59 	or	r9,r12,r9>>0x5
800020e2:	c0 c8       	rjmp	800020fa <sd_mmc_spi_get_capacity+0xf6>
  }
  else
  {
    erase_grp_size = ((csd[10] & 0x3F) << 1) + ((csd[11] & 0x80) >> 7);
800020e4:	48 9a       	lddpc	r10,80002108 <sd_mmc_spi_get_capacity+0x104>
800020e6:	f5 39 00 0a 	ld.ub	r9,r10[10]
800020ea:	f3 d9 c0 06 	bfextu	r9,r9,0x0,0x6
800020ee:	f5 38 00 0b 	ld.ub	r8,r10[11]
800020f2:	a7 98       	lsr	r8,0x7
800020f4:	f0 09 00 18 	add	r8,r8,r9<<0x1
800020f8:	30 09       	mov	r9,0
    erase_grp_mult = 0;
  }
  erase_group_size = (erase_grp_size + 1) * (erase_grp_mult + 1);
800020fa:	2f f9       	sub	r9,-1
800020fc:	2f f8       	sub	r8,-1
800020fe:	b1 39       	mul	r9,r8
80002100:	48 78       	lddpc	r8,8000211c <sd_mmc_spi_get_capacity+0x118>
80002102:	b0 09       	st.h	r8[0x0],r9
}
80002104:	d8 02       	popm	pc
80002106:	00 00       	add	r0,r0
80002108:	00 00       	add	r0,r0
8000210a:	04 10       	sub	r0,r2
8000210c:	00 00       	add	r0,r0
8000210e:	04 0e       	add	lr,r2
80002110:	00 00       	add	r0,r0
80002112:	03 fc       	ld.ub	r12,r1[0x7]
80002114:	00 00       	add	r0,r0
80002116:	04 04       	add	r4,r2
80002118:	00 00       	add	r0,r0
8000211a:	04 08       	add	r8,r2
8000211c:	00 00       	add	r0,r0
8000211e:	04 06       	add	r6,r2

80002120 <sd_mmc_spi_write_close>:
//! page programming.
//!
void sd_mmc_spi_write_close (void)
{

}
80002120:	5e fc       	retal	r12
80002122:	d7 03       	nop

80002124 <sd_mmc_spi_send_and_read>:
//! @param  data_to_send   byte to send over SPI
//!
//! @return uint8_t
//!   Byte read from the slave
uint8_t sd_mmc_spi_send_and_read(uint8_t data_to_send)
{
80002124:	d4 01       	pushm	lr
80002126:	20 1d       	sub	sp,4
   unsigned short data_read;
   spi_write(SD_MMC_SPI, data_to_send);
80002128:	18 9b       	mov	r11,r12
8000212a:	fe 7c 34 00 	mov	r12,-52224
8000212e:	f0 1f 00 09 	mcall	80002150 <sd_mmc_spi_send_and_read+0x2c>
   if( SPI_ERROR_TIMEOUT == spi_read(SD_MMC_SPI, &data_read) )
80002132:	fa cb ff fe 	sub	r11,sp,-2
80002136:	fe 7c 34 00 	mov	r12,-52224
8000213a:	f0 1f 00 07 	mcall	80002154 <sd_mmc_spi_send_and_read+0x30>
8000213e:	58 1c       	cp.w	r12,1
80002140:	c0 41       	brne	80002148 <sd_mmc_spi_send_and_read+0x24>
80002142:	e0 6c 00 ff 	mov	r12,255
80002146:	c0 28       	rjmp	8000214a <sd_mmc_spi_send_and_read+0x26>
     return 0xFF;
   return data_read;
80002148:	1b bc       	ld.ub	r12,sp[0x3]
}
8000214a:	2f fd       	sub	sp,-4
8000214c:	d8 02       	popm	pc
8000214e:	00 00       	add	r0,r0
80002150:	80 00       	ld.sh	r0,r0[0x0]
80002152:	33 ce       	mov	lr,60
80002154:	80 00       	ld.sh	r0,r0[0x0]
80002156:	33 ea       	mov	r10,62

80002158 <sd_mmc_spi_wait_not_busy>:
//! @brief This function waits until the SD/MMC is not busy.
//!
//! @return bit
//!          true when card is not busy
bool sd_mmc_spi_wait_not_busy(void)
{
80002158:	d4 21       	pushm	r4-r7,lr
  uint32_t retry;

  // Select the SD_MMC memory gl_ptr_mem points to
  spi_selectChip(SD_MMC_SPI, SD_MMC_SPI_NPCS);
8000215a:	30 0b       	mov	r11,0
8000215c:	fe 7c 34 00 	mov	r12,-52224
80002160:	f0 1f 00 10 	mcall	800021a0 <sd_mmc_spi_wait_not_busy+0x48>
80002164:	30 07       	mov	r7,0
  retry = 0;
  while((r1 = sd_mmc_spi_send_and_read(0xFF)) != 0xFF)
80002166:	e0 65 00 ff 	mov	r5,255
8000216a:	48 f4       	lddpc	r4,800021a4 <sd_mmc_spi_wait_not_busy+0x4c>
8000216c:	3f f6       	mov	r6,-1
8000216e:	c0 b8       	rjmp	80002184 <sd_mmc_spi_wait_not_busy+0x2c>
  {
    retry++;
80002170:	2f f7       	sub	r7,-1
    if (retry == 200000)
80002172:	e2 57 0d 40 	cp.w	r7,200000
80002176:	c0 71       	brne	80002184 <sd_mmc_spi_wait_not_busy+0x2c>
    {
      spi_unselectChip(SD_MMC_SPI, SD_MMC_SPI_NPCS);
80002178:	30 0b       	mov	r11,0
8000217a:	fe 7c 34 00 	mov	r12,-52224
8000217e:	f0 1f 00 0b 	mcall	800021a8 <sd_mmc_spi_wait_not_busy+0x50>
80002182:	d8 2a       	popm	r4-r7,pc,r12=0
  uint32_t retry;

  // Select the SD_MMC memory gl_ptr_mem points to
  spi_selectChip(SD_MMC_SPI, SD_MMC_SPI_NPCS);
  retry = 0;
  while((r1 = sd_mmc_spi_send_and_read(0xFF)) != 0xFF)
80002184:	0a 9c       	mov	r12,r5
80002186:	f0 1f 00 0a 	mcall	800021ac <sd_mmc_spi_wait_not_busy+0x54>
8000218a:	a8 8c       	st.b	r4[0x0],r12
8000218c:	ec 0c 18 00 	cp.b	r12,r6
80002190:	cf 01       	brne	80002170 <sd_mmc_spi_wait_not_busy+0x18>
    {
      spi_unselectChip(SD_MMC_SPI, SD_MMC_SPI_NPCS);
      return false;
    }
  }
  spi_unselectChip(SD_MMC_SPI, SD_MMC_SPI_NPCS);
80002192:	30 0b       	mov	r11,0
80002194:	fe 7c 34 00 	mov	r12,-52224
80002198:	f0 1f 00 04 	mcall	800021a8 <sd_mmc_spi_wait_not_busy+0x50>
8000219c:	da 2a       	popm	r4-r7,pc,r12=1
8000219e:	00 00       	add	r0,r0
800021a0:	80 00       	ld.sh	r0,r0[0x0]
800021a2:	32 9e       	mov	lr,41
800021a4:	00 00       	add	r0,r0
800021a6:	04 20       	rsub	r0,r2
800021a8:	80 00       	ld.sh	r0,r0[0x0]
800021aa:	32 ea       	mov	r10,46
800021ac:	80 00       	ld.sh	r0,r0[0x0]
800021ae:	21 24       	sub	r4,18

800021b0 <sd_mmc_spi_write_open>:
//! @param  pos   Sector address
//!
//! @return bit
//!   The open succeeded      -> true
bool sd_mmc_spi_write_open (uint32_t pos)
{
800021b0:	d4 01       	pushm	lr
  // Set the global memory ptr at a Byte address.
  gl_ptr_mem = pos << 9; // gl_ptr_mem = pos * 512
800021b2:	a9 7c       	lsl	r12,0x9
800021b4:	48 38       	lddpc	r8,800021c0 <sd_mmc_spi_write_open+0x10>
800021b6:	91 0c       	st.w	r8[0x0],r12

  // wait for MMC not busy
  return sd_mmc_spi_wait_not_busy();
800021b8:	f0 1f 00 03 	mcall	800021c4 <sd_mmc_spi_write_open+0x14>
}
800021bc:	d8 02       	popm	pc
800021be:	00 00       	add	r0,r0
800021c0:	00 00       	add	r0,r0
800021c2:	00 10       	sub	r0,r0
800021c4:	80 00       	ld.sh	r0,r0[0x0]
800021c6:	21 58       	sub	r8,21

800021c8 <sd_mmc_spi_read_close>:

//!
//! @brief This function unselects the current SD_MMC memory.
//!
bool sd_mmc_spi_read_close (void)
{
800021c8:	d4 01       	pushm	lr
  if (false == sd_mmc_spi_wait_not_busy())
800021ca:	f0 1f 00 02 	mcall	800021d0 <sd_mmc_spi_read_close+0x8>
    return false;
  return true;
}
800021ce:	d8 02       	popm	pc
800021d0:	80 00       	ld.sh	r0,r0[0x0]
800021d2:	21 58       	sub	r8,21

800021d4 <sd_mmc_spi_read_open>:
//! @param  pos   Sector address
//!
//! @return bit
//!   The open succeeded      -> true
bool sd_mmc_spi_read_open (uint32_t pos)
{
800021d4:	d4 01       	pushm	lr
  // Set the global memory ptr at a Byte address.
  gl_ptr_mem = pos << 9;        // gl_ptr_mem = pos * 512
800021d6:	a9 7c       	lsl	r12,0x9
800021d8:	48 38       	lddpc	r8,800021e4 <sd_mmc_spi_read_open+0x10>
800021da:	91 0c       	st.w	r8[0x0],r12

  // wait for MMC not busy
  return sd_mmc_spi_wait_not_busy();
800021dc:	f0 1f 00 03 	mcall	800021e8 <sd_mmc_spi_read_open+0x14>
}
800021e0:	d8 02       	popm	pc
800021e2:	00 00       	add	r0,r0
800021e4:	00 00       	add	r0,r0
800021e6:	00 10       	sub	r0,r0
800021e8:	80 00       	ld.sh	r0,r0[0x0]
800021ea:	21 58       	sub	r8,21

800021ec <sd_mmc_spi_command>:
//! @param  arg       argument of the command
//!
//! @return uint8_t
//!         R1 response (R1 == 0xFF time out error)
uint8_t sd_mmc_spi_command(uint8_t command, uint32_t arg)
{
800021ec:	eb cd 40 f8 	pushm	r3-r7,lr
800021f0:	18 96       	mov	r6,r12
800021f2:	16 97       	mov	r7,r11
  uint8_t retry;

  spi_write(SD_MMC_SPI, 0xFF);            // write dummy byte
800021f4:	e0 6b 00 ff 	mov	r11,255
800021f8:	fe 7c 34 00 	mov	r12,-52224
800021fc:	f0 1f 00 2b 	mcall	800022a8 <sd_mmc_spi_command+0xbc>
  spi_write(SD_MMC_SPI, command | 0x40);  // send command
80002200:	0c 9b       	mov	r11,r6
80002202:	a7 ab       	sbr	r11,0x6
80002204:	5c 5b       	castu.b	r11
80002206:	fe 7c 34 00 	mov	r12,-52224
8000220a:	f0 1f 00 28 	mcall	800022a8 <sd_mmc_spi_command+0xbc>
  spi_write(SD_MMC_SPI, arg>>24);         // send parameter
8000220e:	ee 0b 16 18 	lsr	r11,r7,0x18
80002212:	fe 7c 34 00 	mov	r12,-52224
80002216:	f0 1f 00 25 	mcall	800022a8 <sd_mmc_spi_command+0xbc>
  spi_write(SD_MMC_SPI, arg>>16);
8000221a:	ee 0b 16 10 	lsr	r11,r7,0x10
8000221e:	fe 7c 34 00 	mov	r12,-52224
80002222:	f0 1f 00 22 	mcall	800022a8 <sd_mmc_spi_command+0xbc>
  spi_write(SD_MMC_SPI, arg>>8 );
80002226:	f7 d7 c1 10 	bfextu	r11,r7,0x8,0x10
8000222a:	fe 7c 34 00 	mov	r12,-52224
8000222e:	f0 1f 00 1f 	mcall	800022a8 <sd_mmc_spi_command+0xbc>
  spi_write(SD_MMC_SPI, arg    );
80002232:	0e 9b       	mov	r11,r7
80002234:	5c 7b       	castu.h	r11
80002236:	fe 7c 34 00 	mov	r12,-52224
8000223a:	f0 1f 00 1c 	mcall	800022a8 <sd_mmc_spi_command+0xbc>
  switch(command)
8000223e:	30 08       	mov	r8,0
80002240:	f0 06 18 00 	cp.b	r6,r8
80002244:	c0 60       	breq	80002250 <sd_mmc_spi_command+0x64>
80002246:	30 88       	mov	r8,8
80002248:	f0 06 18 00 	cp.b	r6,r8
8000224c:	c1 01       	brne	8000226c <sd_mmc_spi_command+0x80>
8000224e:	c0 88       	rjmp	8000225e <sd_mmc_spi_command+0x72>
  {
      case MMC_GO_IDLE_STATE:
         spi_write(SD_MMC_SPI, 0x95);
80002250:	e0 6b 00 95 	mov	r11,149
80002254:	fe 7c 34 00 	mov	r12,-52224
80002258:	f0 1f 00 14 	mcall	800022a8 <sd_mmc_spi_command+0xbc>
         break;
8000225c:	c0 e8       	rjmp	80002278 <sd_mmc_spi_command+0x8c>
      case MMC_SEND_IF_COND:
         spi_write(SD_MMC_SPI, 0x87);
8000225e:	e0 6b 00 87 	mov	r11,135
80002262:	fe 7c 34 00 	mov	r12,-52224
80002266:	f0 1f 00 11 	mcall	800022a8 <sd_mmc_spi_command+0xbc>
         break;
8000226a:	c0 78       	rjmp	80002278 <sd_mmc_spi_command+0x8c>
      default:
         spi_write(SD_MMC_SPI, 0xff);
8000226c:	e0 6b 00 ff 	mov	r11,255
80002270:	fe 7c 34 00 	mov	r12,-52224
80002274:	f0 1f 00 0d 	mcall	800022a8 <sd_mmc_spi_command+0xbc>

  // end command
  // wait for response
  // if more than 8 retries, card has timed-out and return the received 0xFF
  retry = 0;
  r1    = 0xFF;
80002278:	3f f9       	mov	r9,-1
8000227a:	48 d8       	lddpc	r8,800022ac <sd_mmc_spi_command+0xc0>
8000227c:	b0 89       	st.b	r8[0x0],r9
8000227e:	30 07       	mov	r7,0
  while((r1 = sd_mmc_spi_send_and_read(0xFF)) == 0xFF)
80002280:	e0 64 00 ff 	mov	r4,255
80002284:	10 93       	mov	r3,r8
80002286:	12 96       	mov	r6,r9
  {
    retry++;
    if(retry > 10) break;
80002288:	30 b5       	mov	r5,11
  // end command
  // wait for response
  // if more than 8 retries, card has timed-out and return the received 0xFF
  retry = 0;
  r1    = 0xFF;
  while((r1 = sd_mmc_spi_send_and_read(0xFF)) == 0xFF)
8000228a:	c0 68       	rjmp	80002296 <sd_mmc_spi_command+0xaa>
  {
    retry++;
8000228c:	2f f7       	sub	r7,-1
8000228e:	5c 57       	castu.b	r7
    if(retry > 10) break;
80002290:	ea 07 18 00 	cp.b	r7,r5
80002294:	c0 80       	breq	800022a4 <sd_mmc_spi_command+0xb8>
  // end command
  // wait for response
  // if more than 8 retries, card has timed-out and return the received 0xFF
  retry = 0;
  r1    = 0xFF;
  while((r1 = sd_mmc_spi_send_and_read(0xFF)) == 0xFF)
80002296:	08 9c       	mov	r12,r4
80002298:	f0 1f 00 06 	mcall	800022b0 <sd_mmc_spi_command+0xc4>
8000229c:	a6 8c       	st.b	r3[0x0],r12
8000229e:	ec 0c 18 00 	cp.b	r12,r6
800022a2:	cf 50       	breq	8000228c <sd_mmc_spi_command+0xa0>
  {
    retry++;
    if(retry > 10) break;
  }
  return r1;
}
800022a4:	e3 cd 80 f8 	ldm	sp++,r3-r7,pc
800022a8:	80 00       	ld.sh	r0,r0[0x0]
800022aa:	33 ce       	mov	lr,60
800022ac:	00 00       	add	r0,r0
800022ae:	04 20       	rsub	r0,r2
800022b0:	80 00       	ld.sh	r0,r0[0x0]
800022b2:	21 24       	sub	r4,18

800022b4 <sd_mmc_spi_send_command>:
//! @param  arg       argument of the command
//!
//! @return uint8_t
//!         R1 response (R1 == 0xFF if time out error)
uint8_t sd_mmc_spi_send_command(uint8_t command, uint32_t arg)
{
800022b4:	eb cd 40 c0 	pushm	r6-r7,lr
800022b8:	18 97       	mov	r7,r12
800022ba:	16 96       	mov	r6,r11
  spi_selectChip(SD_MMC_SPI, SD_MMC_SPI_NPCS);    // select SD_MMC_SPI
800022bc:	30 0b       	mov	r11,0
800022be:	fe 7c 34 00 	mov	r12,-52224
800022c2:	f0 1f 00 09 	mcall	800022e4 <sd_mmc_spi_send_command+0x30>
  r1 = sd_mmc_spi_command(command, arg);
800022c6:	0c 9b       	mov	r11,r6
800022c8:	0e 9c       	mov	r12,r7
800022ca:	f0 1f 00 08 	mcall	800022e8 <sd_mmc_spi_send_command+0x34>
800022ce:	48 87       	lddpc	r7,800022ec <sd_mmc_spi_send_command+0x38>
800022d0:	ae 8c       	st.b	r7[0x0],r12
  spi_unselectChip(SD_MMC_SPI, SD_MMC_SPI_NPCS);  // unselect SD_MMC_SPI
800022d2:	30 0b       	mov	r11,0
800022d4:	fe 7c 34 00 	mov	r12,-52224
800022d8:	f0 1f 00 06 	mcall	800022f0 <sd_mmc_spi_send_command+0x3c>
  return r1;
}
800022dc:	0f 8c       	ld.ub	r12,r7[0x0]
800022de:	e3 cd 80 c0 	ldm	sp++,r6-r7,pc
800022e2:	00 00       	add	r0,r0
800022e4:	80 00       	ld.sh	r0,r0[0x0]
800022e6:	32 9e       	mov	lr,41
800022e8:	80 00       	ld.sh	r0,r0[0x0]
800022ea:	21 ec       	sub	r12,30
800022ec:	00 00       	add	r0,r0
800022ee:	04 20       	rsub	r0,r2
800022f0:	80 00       	ld.sh	r0,r0[0x0]
800022f2:	32 ea       	mov	r10,46

800022f4 <sd_mmc_spi_check_presence>:
//!
//! @return bit
//!   The memory is present (true)
//!   The memory does not respond (disconnected) (false)
bool sd_mmc_spi_check_presence(void)
{
800022f4:	eb cd 40 fe 	pushm	r1-r7,lr
  uint16_t retry;

  retry = 0;
  if (sd_mmc_spi_init_done == false)
800022f8:	49 a8       	lddpc	r8,80002360 <sd_mmc_spi_check_presence+0x6c>
800022fa:	11 89       	ld.ub	r9,r8[0x0]
800022fc:	30 08       	mov	r8,0
800022fe:	f0 09 18 00 	cp.b	r9,r8
80002302:	c1 f1       	brne	80002340 <sd_mmc_spi_check_presence+0x4c>
80002304:	30 07       	mov	r7,0
  {
    // If memory is not initialized, try to initialize it (CMD0)
    // If no valid response, there is no card
    while ((r1 = sd_mmc_spi_send_command(MMC_GO_IDLE_STATE, 0)) != 0x01)
80002306:	0e 94       	mov	r4,r7
80002308:	49 73       	lddpc	r3,80002364 <sd_mmc_spi_check_presence+0x70>
8000230a:	30 16       	mov	r6,1
    {
      spi_write(SD_MMC_SPI,0xFF);            // write dummy byte
8000230c:	e0 62 00 ff 	mov	r2,255
80002310:	fe 71 34 00 	mov	r1,-52224
      retry++;
      if (retry > 10)
80002314:	30 b5       	mov	r5,11
80002316:	c0 c8       	rjmp	8000232e <sd_mmc_spi_check_presence+0x3a>
  {
    // If memory is not initialized, try to initialize it (CMD0)
    // If no valid response, there is no card
    while ((r1 = sd_mmc_spi_send_command(MMC_GO_IDLE_STATE, 0)) != 0x01)
    {
      spi_write(SD_MMC_SPI,0xFF);            // write dummy byte
80002318:	04 9b       	mov	r11,r2
8000231a:	02 9c       	mov	r12,r1
8000231c:	f0 1f 00 13 	mcall	80002368 <sd_mmc_spi_check_presence+0x74>
      retry++;
80002320:	2f f7       	sub	r7,-1
80002322:	5c 87       	casts.h	r7
      if (retry > 10)
80002324:	ea 07 19 00 	cp.h	r7,r5
80002328:	c0 31       	brne	8000232e <sd_mmc_spi_check_presence+0x3a>
8000232a:	e3 cf 80 fe 	ldm	sp++,r1-r7,pc,r12=0
  retry = 0;
  if (sd_mmc_spi_init_done == false)
  {
    // If memory is not initialized, try to initialize it (CMD0)
    // If no valid response, there is no card
    while ((r1 = sd_mmc_spi_send_command(MMC_GO_IDLE_STATE, 0)) != 0x01)
8000232e:	08 9b       	mov	r11,r4
80002330:	08 9c       	mov	r12,r4
80002332:	f0 1f 00 0f 	mcall	8000236c <sd_mmc_spi_check_presence+0x78>
80002336:	a6 8c       	st.b	r3[0x0],r12
80002338:	ec 0c 18 00 	cp.b	r12,r6
8000233c:	ce e1       	brne	80002318 <sd_mmc_spi_check_presence+0x24>
8000233e:	c0 e8       	rjmp	8000235a <sd_mmc_spi_check_presence+0x66>
    return true;
  }
  else
  {
    // If memory already initialized, send a CRC command (CMD59) (supported only if card is initialized)
    if ((r1 = sd_mmc_spi_send_command(MMC_CRC_ON_OFF, 0)) == 0x00)
80002340:	30 0b       	mov	r11,0
80002342:	33 bc       	mov	r12,59
80002344:	f0 1f 00 0a 	mcall	8000236c <sd_mmc_spi_check_presence+0x78>
80002348:	48 78       	lddpc	r8,80002364 <sd_mmc_spi_check_presence+0x70>
8000234a:	b0 8c       	st.b	r8[0x0],r12
8000234c:	58 0c       	cp.w	r12,0
8000234e:	c0 60       	breq	8000235a <sd_mmc_spi_check_presence+0x66>
      return true;
    sd_mmc_spi_init_done = false;
80002350:	30 09       	mov	r9,0
80002352:	48 48       	lddpc	r8,80002360 <sd_mmc_spi_check_presence+0x6c>
80002354:	b0 89       	st.b	r8[0x0],r9
80002356:	e3 cf 80 fe 	ldm	sp++,r1-r7,pc,r12=0
    return false;
8000235a:	e3 cf 90 fe 	ldm	sp++,r1-r7,pc,r12=1
8000235e:	00 00       	add	r0,r0
80002360:	00 00       	add	r0,r0
80002362:	00 28       	rsub	r8,r0
80002364:	00 00       	add	r0,r0
80002366:	04 20       	rsub	r0,r2
80002368:	80 00       	ld.sh	r0,r0[0x0]
8000236a:	33 ce       	mov	lr,60
8000236c:	80 00       	ld.sh	r0,r0[0x0]
8000236e:	22 b4       	sub	r4,43

80002370 <sd_mmc_spi_write_sector_from_ram>:
//! @return bit
//!   The write succeeded   -> true
//!   The write failed      -> false
//!
bool sd_mmc_spi_write_sector_from_ram(const void *ram)
{
80002370:	eb cd 40 e0 	pushm	r5-r7,lr
80002374:	18 97       	mov	r7,r12
  const uint8_t *_ram = ram;
  uint16_t i;

  // wait for MMC not busy
  if (false == sd_mmc_spi_wait_not_busy())
80002376:	f0 1f 00 49 	mcall	80002498 <sd_mmc_spi_write_sector_from_ram+0x128>
8000237a:	e0 80 00 8c 	breq	80002492 <sd_mmc_spi_write_sector_from_ram+0x122>
    return false;

  spi_selectChip(SD_MMC_SPI, SD_MMC_SPI_NPCS);    // select SD_MMC_SPI
8000237e:	30 0b       	mov	r11,0
80002380:	fe 7c 34 00 	mov	r12,-52224
80002384:	f0 1f 00 46 	mcall	8000249c <sd_mmc_spi_write_sector_from_ram+0x12c>

  // issue command
  if(card_type == SD_CARD_2_SDHC) {
80002388:	4c 68       	lddpc	r8,800024a0 <sd_mmc_spi_write_sector_from_ram+0x130>
8000238a:	11 89       	ld.ub	r9,r8[0x0]
8000238c:	30 38       	mov	r8,3
8000238e:	f0 09 18 00 	cp.b	r9,r8
80002392:	c0 a1       	brne	800023a6 <sd_mmc_spi_write_sector_from_ram+0x36>
    r1 = sd_mmc_spi_command(MMC_WRITE_BLOCK, gl_ptr_mem>>9);
80002394:	4c 48       	lddpc	r8,800024a4 <sd_mmc_spi_write_sector_from_ram+0x134>
80002396:	70 0b       	ld.w	r11,r8[0x0]
80002398:	a9 9b       	lsr	r11,0x9
8000239a:	31 8c       	mov	r12,24
8000239c:	f0 1f 00 43 	mcall	800024a8 <sd_mmc_spi_write_sector_from_ram+0x138>
800023a0:	4c 38       	lddpc	r8,800024ac <sd_mmc_spi_write_sector_from_ram+0x13c>
800023a2:	b0 8c       	st.b	r8[0x0],r12
800023a4:	c0 88       	rjmp	800023b4 <sd_mmc_spi_write_sector_from_ram+0x44>
  } else {
    r1 = sd_mmc_spi_command(MMC_WRITE_BLOCK, gl_ptr_mem);
800023a6:	4c 08       	lddpc	r8,800024a4 <sd_mmc_spi_write_sector_from_ram+0x134>
800023a8:	70 0b       	ld.w	r11,r8[0x0]
800023aa:	31 8c       	mov	r12,24
800023ac:	f0 1f 00 3f 	mcall	800024a8 <sd_mmc_spi_write_sector_from_ram+0x138>
800023b0:	4b f8       	lddpc	r8,800024ac <sd_mmc_spi_write_sector_from_ram+0x13c>
800023b2:	b0 8c       	st.b	r8[0x0],r12
  }

  // check for valid response
  if(r1 != 0x00)
800023b4:	4b e8       	lddpc	r8,800024ac <sd_mmc_spi_write_sector_from_ram+0x13c>
800023b6:	11 89       	ld.ub	r9,r8[0x0]
800023b8:	30 08       	mov	r8,0
800023ba:	f0 09 18 00 	cp.b	r9,r8
800023be:	c0 80       	breq	800023ce <sd_mmc_spi_write_sector_from_ram+0x5e>
  {
    spi_unselectChip(SD_MMC_SPI, SD_MMC_SPI_NPCS);
800023c0:	30 0b       	mov	r11,0
800023c2:	fe 7c 34 00 	mov	r12,-52224
800023c6:	f0 1f 00 3b 	mcall	800024b0 <sd_mmc_spi_write_sector_from_ram+0x140>
800023ca:	e3 cf 80 e0 	ldm	sp++,r5-r7,pc,r12=0
    return false;
  }
  // send dummy
  spi_write(SD_MMC_SPI,0xFF);   // give clock again to end transaction
800023ce:	e0 6b 00 ff 	mov	r11,255
800023d2:	fe 7c 34 00 	mov	r12,-52224
800023d6:	f0 1f 00 38 	mcall	800024b4 <sd_mmc_spi_write_sector_from_ram+0x144>

  // send data start token
  spi_write(SD_MMC_SPI,MMC_STARTBLOCK_WRITE);
800023da:	e0 6b 00 fe 	mov	r11,254
800023de:	fe 7c 34 00 	mov	r12,-52224
800023e2:	f0 1f 00 35 	mcall	800024b4 <sd_mmc_spi_write_sector_from_ram+0x144>
//!
//! @return bit
//!   The write succeeded   -> true
//!   The write failed      -> false
//!
bool sd_mmc_spi_write_sector_from_ram(const void *ram)
800023e6:	ee c6 fe 00 	sub	r6,r7,-512
  // send data start token
  spi_write(SD_MMC_SPI,MMC_STARTBLOCK_WRITE);
  // write data
  for(i=0;i<MMC_SECTOR_SIZE;i++)
  {
    spi_write(SD_MMC_SPI,*_ram++);
800023ea:	fe 75 34 00 	mov	r5,-52224
800023ee:	0f 3b       	ld.ub	r11,r7++
800023f0:	0a 9c       	mov	r12,r5
800023f2:	f0 1f 00 31 	mcall	800024b4 <sd_mmc_spi_write_sector_from_ram+0x144>
  spi_write(SD_MMC_SPI,0xFF);   // give clock again to end transaction

  // send data start token
  spi_write(SD_MMC_SPI,MMC_STARTBLOCK_WRITE);
  // write data
  for(i=0;i<MMC_SECTOR_SIZE;i++)
800023f6:	0c 37       	cp.w	r7,r6
800023f8:	cf b1       	brne	800023ee <sd_mmc_spi_write_sector_from_ram+0x7e>
  {
    spi_write(SD_MMC_SPI,*_ram++);
  }

  spi_write(SD_MMC_SPI,0xFF);    // send CRC (field required but value ignored)
800023fa:	e0 6b 00 ff 	mov	r11,255
800023fe:	fe 7c 34 00 	mov	r12,-52224
80002402:	f0 1f 00 2d 	mcall	800024b4 <sd_mmc_spi_write_sector_from_ram+0x144>
  spi_write(SD_MMC_SPI,0xFF);
80002406:	e0 6b 00 ff 	mov	r11,255
8000240a:	fe 7c 34 00 	mov	r12,-52224
8000240e:	f0 1f 00 2a 	mcall	800024b4 <sd_mmc_spi_write_sector_from_ram+0x144>

  // read data response token
  r1 = sd_mmc_spi_send_and_read(0xFF);
80002412:	e0 6c 00 ff 	mov	r12,255
80002416:	f0 1f 00 29 	mcall	800024b8 <sd_mmc_spi_write_sector_from_ram+0x148>
8000241a:	4a 58       	lddpc	r8,800024ac <sd_mmc_spi_write_sector_from_ram+0x13c>
8000241c:	b0 8c       	st.b	r8[0x0],r12
  if( (r1&MMC_DR_MASK) != MMC_DR_ACCEPT)
8000241e:	f9 dc c0 05 	bfextu	r12,r12,0x0,0x5
80002422:	58 5c       	cp.w	r12,5
80002424:	c1 40       	breq	8000244c <sd_mmc_spi_write_sector_from_ram+0xdc>
  {
    spi_write(SD_MMC_SPI,0xFF);    // send dummy bytes
80002426:	e0 6b 00 ff 	mov	r11,255
8000242a:	fe 7c 34 00 	mov	r12,-52224
8000242e:	f0 1f 00 22 	mcall	800024b4 <sd_mmc_spi_write_sector_from_ram+0x144>
    spi_write(SD_MMC_SPI,0xFF);
80002432:	e0 6b 00 ff 	mov	r11,255
80002436:	fe 7c 34 00 	mov	r12,-52224
8000243a:	f0 1f 00 1f 	mcall	800024b4 <sd_mmc_spi_write_sector_from_ram+0x144>
    spi_unselectChip(SD_MMC_SPI, SD_MMC_SPI_NPCS);
8000243e:	30 0b       	mov	r11,0
80002440:	fe 7c 34 00 	mov	r12,-52224
80002444:	f0 1f 00 1b 	mcall	800024b0 <sd_mmc_spi_write_sector_from_ram+0x140>
80002448:	e3 cf 80 e0 	ldm	sp++,r5-r7,pc,r12=0
    return false;         // return ERROR byte
  }

  spi_write(SD_MMC_SPI,0xFF);    // send dummy bytes
8000244c:	e0 6b 00 ff 	mov	r11,255
80002450:	fe 7c 34 00 	mov	r12,-52224
80002454:	f0 1f 00 18 	mcall	800024b4 <sd_mmc_spi_write_sector_from_ram+0x144>
  spi_write(SD_MMC_SPI,0xFF);
80002458:	e0 6b 00 ff 	mov	r11,255
8000245c:	fe 7c 34 00 	mov	r12,-52224
80002460:	f0 1f 00 15 	mcall	800024b4 <sd_mmc_spi_write_sector_from_ram+0x144>

  // release chip select
  spi_unselectChip(SD_MMC_SPI, SD_MMC_SPI_NPCS);  // unselect SD_MMC_SPI
80002464:	30 0b       	mov	r11,0
80002466:	fe 7c 34 00 	mov	r12,-52224
8000246a:	f0 1f 00 12 	mcall	800024b0 <sd_mmc_spi_write_sector_from_ram+0x140>
  gl_ptr_mem += 512;        // Update the memory pointer.
8000246e:	48 e8       	lddpc	r8,800024a4 <sd_mmc_spi_write_sector_from_ram+0x134>
80002470:	70 09       	ld.w	r9,r8[0x0]
80002472:	f2 c9 fe 00 	sub	r9,r9,-512
80002476:	91 09       	st.w	r8[0x0],r9
80002478:	30 07       	mov	r7,0
  // wait card not busy after last programming operation
  i=0;
  while (false == sd_mmc_spi_wait_not_busy())
  {
    i++;
    if (i == 10)
8000247a:	30 a6       	mov	r6,10
  spi_unselectChip(SD_MMC_SPI, SD_MMC_SPI_NPCS);  // unselect SD_MMC_SPI
  gl_ptr_mem += 512;        // Update the memory pointer.

  // wait card not busy after last programming operation
  i=0;
  while (false == sd_mmc_spi_wait_not_busy())
8000247c:	c0 68       	rjmp	80002488 <sd_mmc_spi_write_sector_from_ram+0x118>
  {
    i++;
8000247e:	2f f7       	sub	r7,-1
80002480:	5c 87       	casts.h	r7
    if (i == 10)
80002482:	ec 07 19 00 	cp.h	r7,r6
80002486:	c0 60       	breq	80002492 <sd_mmc_spi_write_sector_from_ram+0x122>
  spi_unselectChip(SD_MMC_SPI, SD_MMC_SPI_NPCS);  // unselect SD_MMC_SPI
  gl_ptr_mem += 512;        // Update the memory pointer.

  // wait card not busy after last programming operation
  i=0;
  while (false == sd_mmc_spi_wait_not_busy())
80002488:	f0 1f 00 04 	mcall	80002498 <sd_mmc_spi_write_sector_from_ram+0x128>
8000248c:	cf 90       	breq	8000247e <sd_mmc_spi_write_sector_from_ram+0x10e>
8000248e:	e3 cf 90 e0 	ldm	sp++,r5-r7,pc,r12=1
80002492:	e3 cf 80 e0 	ldm	sp++,r5-r7,pc,r12=0
80002496:	00 00       	add	r0,r0
80002498:	80 00       	ld.sh	r0,r0[0x0]
8000249a:	21 58       	sub	r8,21
8000249c:	80 00       	ld.sh	r0,r0[0x0]
8000249e:	32 9e       	mov	lr,41
800024a0:	00 00       	add	r0,r0
800024a2:	04 0e       	add	lr,r2
800024a4:	00 00       	add	r0,r0
800024a6:	00 10       	sub	r0,r0
800024a8:	80 00       	ld.sh	r0,r0[0x0]
800024aa:	21 ec       	sub	r12,30
800024ac:	00 00       	add	r0,r0
800024ae:	04 20       	rsub	r0,r2
800024b0:	80 00       	ld.sh	r0,r0[0x0]
800024b2:	32 ea       	mov	r10,46
800024b4:	80 00       	ld.sh	r0,r0[0x0]
800024b6:	33 ce       	mov	lr,60
800024b8:	80 00       	ld.sh	r0,r0[0x0]
800024ba:	21 24       	sub	r4,18

800024bc <sd_mmc_spi_check_hc>:
//!           SD_CARD      Detected card is SD
//!           ERROR


int sd_mmc_spi_check_hc(void)
{
800024bc:	eb cd 40 c0 	pushm	r6-r7,lr
  unsigned char hc_bit;
  // wait for MMC not busy
  if (false == sd_mmc_spi_wait_not_busy())
800024c0:	f0 1f 00 1c 	mcall	80002530 <sd_mmc_spi_check_hc+0x74>
800024c4:	c0 31       	brne	800024ca <sd_mmc_spi_check_hc+0xe>
800024c6:	e3 cf c0 c0 	ldm	sp++,r6-r7,pc,r12=-1
    return SD_FAILURE;

  spi_selectChip(SD_MMC_SPI, SD_MMC_SPI_NPCS);    // select SD_MMC_SPI
800024ca:	30 0b       	mov	r11,0
800024cc:	fe 7c 34 00 	mov	r12,-52224
800024d0:	f0 1f 00 19 	mcall	80002534 <sd_mmc_spi_check_hc+0x78>
  r1 = sd_mmc_spi_command(SD_READ_OCR, 0);
800024d4:	30 0b       	mov	r11,0
800024d6:	33 ac       	mov	r12,58
800024d8:	f0 1f 00 18 	mcall	80002538 <sd_mmc_spi_check_hc+0x7c>
800024dc:	49 88       	lddpc	r8,8000253c <sd_mmc_spi_check_hc+0x80>
800024de:	b0 8c       	st.b	r8[0x0],r12
  // check for valid response
  if(r1 != 0) {
800024e0:	58 0c       	cp.w	r12,0
800024e2:	c0 80       	breq	800024f2 <sd_mmc_spi_check_hc+0x36>
    spi_unselectChip(SD_MMC_SPI, SD_MMC_SPI_NPCS);  // unselect SD_MMC_SPI
800024e4:	30 0b       	mov	r11,0
800024e6:	fe 7c 34 00 	mov	r12,-52224
800024ea:	f0 1f 00 16 	mcall	80002540 <sd_mmc_spi_check_hc+0x84>
800024ee:	e3 cf c0 c0 	ldm	sp++,r6-r7,pc,r12=-1
    return SD_FAILURE;
  }
  hc_bit = sd_mmc_spi_send_and_read(0xFF);
800024f2:	e0 6c 00 ff 	mov	r12,255
800024f6:	f0 1f 00 14 	mcall	80002544 <sd_mmc_spi_check_hc+0x88>
800024fa:	18 96       	mov	r6,r12
  r1 = sd_mmc_spi_send_and_read(0xFF);
800024fc:	e0 6c 00 ff 	mov	r12,255
80002500:	f0 1f 00 11 	mcall	80002544 <sd_mmc_spi_check_hc+0x88>
80002504:	48 e7       	lddpc	r7,8000253c <sd_mmc_spi_check_hc+0x80>
80002506:	ae 8c       	st.b	r7[0x0],r12
  r1 = sd_mmc_spi_send_and_read(0xFF);
80002508:	e0 6c 00 ff 	mov	r12,255
8000250c:	f0 1f 00 0e 	mcall	80002544 <sd_mmc_spi_check_hc+0x88>
80002510:	ae 8c       	st.b	r7[0x0],r12
  r1 = sd_mmc_spi_send_and_read(0xFF);
80002512:	e0 6c 00 ff 	mov	r12,255
80002516:	f0 1f 00 0c 	mcall	80002544 <sd_mmc_spi_check_hc+0x88>
8000251a:	ae 8c       	st.b	r7[0x0],r12
  spi_unselectChip(SD_MMC_SPI, SD_MMC_SPI_NPCS);  // unselect SD_MMC_SPI
8000251c:	30 0b       	mov	r11,0
8000251e:	fe 7c 34 00 	mov	r12,-52224
80002522:	f0 1f 00 08 	mcall	80002540 <sd_mmc_spi_check_hc+0x84>
80002526:	f9 d6 c0 c1 	bfextu	r12,r6,0x6,0x1
  if(hc_bit & 0x40) {
      return SDHC_CARD;
  }
  return 0;
}
8000252a:	e3 cd 80 c0 	ldm	sp++,r6-r7,pc
8000252e:	00 00       	add	r0,r0
80002530:	80 00       	ld.sh	r0,r0[0x0]
80002532:	21 58       	sub	r8,21
80002534:	80 00       	ld.sh	r0,r0[0x0]
80002536:	32 9e       	mov	lr,41
80002538:	80 00       	ld.sh	r0,r0[0x0]
8000253a:	21 ec       	sub	r12,30
8000253c:	00 00       	add	r0,r0
8000253e:	04 20       	rsub	r0,r2
80002540:	80 00       	ld.sh	r0,r0[0x0]
80002542:	32 ea       	mov	r10,46
80002544:	80 00       	ld.sh	r0,r0[0x0]
80002546:	21 24       	sub	r4,18

80002548 <sd_mmc_spi_get_if>:
//!                true
//!                SD_MMC


int sd_mmc_spi_get_if(void)
{
80002548:	eb cd 40 80 	pushm	r7,lr
  // wait for MMC not busy
  if (false == sd_mmc_spi_wait_not_busy())
8000254c:	f0 1f 00 27 	mcall	800025e8 <sd_mmc_spi_get_if+0xa0>
80002550:	c0 31       	brne	80002556 <sd_mmc_spi_get_if+0xe>
80002552:	e3 cf c0 80 	ldm	sp++,r7,pc,r12=-1
    return SD_FAILURE;

  spi_selectChip(SD_MMC_SPI, SD_MMC_SPI_NPCS);    // select SD_MMC_SPI
80002556:	30 0b       	mov	r11,0
80002558:	fe 7c 34 00 	mov	r12,-52224
8000255c:	f0 1f 00 24 	mcall	800025ec <sd_mmc_spi_get_if+0xa4>
  r1 = sd_mmc_spi_command(MMC_SEND_IF_COND, 0x000001AA);
80002560:	e0 6b 01 aa 	mov	r11,426
80002564:	30 8c       	mov	r12,8
80002566:	f0 1f 00 23 	mcall	800025f0 <sd_mmc_spi_get_if+0xa8>
8000256a:	4a 38       	lddpc	r8,800025f4 <sd_mmc_spi_get_if+0xac>
8000256c:	b0 8c       	st.b	r8[0x0],r12
  // check for valid response
  if((r1 & MMC_R1_ILLEGAL_COM) != 0) {
8000256e:	e2 1c 00 04 	andl	r12,0x4,COH
80002572:	c0 80       	breq	80002582 <sd_mmc_spi_get_if+0x3a>
    spi_unselectChip(SD_MMC_SPI, SD_MMC_SPI_NPCS);  // unselect SD_MMC_SPI
80002574:	30 0b       	mov	r11,0
80002576:	fe 7c 34 00 	mov	r12,-52224
8000257a:	f0 1f 00 20 	mcall	800025f8 <sd_mmc_spi_get_if+0xb0>
8000257e:	e3 cf 80 80 	ldm	sp++,r7,pc,r12=0
    return SD_MMC;
  }
  r1 = sd_mmc_spi_send_and_read(0xFF);
80002582:	e0 6c 00 ff 	mov	r12,255
80002586:	f0 1f 00 1e 	mcall	800025fc <sd_mmc_spi_get_if+0xb4>
8000258a:	49 b7       	lddpc	r7,800025f4 <sd_mmc_spi_get_if+0xac>
8000258c:	ae 8c       	st.b	r7[0x0],r12
  r1 = sd_mmc_spi_send_and_read(0xFF);
8000258e:	e0 6c 00 ff 	mov	r12,255
80002592:	f0 1f 00 1b 	mcall	800025fc <sd_mmc_spi_get_if+0xb4>
80002596:	ae 8c       	st.b	r7[0x0],r12
  r1 = sd_mmc_spi_send_and_read(0xFF);
80002598:	e0 6c 00 ff 	mov	r12,255
8000259c:	f0 1f 00 18 	mcall	800025fc <sd_mmc_spi_get_if+0xb4>
800025a0:	ae 8c       	st.b	r7[0x0],r12
  if((r1 & 0x01) == 0) {
800025a2:	f9 dc c0 01 	bfextu	r12,r12,0x0,0x1
800025a6:	c0 81       	brne	800025b6 <sd_mmc_spi_get_if+0x6e>
    spi_unselectChip(SD_MMC_SPI, SD_MMC_SPI_NPCS);  // unselect SD_MMC_SPI
800025a8:	30 0b       	mov	r11,0
800025aa:	fe 7c 34 00 	mov	r12,-52224
800025ae:	f0 1f 00 13 	mcall	800025f8 <sd_mmc_spi_get_if+0xb0>
800025b2:	e3 cf c0 80 	ldm	sp++,r7,pc,r12=-1
    return SD_FAILURE;
  }
  r1 = sd_mmc_spi_send_and_read(0xFF);
800025b6:	e0 6c 00 ff 	mov	r12,255
800025ba:	f0 1f 00 11 	mcall	800025fc <sd_mmc_spi_get_if+0xb4>
800025be:	48 e8       	lddpc	r8,800025f4 <sd_mmc_spi_get_if+0xac>
800025c0:	b0 8c       	st.b	r8[0x0],r12
  if(r1 != 0xaa) {
800025c2:	3a a8       	mov	r8,-86
800025c4:	f0 0c 18 00 	cp.b	r12,r8
800025c8:	c0 80       	breq	800025d8 <sd_mmc_spi_get_if+0x90>
    spi_unselectChip(SD_MMC_SPI, SD_MMC_SPI_NPCS);  // unselect SD_MMC_SPI
800025ca:	30 0b       	mov	r11,0
800025cc:	fe 7c 34 00 	mov	r12,-52224
800025d0:	f0 1f 00 0a 	mcall	800025f8 <sd_mmc_spi_get_if+0xb0>
800025d4:	e3 cf c0 80 	ldm	sp++,r7,pc,r12=-1
    return SD_FAILURE; /* wrong test pattern */
  }
  spi_unselectChip(SD_MMC_SPI, SD_MMC_SPI_NPCS);  // unselect SD_MMC_SPI
800025d8:	30 0b       	mov	r11,0
800025da:	fe 7c 34 00 	mov	r12,-52224
800025de:	f0 1f 00 07 	mcall	800025f8 <sd_mmc_spi_get_if+0xb0>
800025e2:	e3 cf 90 80 	ldm	sp++,r7,pc,r12=1
800025e6:	00 00       	add	r0,r0
800025e8:	80 00       	ld.sh	r0,r0[0x0]
800025ea:	21 58       	sub	r8,21
800025ec:	80 00       	ld.sh	r0,r0[0x0]
800025ee:	32 9e       	mov	lr,41
800025f0:	80 00       	ld.sh	r0,r0[0x0]
800025f2:	21 ec       	sub	r12,30
800025f4:	00 00       	add	r0,r0
800025f6:	04 20       	rsub	r0,r2
800025f8:	80 00       	ld.sh	r0,r0[0x0]
800025fa:	32 ea       	mov	r10,46
800025fc:	80 00       	ld.sh	r0,r0[0x0]
800025fe:	21 24       	sub	r4,18

80002600 <sd_mmc_spi_read_sector_to_ram>:
//! @return bit
//!   The read succeeded   -> true
//!   The read failed (bad address, etc.)  -> false
//!/
bool sd_mmc_spi_read_sector_to_ram(void *ram)
{
80002600:	eb cd 40 f8 	pushm	r3-r7,lr
80002604:	20 1d       	sub	sp,4
80002606:	18 93       	mov	r3,r12
  uint8_t *_ram = ram;
  uint16_t  i;
  uint16_t  read_time_out;
  unsigned short data_read;
  // wait for MMC not busy
  if (false == sd_mmc_spi_wait_not_busy())
80002608:	f0 1f 00 48 	mcall	80002728 <sd_mmc_spi_read_sector_to_ram+0x128>
8000260c:	e0 80 00 8a 	breq	80002720 <sd_mmc_spi_read_sector_to_ram+0x120>
    return false;

  spi_selectChip(SD_MMC_SPI, SD_MMC_SPI_NPCS);    // select SD_MMC_SPI
80002610:	30 0b       	mov	r11,0
80002612:	fe 7c 34 00 	mov	r12,-52224
80002616:	f0 1f 00 46 	mcall	8000272c <sd_mmc_spi_read_sector_to_ram+0x12c>

  // issue command
  if(card_type == SD_CARD_2_SDHC) {
8000261a:	4c 68       	lddpc	r8,80002730 <sd_mmc_spi_read_sector_to_ram+0x130>
8000261c:	11 89       	ld.ub	r9,r8[0x0]
8000261e:	30 38       	mov	r8,3
80002620:	f0 09 18 00 	cp.b	r9,r8
80002624:	c0 a1       	brne	80002638 <sd_mmc_spi_read_sector_to_ram+0x38>
    r1 = sd_mmc_spi_command(MMC_READ_SINGLE_BLOCK, gl_ptr_mem>>9);
80002626:	4c 48       	lddpc	r8,80002734 <sd_mmc_spi_read_sector_to_ram+0x134>
80002628:	70 0b       	ld.w	r11,r8[0x0]
8000262a:	a9 9b       	lsr	r11,0x9
8000262c:	31 1c       	mov	r12,17
8000262e:	f0 1f 00 43 	mcall	80002738 <sd_mmc_spi_read_sector_to_ram+0x138>
80002632:	4c 38       	lddpc	r8,8000273c <sd_mmc_spi_read_sector_to_ram+0x13c>
80002634:	b0 8c       	st.b	r8[0x0],r12
80002636:	c0 88       	rjmp	80002646 <sd_mmc_spi_read_sector_to_ram+0x46>
  } else {
    r1 = sd_mmc_spi_command(MMC_READ_SINGLE_BLOCK, gl_ptr_mem);
80002638:	4b f8       	lddpc	r8,80002734 <sd_mmc_spi_read_sector_to_ram+0x134>
8000263a:	70 0b       	ld.w	r11,r8[0x0]
8000263c:	31 1c       	mov	r12,17
8000263e:	f0 1f 00 3f 	mcall	80002738 <sd_mmc_spi_read_sector_to_ram+0x138>
80002642:	4b f8       	lddpc	r8,8000273c <sd_mmc_spi_read_sector_to_ram+0x13c>
80002644:	b0 8c       	st.b	r8[0x0],r12
  }

  // check for valid response
  if (r1 != 0x00)
80002646:	4b e8       	lddpc	r8,8000273c <sd_mmc_spi_read_sector_to_ram+0x13c>
80002648:	11 89       	ld.ub	r9,r8[0x0]
8000264a:	30 08       	mov	r8,0
8000264c:	f0 09 18 00 	cp.b	r9,r8
80002650:	c1 20       	breq	80002674 <sd_mmc_spi_read_sector_to_ram+0x74>
  {
    spi_unselectChip(SD_MMC_SPI, SD_MMC_SPI_NPCS);  // unselect SD_MMC_SPI
80002652:	30 0b       	mov	r11,0
80002654:	fe 7c 34 00 	mov	r12,-52224
80002658:	f0 1f 00 3a 	mcall	80002740 <sd_mmc_spi_read_sector_to_ram+0x140>
8000265c:	30 0c       	mov	r12,0
    return false;
8000265e:	c6 18       	rjmp	80002720 <sd_mmc_spi_read_sector_to_ram+0x120>

  // wait for token (may be a datablock start token OR a data error token !)
  read_time_out = 30000;
  while((r1 = sd_mmc_spi_send_and_read(0xFF)) == 0xFF)
  {
     read_time_out--;
80002660:	20 17       	sub	r7,1
80002662:	5c 87       	casts.h	r7
     if (read_time_out == 0)   // TIME-OUT
80002664:	c0 e1       	brne	80002680 <sd_mmc_spi_read_sector_to_ram+0x80>
     {
       spi_unselectChip(SD_MMC_SPI, SD_MMC_SPI_NPCS); // unselect SD_MMC_SPI
80002666:	30 0b       	mov	r11,0
80002668:	fe 7c 34 00 	mov	r12,-52224
8000266c:	f0 1f 00 35 	mcall	80002740 <sd_mmc_spi_read_sector_to_ram+0x140>
80002670:	30 0c       	mov	r12,0
       return false;
80002672:	c5 78       	rjmp	80002720 <sd_mmc_spi_read_sector_to_ram+0x120>
80002674:	e0 67 75 30 	mov	r7,30000
    return false;
  }

  // wait for token (may be a datablock start token OR a data error token !)
  read_time_out = 30000;
  while((r1 = sd_mmc_spi_send_and_read(0xFF)) == 0xFF)
80002678:	e0 65 00 ff 	mov	r5,255
8000267c:	4b 04       	lddpc	r4,8000273c <sd_mmc_spi_read_sector_to_ram+0x13c>
8000267e:	3f f6       	mov	r6,-1
80002680:	0a 9c       	mov	r12,r5
80002682:	f0 1f 00 31 	mcall	80002744 <sd_mmc_spi_read_sector_to_ram+0x144>
80002686:	a8 8c       	st.b	r4[0x0],r12
80002688:	ec 0c 18 00 	cp.b	r12,r6
8000268c:	ce a0       	breq	80002660 <sd_mmc_spi_read_sector_to_ram+0x60>
       return false;
     }
  }

  // check token
  if (r1 != MMC_STARTBLOCK_READ)
8000268e:	3f e8       	mov	r8,-2
80002690:	f0 0c 18 00 	cp.b	r12,r8
80002694:	c0 e0       	breq	800026b0 <sd_mmc_spi_read_sector_to_ram+0xb0>
  {
    spi_write(SD_MMC_SPI,0xFF);
80002696:	e0 6b 00 ff 	mov	r11,255
8000269a:	fe 7c 34 00 	mov	r12,-52224
8000269e:	f0 1f 00 2b 	mcall	80002748 <sd_mmc_spi_read_sector_to_ram+0x148>
    spi_unselectChip(SD_MMC_SPI, SD_MMC_SPI_NPCS);  // unselect SD_MMC_SPI
800026a2:	30 0b       	mov	r11,0
800026a4:	fe 7c 34 00 	mov	r12,-52224
800026a8:	f0 1f 00 26 	mcall	80002740 <sd_mmc_spi_read_sector_to_ram+0x140>
800026ac:	30 0c       	mov	r12,0
    return false;
800026ae:	c3 98       	rjmp	80002720 <sd_mmc_spi_read_sector_to_ram+0x120>
//!   The read succeeded   -> true
//!   The read failed (bad address, etc.)  -> false
//!/
bool sd_mmc_spi_read_sector_to_ram(void *ram)
{
  uint8_t *_ram = ram;
800026b0:	06 97       	mov	r7,r3
//!
//! @return bit
//!   The read succeeded   -> true
//!   The read failed (bad address, etc.)  -> false
//!/
bool sd_mmc_spi_read_sector_to_ram(void *ram)
800026b2:	e6 c5 fe 00 	sub	r5,r3,-512
  }

  // store datablock
  for(i=0;i<MMC_SECTOR_SIZE;i++)
  {
    spi_write(SD_MMC_SPI,0xFF);
800026b6:	e0 64 00 ff 	mov	r4,255
800026ba:	fe 76 34 00 	mov	r6,-52224
    spi_read(SD_MMC_SPI,&data_read);
800026be:	fa c3 ff fe 	sub	r3,sp,-2
  }

  // store datablock
  for(i=0;i<MMC_SECTOR_SIZE;i++)
  {
    spi_write(SD_MMC_SPI,0xFF);
800026c2:	08 9b       	mov	r11,r4
800026c4:	0c 9c       	mov	r12,r6
800026c6:	f0 1f 00 21 	mcall	80002748 <sd_mmc_spi_read_sector_to_ram+0x148>
    spi_read(SD_MMC_SPI,&data_read);
800026ca:	06 9b       	mov	r11,r3
800026cc:	0c 9c       	mov	r12,r6
800026ce:	f0 1f 00 20 	mcall	8000274c <sd_mmc_spi_read_sector_to_ram+0x14c>
    *_ram++=data_read;
800026d2:	9a 18       	ld.sh	r8,sp[0x2]
800026d4:	0e c8       	st.b	r7++,r8
    spi_unselectChip(SD_MMC_SPI, SD_MMC_SPI_NPCS);  // unselect SD_MMC_SPI
    return false;
  }

  // store datablock
  for(i=0;i<MMC_SECTOR_SIZE;i++)
800026d6:	0a 37       	cp.w	r7,r5
800026d8:	cf 51       	brne	800026c2 <sd_mmc_spi_read_sector_to_ram+0xc2>
  {
    spi_write(SD_MMC_SPI,0xFF);
    spi_read(SD_MMC_SPI,&data_read);
    *_ram++=data_read;
  }
  gl_ptr_mem += 512;     // Update the memory pointer.
800026da:	49 78       	lddpc	r8,80002734 <sd_mmc_spi_read_sector_to_ram+0x134>
800026dc:	70 09       	ld.w	r9,r8[0x0]
800026de:	f2 c9 fe 00 	sub	r9,r9,-512
800026e2:	91 09       	st.w	r8[0x0],r9

  // load 16-bit CRC (ignored)
  spi_write(SD_MMC_SPI,0xFF);
800026e4:	e0 6b 00 ff 	mov	r11,255
800026e8:	fe 7c 34 00 	mov	r12,-52224
800026ec:	f0 1f 00 17 	mcall	80002748 <sd_mmc_spi_read_sector_to_ram+0x148>
  spi_write(SD_MMC_SPI,0xFF);
800026f0:	e0 6b 00 ff 	mov	r11,255
800026f4:	fe 7c 34 00 	mov	r12,-52224
800026f8:	f0 1f 00 14 	mcall	80002748 <sd_mmc_spi_read_sector_to_ram+0x148>

  // continue delivering some clock cycles
  spi_write(SD_MMC_SPI,0xFF);
800026fc:	e0 6b 00 ff 	mov	r11,255
80002700:	fe 7c 34 00 	mov	r12,-52224
80002704:	f0 1f 00 11 	mcall	80002748 <sd_mmc_spi_read_sector_to_ram+0x148>
  spi_write(SD_MMC_SPI,0xFF);
80002708:	e0 6b 00 ff 	mov	r11,255
8000270c:	fe 7c 34 00 	mov	r12,-52224
80002710:	f0 1f 00 0e 	mcall	80002748 <sd_mmc_spi_read_sector_to_ram+0x148>

  // release chip select
  spi_unselectChip(SD_MMC_SPI, SD_MMC_SPI_NPCS);  // unselect SD_MMC_SPI
80002714:	30 0b       	mov	r11,0
80002716:	fe 7c 34 00 	mov	r12,-52224
8000271a:	f0 1f 00 0a 	mcall	80002740 <sd_mmc_spi_read_sector_to_ram+0x140>
8000271e:	30 1c       	mov	r12,1

  return true;   // Read done.
}
80002720:	2f fd       	sub	sp,-4
80002722:	e3 cd 80 f8 	ldm	sp++,r3-r7,pc
80002726:	00 00       	add	r0,r0
80002728:	80 00       	ld.sh	r0,r0[0x0]
8000272a:	21 58       	sub	r8,21
8000272c:	80 00       	ld.sh	r0,r0[0x0]
8000272e:	32 9e       	mov	lr,41
80002730:	00 00       	add	r0,r0
80002732:	04 0e       	add	lr,r2
80002734:	00 00       	add	r0,r0
80002736:	00 10       	sub	r0,r0
80002738:	80 00       	ld.sh	r0,r0[0x0]
8000273a:	21 ec       	sub	r12,30
8000273c:	00 00       	add	r0,r0
8000273e:	04 20       	rsub	r0,r2
80002740:	80 00       	ld.sh	r0,r0[0x0]
80002742:	32 ea       	mov	r10,46
80002744:	80 00       	ld.sh	r0,r0[0x0]
80002746:	21 24       	sub	r4,18
80002748:	80 00       	ld.sh	r0,r0[0x0]
8000274a:	33 ce       	mov	lr,60
8000274c:	80 00       	ld.sh	r0,r0[0x0]
8000274e:	33 ea       	mov	r10,62

80002750 <sd_mmc_spi_get_csd>:
//! @param  buffer to fill
//!
//! @return bit
//!         true / false
bool sd_mmc_spi_get_csd(uint8_t *buffer)
{
80002750:	eb cd 40 fc 	pushm	r2-r7,lr
80002754:	20 1d       	sub	sp,4
80002756:	18 92       	mov	r2,r12
uint8_t retry;
unsigned short data_read;
  // wait for MMC not busy
  if (false == sd_mmc_spi_wait_not_busy())
80002758:	f0 1f 00 32 	mcall	80002820 <sd_mmc_spi_get_csd+0xd0>
8000275c:	c5 f0       	breq	8000281a <sd_mmc_spi_get_csd+0xca>
    return false;

  spi_selectChip(SD_MMC_SPI, SD_MMC_SPI_NPCS);    // select SD_MMC_SPI
8000275e:	30 0b       	mov	r11,0
80002760:	fe 7c 34 00 	mov	r12,-52224
80002764:	f0 1f 00 30 	mcall	80002824 <sd_mmc_spi_get_csd+0xd4>
  // issue command
  r1 = sd_mmc_spi_command(MMC_SEND_CSD, 0);
80002768:	30 0b       	mov	r11,0
8000276a:	30 9c       	mov	r12,9
8000276c:	f0 1f 00 2f 	mcall	80002828 <sd_mmc_spi_get_csd+0xd8>
80002770:	4a f8       	lddpc	r8,8000282c <sd_mmc_spi_get_csd+0xdc>
80002772:	b0 8c       	st.b	r8[0x0],r12
  // check for valid response
  if(r1 != 0x00)
80002774:	58 0c       	cp.w	r12,0
80002776:	c0 81       	brne	80002786 <sd_mmc_spi_get_csd+0x36>
80002778:	30 07       	mov	r7,0
    sd_mmc_spi_init_done = false;
    return false;
  }
  // wait for block start
  retry = 0;
  while((r1 = sd_mmc_spi_send_and_read(0xFF)) != MMC_STARTBLOCK_READ)
8000277a:	e0 64 00 ff 	mov	r4,255
8000277e:	10 93       	mov	r3,r8
80002780:	3f e6       	mov	r6,-2
  {
    if (retry > 8)
80002782:	30 95       	mov	r5,9
80002784:	c1 78       	rjmp	800027b2 <sd_mmc_spi_get_csd+0x62>
  // issue command
  r1 = sd_mmc_spi_command(MMC_SEND_CSD, 0);
  // check for valid response
  if(r1 != 0x00)
  {
    spi_unselectChip(SD_MMC_SPI, SD_MMC_SPI_NPCS);  // unselect SD_MMC_SPI
80002786:	30 0b       	mov	r11,0
80002788:	fe 7c 34 00 	mov	r12,-52224
8000278c:	f0 1f 00 29 	mcall	80002830 <sd_mmc_spi_get_csd+0xe0>
    sd_mmc_spi_init_done = false;
80002790:	30 09       	mov	r9,0
80002792:	4a 98       	lddpc	r8,80002834 <sd_mmc_spi_get_csd+0xe4>
80002794:	b0 89       	st.b	r8[0x0],r9
80002796:	30 0c       	mov	r12,0
    return false;
80002798:	c4 18       	rjmp	8000281a <sd_mmc_spi_get_csd+0xca>
  }
  // wait for block start
  retry = 0;
  while((r1 = sd_mmc_spi_send_and_read(0xFF)) != MMC_STARTBLOCK_READ)
  {
    if (retry > 8)
8000279a:	ea 07 18 00 	cp.b	r7,r5
8000279e:	c0 81       	brne	800027ae <sd_mmc_spi_get_csd+0x5e>
    {
      spi_unselectChip(SD_MMC_SPI, SD_MMC_SPI_NPCS);  // unselect SD_MMC_SPI
800027a0:	30 0b       	mov	r11,0
800027a2:	fe 7c 34 00 	mov	r12,-52224
800027a6:	f0 1f 00 23 	mcall	80002830 <sd_mmc_spi_get_csd+0xe0>
800027aa:	30 0c       	mov	r12,0
      return false;
800027ac:	c3 78       	rjmp	8000281a <sd_mmc_spi_get_csd+0xca>
    }
    retry++;
800027ae:	2f f7       	sub	r7,-1
800027b0:	5c 57       	castu.b	r7
    sd_mmc_spi_init_done = false;
    return false;
  }
  // wait for block start
  retry = 0;
  while((r1 = sd_mmc_spi_send_and_read(0xFF)) != MMC_STARTBLOCK_READ)
800027b2:	08 9c       	mov	r12,r4
800027b4:	f0 1f 00 21 	mcall	80002838 <sd_mmc_spi_get_csd+0xe8>
800027b8:	a6 8c       	st.b	r3[0x0],r12
800027ba:	ec 0c 18 00 	cp.b	r12,r6
800027be:	ce e1       	brne	8000279a <sd_mmc_spi_get_csd+0x4a>
800027c0:	30 07       	mov	r7,0
    retry++;
  }
  // store valid data block
  for (retry = 0; retry <16; retry++)
  {
   spi_write(SD_MMC_SPI,0xFF);
800027c2:	e0 65 00 ff 	mov	r5,255
800027c6:	fe 76 34 00 	mov	r6,-52224
   spi_read(SD_MMC_SPI,&data_read);
800027ca:	fa c4 ff fe 	sub	r4,sp,-2
    retry++;
  }
  // store valid data block
  for (retry = 0; retry <16; retry++)
  {
   spi_write(SD_MMC_SPI,0xFF);
800027ce:	0a 9b       	mov	r11,r5
800027d0:	0c 9c       	mov	r12,r6
800027d2:	f0 1f 00 1b 	mcall	8000283c <sd_mmc_spi_get_csd+0xec>
   spi_read(SD_MMC_SPI,&data_read);
800027d6:	08 9b       	mov	r11,r4
800027d8:	0c 9c       	mov	r12,r6
800027da:	f0 1f 00 1a 	mcall	80002840 <sd_mmc_spi_get_csd+0xf0>
    buffer[retry] = data_read;
800027de:	9a 18       	ld.sh	r8,sp[0x2]
800027e0:	e4 07 0b 08 	st.b	r2[r7],r8
800027e4:	2f f7       	sub	r7,-1
      return false;
    }
    retry++;
  }
  // store valid data block
  for (retry = 0; retry <16; retry++)
800027e6:	59 07       	cp.w	r7,16
800027e8:	cf 31       	brne	800027ce <sd_mmc_spi_get_csd+0x7e>
  {
   spi_write(SD_MMC_SPI,0xFF);
   spi_read(SD_MMC_SPI,&data_read);
    buffer[retry] = data_read;
  }
   spi_write(SD_MMC_SPI,0xFF);   // load CRC (not used)
800027ea:	e0 6b 00 ff 	mov	r11,255
800027ee:	fe 7c 34 00 	mov	r12,-52224
800027f2:	f0 1f 00 13 	mcall	8000283c <sd_mmc_spi_get_csd+0xec>
   spi_write(SD_MMC_SPI,0xFF);
800027f6:	e0 6b 00 ff 	mov	r11,255
800027fa:	fe 7c 34 00 	mov	r12,-52224
800027fe:	f0 1f 00 10 	mcall	8000283c <sd_mmc_spi_get_csd+0xec>
   spi_write(SD_MMC_SPI,0xFF);   // give clock again to end transaction
80002802:	e0 6b 00 ff 	mov	r11,255
80002806:	fe 7c 34 00 	mov	r12,-52224
8000280a:	f0 1f 00 0d 	mcall	8000283c <sd_mmc_spi_get_csd+0xec>
  spi_unselectChip(SD_MMC_SPI, SD_MMC_SPI_NPCS);  // unselect SD_MMC_SPI
8000280e:	30 0b       	mov	r11,0
80002810:	fe 7c 34 00 	mov	r12,-52224
80002814:	f0 1f 00 07 	mcall	80002830 <sd_mmc_spi_get_csd+0xe0>
80002818:	30 1c       	mov	r12,1
  return true;
}
8000281a:	2f fd       	sub	sp,-4
8000281c:	e3 cd 80 fc 	ldm	sp++,r2-r7,pc
80002820:	80 00       	ld.sh	r0,r0[0x0]
80002822:	21 58       	sub	r8,21
80002824:	80 00       	ld.sh	r0,r0[0x0]
80002826:	32 9e       	mov	lr,41
80002828:	80 00       	ld.sh	r0,r0[0x0]
8000282a:	21 ec       	sub	r12,30
8000282c:	00 00       	add	r0,r0
8000282e:	04 20       	rsub	r0,r2
80002830:	80 00       	ld.sh	r0,r0[0x0]
80002832:	32 ea       	mov	r10,46
80002834:	00 00       	add	r0,r0
80002836:	00 28       	rsub	r8,r0
80002838:	80 00       	ld.sh	r0,r0[0x0]
8000283a:	21 24       	sub	r4,18
8000283c:	80 00       	ld.sh	r0,r0[0x0]
8000283e:	33 ce       	mov	lr,60
80002840:	80 00       	ld.sh	r0,r0[0x0]
80002842:	33 ea       	mov	r10,62

80002844 <sd_mmc_spi_internal_init>:
//!
//!
//! @return bit
//!   The memory is ready     -> true (always)
bool sd_mmc_spi_internal_init(void)
{
80002844:	d4 31       	pushm	r0-r7,lr
  uint16_t retry;
  int i;
  int if_cond;

  // Start at low frequency
  sd_mmc_opt.baudrate = 400000;
80002846:	fe fb 02 66 	ld.w	r11,pc[614]
8000284a:	e6 68 1a 80 	mov	r8,400000
8000284e:	97 18       	st.w	r11[0x4],r8
  spi_setupChipReg(SD_MMC_SPI, &sd_mmc_opt, sd_mmc_pba_hz);
80002850:	fe f8 02 60 	ld.w	r8,pc[608]
80002854:	70 0a       	ld.w	r10,r8[0x0]
80002856:	fe 7c 34 00 	mov	r12,-52224
8000285a:	f0 1f 00 97 	mcall	80002ab4 <sd_mmc_spi_internal_init+0x270>

  /* card needs 74 cycles minimum to start up */
  spi_selectChip(SD_MMC_SPI, SD_MMC_SPI_NPCS);    // select SD_MMC_SPI
8000285e:	30 0b       	mov	r11,0
80002860:	fe 7c 34 00 	mov	r12,-52224
80002864:	f0 1f 00 95 	mcall	80002ab8 <sd_mmc_spi_internal_init+0x274>
80002868:	30 07       	mov	r7,0
  for(i = 0; i < 10; ++i) {
    spi_write(SD_MMC_SPI,0xFF);
8000286a:	e0 66 00 ff 	mov	r6,255
8000286e:	fe 75 34 00 	mov	r5,-52224
80002872:	0c 9b       	mov	r11,r6
80002874:	0a 9c       	mov	r12,r5
80002876:	f0 1f 00 92 	mcall	80002abc <sd_mmc_spi_internal_init+0x278>
  sd_mmc_opt.baudrate = 400000;
  spi_setupChipReg(SD_MMC_SPI, &sd_mmc_opt, sd_mmc_pba_hz);

  /* card needs 74 cycles minimum to start up */
  spi_selectChip(SD_MMC_SPI, SD_MMC_SPI_NPCS);    // select SD_MMC_SPI
  for(i = 0; i < 10; ++i) {
8000287a:	2f f7       	sub	r7,-1
8000287c:	58 a7       	cp.w	r7,10
8000287e:	cf a1       	brne	80002872 <sd_mmc_spi_internal_init+0x2e>
    spi_write(SD_MMC_SPI,0xFF);
  }
  spi_unselectChip(SD_MMC_SPI, SD_MMC_SPI_NPCS);  // unselect SD_MMC_SPI
80002880:	30 0b       	mov	r11,0
80002882:	fe 7c 34 00 	mov	r12,-52224
80002886:	f0 1f 00 8f 	mcall	80002ac0 <sd_mmc_spi_internal_init+0x27c>

  // RESET THE MEMORY CARD
  sd_mmc_spi_init_done = false;
8000288a:	30 08       	mov	r8,0
8000288c:	fe f9 02 38 	ld.w	r9,pc[568]
80002890:	b2 88       	st.b	r9[0x0],r8
  card_type = MMC_CARD;
80002892:	fe f9 02 36 	ld.w	r9,pc[566]
80002896:	b2 88       	st.b	r9[0x0],r8
  retry = 0;
  do
  {
    // reset card and go to SPI mode
    r1 = sd_mmc_spi_send_command(MMC_GO_IDLE_STATE, 0);
80002898:	30 0b       	mov	r11,0
8000289a:	16 9c       	mov	r12,r11
8000289c:	f0 1f 00 8c 	mcall	80002acc <sd_mmc_spi_internal_init+0x288>
800028a0:	fe f8 02 30 	ld.w	r8,pc[560]
800028a4:	b0 8c       	st.b	r8[0x0],r12
    spi_write(SD_MMC_SPI,0xFF);            // write dummy byte
800028a6:	e0 6b 00 ff 	mov	r11,255
800028aa:	fe 7c 34 00 	mov	r12,-52224
800028ae:	f0 1f 00 84 	mcall	80002abc <sd_mmc_spi_internal_init+0x278>
800028b2:	30 17       	mov	r7,1
    // do retry counter
    retry++;
    if(retry > 100)
      return false;
  }
  while(r1 != 0x01);   // check memory enters idle_state
800028b4:	fe f6 02 1c 	ld.w	r6,pc[540]
800028b8:	30 15       	mov	r5,1
  card_type = MMC_CARD;
  retry = 0;
  do
  {
    // reset card and go to SPI mode
    r1 = sd_mmc_spi_send_command(MMC_GO_IDLE_STATE, 0);
800028ba:	30 03       	mov	r3,0
    spi_write(SD_MMC_SPI,0xFF);            // write dummy byte
800028bc:	e0 62 00 ff 	mov	r2,255
800028c0:	fe 71 34 00 	mov	r1,-52224
    // do retry counter
    retry++;
    if(retry > 100)
800028c4:	36 54       	mov	r4,101
800028c6:	c1 08       	rjmp	800028e6 <sd_mmc_spi_internal_init+0xa2>
  card_type = MMC_CARD;
  retry = 0;
  do
  {
    // reset card and go to SPI mode
    r1 = sd_mmc_spi_send_command(MMC_GO_IDLE_STATE, 0);
800028c8:	06 9b       	mov	r11,r3
800028ca:	06 9c       	mov	r12,r3
800028cc:	f0 1f 00 80 	mcall	80002acc <sd_mmc_spi_internal_init+0x288>
800028d0:	ac 8c       	st.b	r6[0x0],r12
    spi_write(SD_MMC_SPI,0xFF);            // write dummy byte
800028d2:	04 9b       	mov	r11,r2
800028d4:	02 9c       	mov	r12,r1
800028d6:	f0 1f 00 7a 	mcall	80002abc <sd_mmc_spi_internal_init+0x278>
    // do retry counter
    retry++;
800028da:	2f f7       	sub	r7,-1
800028dc:	5c 87       	casts.h	r7
    if(retry > 100)
800028de:	e8 07 19 00 	cp.h	r7,r4
800028e2:	e0 80 00 e4 	breq	80002aaa <sd_mmc_spi_internal_init+0x266>
      return false;
  }
  while(r1 != 0x01);   // check memory enters idle_state
800028e6:	0d 88       	ld.ub	r8,r6[0x0]
800028e8:	ea 08 18 00 	cp.b	r8,r5
800028ec:	ce e1       	brne	800028c8 <sd_mmc_spi_internal_init+0x84>

  if_cond = sd_mmc_spi_get_if();
800028ee:	f0 1f 00 7a 	mcall	80002ad4 <sd_mmc_spi_internal_init+0x290>
  if(if_cond == -1) {
800028f2:	5b fc       	cp.w	r12,-1
800028f4:	e0 80 00 db 	breq	80002aaa <sd_mmc_spi_internal_init+0x266>
      return false; // card is bad
  } else if (if_cond == 1) {
800028f8:	58 1c       	cp.w	r12,1
800028fa:	c0 51       	brne	80002904 <sd_mmc_spi_internal_init+0xc0>
      card_type = SD_CARD_2;
800028fc:	30 29       	mov	r9,2
800028fe:	4f 38       	lddpc	r8,80002ac8 <sd_mmc_spi_internal_init+0x284>
80002900:	b0 89       	st.b	r8[0x0],r9
80002902:	c4 c8       	rjmp	8000299a <sd_mmc_spi_internal_init+0x156>
  } else {
    // IDENTIFICATION OF THE CARD TYPE (SD or MMC)
    // Both cards will accept CMD55 command but only the SD card will respond to ACMD41
    r1 = sd_mmc_spi_send_command(SD_APP_CMD55,0);
80002904:	30 0b       	mov	r11,0
80002906:	33 7c       	mov	r12,55
80002908:	f0 1f 00 71 	mcall	80002acc <sd_mmc_spi_internal_init+0x288>
8000290c:	4f 17       	lddpc	r7,80002ad0 <sd_mmc_spi_internal_init+0x28c>
8000290e:	ae 8c       	st.b	r7[0x0],r12
    spi_write(SD_MMC_SPI,0xFF);  // write dummy byte
80002910:	e0 6b 00 ff 	mov	r11,255
80002914:	fe 7c 34 00 	mov	r12,-52224
80002918:	f0 1f 00 69 	mcall	80002abc <sd_mmc_spi_internal_init+0x278>

    r1 = sd_mmc_spi_send_command(SD_SEND_OP_COND_ACMD, 0);
8000291c:	30 0b       	mov	r11,0
8000291e:	32 9c       	mov	r12,41
80002920:	f0 1f 00 6b 	mcall	80002acc <sd_mmc_spi_internal_init+0x288>
80002924:	ae 8c       	st.b	r7[0x0],r12
    spi_write(SD_MMC_SPI,0xFF);  // write dummy byte
80002926:	e0 6b 00 ff 	mov	r11,255
8000292a:	fe 7c 34 00 	mov	r12,-52224
8000292e:	f0 1f 00 64 	mcall	80002abc <sd_mmc_spi_internal_init+0x278>

    if ((r1&0xFE) == 0) {   // ignore "in_idle_state" flag bit
80002932:	0f 88       	ld.ub	r8,r7[0x0]
80002934:	e2 18 00 fe 	andl	r8,0xfe,COH
80002938:	c0 51       	brne	80002942 <sd_mmc_spi_internal_init+0xfe>
      card_type = SD_CARD;    // card has accepted the command, this is a SD card
8000293a:	30 19       	mov	r9,1
8000293c:	4e 38       	lddpc	r8,80002ac8 <sd_mmc_spi_internal_init+0x284>
8000293e:	b0 89       	st.b	r8[0x0],r9
80002940:	c2 d8       	rjmp	8000299a <sd_mmc_spi_internal_init+0x156>
    } else {
      card_type = MMC_CARD;   // card has not responded, this is a MMC card
80002942:	30 09       	mov	r9,0
80002944:	4e 18       	lddpc	r8,80002ac8 <sd_mmc_spi_internal_init+0x284>
80002946:	b0 89       	st.b	r8[0x0],r9
      // reset card again
      retry = 0;
      do {
        // reset card again
        r1 = sd_mmc_spi_send_command(MMC_GO_IDLE_STATE, 0);
80002948:	30 0b       	mov	r11,0
8000294a:	16 9c       	mov	r12,r11
8000294c:	f0 1f 00 60 	mcall	80002acc <sd_mmc_spi_internal_init+0x288>
80002950:	4e 08       	lddpc	r8,80002ad0 <sd_mmc_spi_internal_init+0x28c>
80002952:	b0 8c       	st.b	r8[0x0],r12
        spi_write(SD_MMC_SPI,0xFF);            // write dummy byte
80002954:	e0 6b 00 ff 	mov	r11,255
80002958:	fe 7c 34 00 	mov	r12,-52224
8000295c:	f0 1f 00 58 	mcall	80002abc <sd_mmc_spi_internal_init+0x278>
80002960:	30 17       	mov	r7,1
        // do retry counter
        retry++;
        if(retry > 100)
          return false;
      }
      while(r1 != 0x01);   // check memory enters idle_state
80002962:	4d c6       	lddpc	r6,80002ad0 <sd_mmc_spi_internal_init+0x28c>
80002964:	30 15       	mov	r5,1
      card_type = MMC_CARD;   // card has not responded, this is a MMC card
      // reset card again
      retry = 0;
      do {
        // reset card again
        r1 = sd_mmc_spi_send_command(MMC_GO_IDLE_STATE, 0);
80002966:	30 03       	mov	r3,0
        spi_write(SD_MMC_SPI,0xFF);            // write dummy byte
80002968:	e0 62 00 ff 	mov	r2,255
8000296c:	fe 71 34 00 	mov	r1,-52224
        // do retry counter
        retry++;
        if(retry > 100)
80002970:	36 54       	mov	r4,101
80002972:	c1 08       	rjmp	80002992 <sd_mmc_spi_internal_init+0x14e>
      card_type = MMC_CARD;   // card has not responded, this is a MMC card
      // reset card again
      retry = 0;
      do {
        // reset card again
        r1 = sd_mmc_spi_send_command(MMC_GO_IDLE_STATE, 0);
80002974:	06 9b       	mov	r11,r3
80002976:	06 9c       	mov	r12,r3
80002978:	f0 1f 00 55 	mcall	80002acc <sd_mmc_spi_internal_init+0x288>
8000297c:	ac 8c       	st.b	r6[0x0],r12
        spi_write(SD_MMC_SPI,0xFF);            // write dummy byte
8000297e:	04 9b       	mov	r11,r2
80002980:	02 9c       	mov	r12,r1
80002982:	f0 1f 00 4f 	mcall	80002abc <sd_mmc_spi_internal_init+0x278>
        // do retry counter
        retry++;
80002986:	2f f7       	sub	r7,-1
80002988:	5c 87       	casts.h	r7
        if(retry > 100)
8000298a:	e8 07 19 00 	cp.h	r7,r4
8000298e:	e0 80 00 8e 	breq	80002aaa <sd_mmc_spi_internal_init+0x266>
          return false;
      }
      while(r1 != 0x01);   // check memory enters idle_state
80002992:	0d 88       	ld.ub	r8,r6[0x0]
80002994:	ea 08 18 00 	cp.b	r8,r5
80002998:	ce e1       	brne	80002974 <sd_mmc_spi_internal_init+0x130>
8000299a:	30 07       	mov	r7,0

  // CONTINUE INTERNAL INITIALIZATION OF THE CARD
  // Continue sending CMD1 while memory card is in idle state
  retry = 0;
  do {
    switch(card_type) {
8000299c:	4c b4       	lddpc	r4,80002ac8 <sd_mmc_spi_internal_init+0x284>
8000299e:	30 15       	mov	r5,1
    case MMC_CARD:
      r1 = sd_mmc_spi_send_command(MMC_SEND_OP_COND, 0);
      spi_write(SD_MMC_SPI,0xFF);            // write dummy byte
      break;
    case SD_CARD:
      sd_mmc_spi_send_command(SD_APP_CMD55,0);
800029a0:	0e 93       	mov	r3,r7
800029a2:	33 70       	mov	r0,55
      r1 = sd_mmc_spi_send_command(SD_SEND_OP_COND_ACMD, 0);
800029a4:	4c b6       	lddpc	r6,80002ad0 <sd_mmc_spi_internal_init+0x28c>
      spi_write(SD_MMC_SPI,0xFF);            // write dummy byte
800029a6:	e0 62 00 ff 	mov	r2,255
800029aa:	fe 71 34 00 	mov	r1,-52224

  // CONTINUE INTERNAL INITIALIZATION OF THE CARD
  // Continue sending CMD1 while memory card is in idle state
  retry = 0;
  do {
    switch(card_type) {
800029ae:	09 88       	ld.ub	r8,r4[0x0]
800029b0:	ea 08 18 00 	cp.b	r8,r5
800029b4:	c1 10       	breq	800029d6 <sd_mmc_spi_internal_init+0x192>
800029b6:	c0 63       	brcs	800029c2 <sd_mmc_spi_internal_init+0x17e>
800029b8:	30 29       	mov	r9,2
800029ba:	f2 08 18 00 	cp.b	r8,r9
800029be:	c2 81       	brne	80002a0e <sd_mmc_spi_internal_init+0x1ca>
800029c0:	c1 98       	rjmp	800029f2 <sd_mmc_spi_internal_init+0x1ae>
    case MMC_CARD:
      r1 = sd_mmc_spi_send_command(MMC_SEND_OP_COND, 0);
800029c2:	06 9b       	mov	r11,r3
800029c4:	30 1c       	mov	r12,1
800029c6:	f0 1f 00 42 	mcall	80002acc <sd_mmc_spi_internal_init+0x288>
800029ca:	ac 8c       	st.b	r6[0x0],r12
      spi_write(SD_MMC_SPI,0xFF);            // write dummy byte
800029cc:	04 9b       	mov	r11,r2
800029ce:	02 9c       	mov	r12,r1
800029d0:	f0 1f 00 3b 	mcall	80002abc <sd_mmc_spi_internal_init+0x278>
      break;
800029d4:	c1 d8       	rjmp	80002a0e <sd_mmc_spi_internal_init+0x1ca>
    case SD_CARD:
      sd_mmc_spi_send_command(SD_APP_CMD55,0);
800029d6:	06 9b       	mov	r11,r3
800029d8:	00 9c       	mov	r12,r0
800029da:	f0 1f 00 3d 	mcall	80002acc <sd_mmc_spi_internal_init+0x288>
      r1 = sd_mmc_spi_send_command(SD_SEND_OP_COND_ACMD, 0);
800029de:	06 9b       	mov	r11,r3
800029e0:	32 9c       	mov	r12,41
800029e2:	f0 1f 00 3b 	mcall	80002acc <sd_mmc_spi_internal_init+0x288>
800029e6:	ac 8c       	st.b	r6[0x0],r12
      spi_write(SD_MMC_SPI,0xFF);            // write dummy byte
800029e8:	04 9b       	mov	r11,r2
800029ea:	02 9c       	mov	r12,r1
800029ec:	f0 1f 00 34 	mcall	80002abc <sd_mmc_spi_internal_init+0x278>
      break;
800029f0:	c0 f8       	rjmp	80002a0e <sd_mmc_spi_internal_init+0x1ca>
    case SD_CARD_2:
      // set high capacity bit mask
      sd_mmc_spi_send_command(SD_APP_CMD55,0);
800029f2:	06 9b       	mov	r11,r3
800029f4:	00 9c       	mov	r12,r0
800029f6:	f0 1f 00 36 	mcall	80002acc <sd_mmc_spi_internal_init+0x288>
      r1 = sd_mmc_spi_send_command(SD_SEND_OP_COND_ACMD, 0x40000000);
800029fa:	fc 1b 40 00 	movh	r11,0x4000
800029fe:	32 9c       	mov	r12,41
80002a00:	f0 1f 00 33 	mcall	80002acc <sd_mmc_spi_internal_init+0x288>
80002a04:	ac 8c       	st.b	r6[0x0],r12
      spi_write(SD_MMC_SPI,0xFF);            // write dummy byte
80002a06:	04 9b       	mov	r11,r2
80002a08:	02 9c       	mov	r12,r1
80002a0a:	f0 1f 00 2d 	mcall	80002abc <sd_mmc_spi_internal_init+0x278>
      break;
    }
     // do retry counter
     retry++;
80002a0e:	2f f7       	sub	r7,-1
80002a10:	5c 87       	casts.h	r7
     if(retry == 50000)    // measured approx. 500 on several cards
80002a12:	fe 78 c3 50 	mov	r8,-15536
80002a16:	f0 07 19 00 	cp.h	r7,r8
80002a1a:	c4 80       	breq	80002aaa <sd_mmc_spi_internal_init+0x266>
        return false;
  } while (r1);
80002a1c:	0d 89       	ld.ub	r9,r6[0x0]
80002a1e:	30 08       	mov	r8,0
80002a20:	f0 09 18 00 	cp.b	r9,r8
80002a24:	cc 51       	brne	800029ae <sd_mmc_spi_internal_init+0x16a>

  // CHECK FOR SDHC
  if(card_type == SD_CARD_2) {
80002a26:	4a 98       	lddpc	r8,80002ac8 <sd_mmc_spi_internal_init+0x284>
80002a28:	11 89       	ld.ub	r9,r8[0x0]
80002a2a:	30 28       	mov	r8,2
80002a2c:	f0 09 18 00 	cp.b	r9,r8
80002a30:	c0 a1       	brne	80002a44 <sd_mmc_spi_internal_init+0x200>
    if_cond = sd_mmc_spi_check_hc();
80002a32:	f0 1f 00 2a 	mcall	80002ad8 <sd_mmc_spi_internal_init+0x294>
    if (if_cond == -1) {
80002a36:	5b fc       	cp.w	r12,-1
80002a38:	c3 90       	breq	80002aaa <sd_mmc_spi_internal_init+0x266>
      return false;
    } else if (if_cond == 1){
80002a3a:	58 1c       	cp.w	r12,1
80002a3c:	c0 41       	brne	80002a44 <sd_mmc_spi_internal_init+0x200>
          card_type = SD_CARD_2_SDHC;
80002a3e:	30 39       	mov	r9,3
80002a40:	4a 28       	lddpc	r8,80002ac8 <sd_mmc_spi_internal_init+0x284>
80002a42:	b0 89       	st.b	r8[0x0],r9
      }
  }

  // DISABLE CRC TO SIMPLIFY AND SPEED UP COMMUNICATIONS
  r1 = sd_mmc_spi_send_command(MMC_CRC_ON_OFF, 0);  // disable CRC (should be already initialized on SPI init)
80002a44:	30 0b       	mov	r11,0
80002a46:	33 bc       	mov	r12,59
80002a48:	f0 1f 00 21 	mcall	80002acc <sd_mmc_spi_internal_init+0x288>
80002a4c:	4a 17       	lddpc	r7,80002ad0 <sd_mmc_spi_internal_init+0x28c>
80002a4e:	ae 8c       	st.b	r7[0x0],r12
  spi_write(SD_MMC_SPI,0xFF);            // write dummy byte
80002a50:	e0 6b 00 ff 	mov	r11,255
80002a54:	fe 7c 34 00 	mov	r12,-52224
80002a58:	f0 1f 00 19 	mcall	80002abc <sd_mmc_spi_internal_init+0x278>

  // SET BLOCK LENGTH TO 512 BYTES
  r1 = sd_mmc_spi_send_command(MMC_SET_BLOCKLEN, 512);
80002a5c:	e0 6b 02 00 	mov	r11,512
80002a60:	31 0c       	mov	r12,16
80002a62:	f0 1f 00 1b 	mcall	80002acc <sd_mmc_spi_internal_init+0x288>
80002a66:	ae 8c       	st.b	r7[0x0],r12
  spi_write(SD_MMC_SPI,0xFF);            // write dummy byte
80002a68:	e0 6b 00 ff 	mov	r11,255
80002a6c:	fe 7c 34 00 	mov	r12,-52224
80002a70:	f0 1f 00 13 	mcall	80002abc <sd_mmc_spi_internal_init+0x278>
  if (r1 != 0x00)
80002a74:	0f 89       	ld.ub	r9,r7[0x0]
80002a76:	30 08       	mov	r8,0
80002a78:	f0 09 18 00 	cp.b	r9,r8
80002a7c:	c1 71       	brne	80002aaa <sd_mmc_spi_internal_init+0x266>
    return false;    // card unsupported if block length of 512b is not accepted

  // GET CARD SPECIFIC DATA
  if (false ==  sd_mmc_spi_get_csd(csd))
80002a7e:	49 8c       	lddpc	r12,80002adc <sd_mmc_spi_internal_init+0x298>
80002a80:	f0 1f 00 18 	mcall	80002ae0 <sd_mmc_spi_internal_init+0x29c>
80002a84:	c1 30       	breq	80002aaa <sd_mmc_spi_internal_init+0x266>
    return false;

  // GET CARD CAPACITY and NUMBER OF SECTORS
  sd_mmc_spi_get_capacity();
80002a86:	f0 1f 00 18 	mcall	80002ae4 <sd_mmc_spi_internal_init+0x2a0>
#if (defined SD_MMC_READ_CID) && (SD_MMC_READ_CID == true)
  if (false ==  sd_mmc_spi_get_cid(cid))
    return false;
#endif

  sd_mmc_spi_init_done = true;
80002a8a:	30 19       	mov	r9,1
80002a8c:	48 e8       	lddpc	r8,80002ac4 <sd_mmc_spi_internal_init+0x280>
80002a8e:	b0 89       	st.b	r8[0x0],r9

  // Set SPI Speed to MAX
  sd_mmc_opt.baudrate = SD_MMC_SPI_MASTER_SPEED;
80002a90:	48 7b       	lddpc	r11,80002aac <sd_mmc_spi_internal_init+0x268>
80002a92:	e0 68 1b 00 	mov	r8,6912
80002a96:	ea 18 00 b7 	orh	r8,0xb7
80002a9a:	97 18       	st.w	r11[0x4],r8
  spi_setupChipReg(SD_MMC_SPI, &sd_mmc_opt, sd_mmc_pba_hz);
80002a9c:	48 58       	lddpc	r8,80002ab0 <sd_mmc_spi_internal_init+0x26c>
80002a9e:	70 0a       	ld.w	r10,r8[0x0]
80002aa0:	fe 7c 34 00 	mov	r12,-52224
80002aa4:	f0 1f 00 04 	mcall	80002ab4 <sd_mmc_spi_internal_init+0x270>
80002aa8:	da 3a       	popm	r0-r7,pc,r12=1
  return true;
80002aaa:	d8 3a       	popm	r0-r7,pc,r12=0
80002aac:	00 00       	add	r0,r0
80002aae:	00 14       	sub	r4,r0
80002ab0:	00 00       	add	r0,r0
80002ab2:	00 24       	rsub	r4,r0
80002ab4:	80 00       	ld.sh	r0,r0[0x0]
80002ab6:	33 10       	mov	r0,49
80002ab8:	80 00       	ld.sh	r0,r0[0x0]
80002aba:	32 9e       	mov	lr,41
80002abc:	80 00       	ld.sh	r0,r0[0x0]
80002abe:	33 ce       	mov	lr,60
80002ac0:	80 00       	ld.sh	r0,r0[0x0]
80002ac2:	32 ea       	mov	r10,46
80002ac4:	00 00       	add	r0,r0
80002ac6:	00 28       	rsub	r8,r0
80002ac8:	00 00       	add	r0,r0
80002aca:	04 0e       	add	lr,r2
80002acc:	80 00       	ld.sh	r0,r0[0x0]
80002ace:	22 b4       	sub	r4,43
80002ad0:	00 00       	add	r0,r0
80002ad2:	04 20       	rsub	r0,r2
80002ad4:	80 00       	ld.sh	r0,r0[0x0]
80002ad6:	25 48       	sub	r8,84
80002ad8:	80 00       	ld.sh	r0,r0[0x0]
80002ada:	24 bc       	sub	r12,75
80002adc:	00 00       	add	r0,r0
80002ade:	04 10       	sub	r0,r2
80002ae0:	80 00       	ld.sh	r0,r0[0x0]
80002ae2:	27 50       	sub	r0,117
80002ae4:	80 00       	ld.sh	r0,r0[0x0]
80002ae6:	20 04       	sub	r4,0

80002ae8 <sd_mmc_spi_mem_check>:
//!
//! @return bit
//!   The memory is ready     -> true
//!   The memory check failed -> false
bool sd_mmc_spi_mem_check(void)
{
80002ae8:	d4 01       	pushm	lr
  if (sd_mmc_spi_check_presence())
80002aea:	f0 1f 00 07 	mcall	80002b04 <sd_mmc_spi_mem_check+0x1c>
80002aee:	c0 a0       	breq	80002b02 <sd_mmc_spi_mem_check+0x1a>
  {
    if (sd_mmc_spi_init_done == false)
80002af0:	48 68       	lddpc	r8,80002b08 <sd_mmc_spi_mem_check+0x20>
80002af2:	11 89       	ld.ub	r9,r8[0x0]
80002af4:	30 08       	mov	r8,0
80002af6:	f0 09 18 00 	cp.b	r9,r8
80002afa:	c0 20       	breq	80002afe <sd_mmc_spi_mem_check+0x16>
80002afc:	da 0a       	popm	pc,r12=1
    {
      return sd_mmc_spi_internal_init();
80002afe:	f0 1f 00 04 	mcall	80002b0c <sd_mmc_spi_mem_check+0x24>
    }
    else
      return true;
  }
  return false;
}
80002b02:	d8 02       	popm	pc
80002b04:	80 00       	ld.sh	r0,r0[0x0]
80002b06:	22 f4       	sub	r4,47
80002b08:	00 00       	add	r0,r0
80002b0a:	00 28       	rsub	r8,r0
80002b0c:	80 00       	ld.sh	r0,r0[0x0]
80002b0e:	28 44       	sub	r4,-124

80002b10 <sd_mmc_spi_init>:
//!
//!
//! @return bit
//!   The memory is ready     -> true (always)
bool sd_mmc_spi_init(spi_options_t spiOptions, unsigned int pba_hz)
{
80002b10:	eb cd 40 10 	pushm	r4,lr
80002b14:	fa c4 ff f8 	sub	r4,sp,-8
  // Keep SPI options internally
  sd_mmc_pba_hz = pba_hz;
80002b18:	48 88       	lddpc	r8,80002b38 <sd_mmc_spi_init+0x28>
80002b1a:	91 0c       	st.w	r8[0x0],r12
  memcpy( &sd_mmc_opt, &spiOptions, sizeof(spi_options_t) );
80002b1c:	48 88       	lddpc	r8,80002b3c <sd_mmc_spi_init+0x2c>
80002b1e:	68 09       	ld.w	r9,r4[0x0]
80002b20:	91 09       	st.w	r8[0x0],r9
80002b22:	68 19       	ld.w	r9,r4[0x4]
80002b24:	91 19       	st.w	r8[0x4],r9
80002b26:	68 29       	ld.w	r9,r4[0x8]
80002b28:	91 29       	st.w	r8[0x8],r9
80002b2a:	68 39       	ld.w	r9,r4[0xc]
80002b2c:	91 39       	st.w	r8[0xc],r9

  // Initialize the SD/MMC controller.
  return sd_mmc_spi_internal_init();
80002b2e:	f0 1f 00 05 	mcall	80002b40 <sd_mmc_spi_init+0x30>
}
80002b32:	e3 cd 80 10 	ldm	sp++,r4,pc
80002b36:	00 00       	add	r0,r0
80002b38:	00 00       	add	r0,r0
80002b3a:	00 24       	rsub	r4,r0
80002b3c:	00 00       	add	r0,r0
80002b3e:	00 14       	sub	r4,r0
80002b40:	80 00       	ld.sh	r0,r0[0x0]
80002b42:	28 44       	sub	r4,-124

80002b44 <sd_mmc_spi_wr_protect>:
//! @return false  -> the memory is not write-protected (always)
//!/
bool  sd_mmc_spi_wr_protect(void)
{
   return false;
}
80002b44:	5e fd       	retal	0

80002b46 <sd_mmc_spi_removal>:
//!/
bool  sd_mmc_spi_removal(void)
{
  return false;
//  return ((sd_mmc_spi_check_presence()) ? false : true);
}
80002b46:	5e fd       	retal	0

80002b48 <sd_mmc_spi_test_unit_ready>:
}



Ctrl_status sd_mmc_spi_test_unit_ready(void)
{
80002b48:	d4 01       	pushm	lr
  Sd_mmc_spi_access_signal_on();
  switch (sd_mmc_spi_presence_status)
80002b4a:	49 88       	lddpc	r8,80002ba8 <sd_mmc_spi_test_unit_ready+0x60>
80002b4c:	11 88       	ld.ub	r8,r8[0x0]
80002b4e:	30 19       	mov	r9,1
80002b50:	f2 08 18 00 	cp.b	r8,r9
80002b54:	c1 40       	breq	80002b7c <sd_mmc_spi_test_unit_ready+0x34>
80002b56:	c0 63       	brcs	80002b62 <sd_mmc_spi_test_unit_ready+0x1a>
80002b58:	30 29       	mov	r9,2
80002b5a:	f2 08 18 00 	cp.b	r8,r9
80002b5e:	c2 01       	brne	80002b9e <sd_mmc_spi_test_unit_ready+0x56>
80002b60:	c1 a8       	rjmp	80002b94 <sd_mmc_spi_test_unit_ready+0x4c>
  {
    case SD_MMC_REMOVED:
      sd_mmc_spi_init_done = false;
80002b62:	30 09       	mov	r9,0
80002b64:	49 28       	lddpc	r8,80002bac <sd_mmc_spi_test_unit_ready+0x64>
80002b66:	b0 89       	st.b	r8[0x0],r9
      if (sd_mmc_spi_mem_check())
80002b68:	f0 1f 00 12 	mcall	80002bb0 <sd_mmc_spi_test_unit_ready+0x68>
80002b6c:	c0 31       	brne	80002b72 <sd_mmc_spi_test_unit_ready+0x2a>
80002b6e:	30 2c       	mov	r12,2
80002b70:	d8 02       	popm	pc
      {
        sd_mmc_spi_presence_status = SD_MMC_INSERTED;
80002b72:	30 19       	mov	r9,1
80002b74:	48 d8       	lddpc	r8,80002ba8 <sd_mmc_spi_test_unit_ready+0x60>
80002b76:	b0 89       	st.b	r8[0x0],r9
80002b78:	30 3c       	mov	r12,3
        Sd_mmc_spi_access_signal_off();
        return CTRL_BUSY;
80002b7a:	d8 02       	popm	pc
      }
      Sd_mmc_spi_access_signal_off();
      return CTRL_NO_PRESENT;

    case SD_MMC_INSERTED:
      if (!sd_mmc_spi_mem_check())
80002b7c:	f0 1f 00 0d 	mcall	80002bb0 <sd_mmc_spi_test_unit_ready+0x68>
80002b80:	c0 20       	breq	80002b84 <sd_mmc_spi_test_unit_ready+0x3c>
80002b82:	d8 0a       	popm	pc,r12=0
      {
        sd_mmc_spi_presence_status = SD_MMC_REMOVING;
80002b84:	30 29       	mov	r9,2
80002b86:	48 98       	lddpc	r8,80002ba8 <sd_mmc_spi_test_unit_ready+0x60>
80002b88:	b0 89       	st.b	r8[0x0],r9
        sd_mmc_spi_init_done = false;
80002b8a:	30 09       	mov	r9,0
80002b8c:	48 88       	lddpc	r8,80002bac <sd_mmc_spi_test_unit_ready+0x64>
80002b8e:	b0 89       	st.b	r8[0x0],r9
80002b90:	30 3c       	mov	r12,3
        Sd_mmc_spi_access_signal_off();
        return CTRL_BUSY;
80002b92:	d8 02       	popm	pc
      }
      Sd_mmc_spi_access_signal_off();
      return CTRL_GOOD;

    case SD_MMC_REMOVING:
      sd_mmc_spi_presence_status = SD_MMC_REMOVED;
80002b94:	30 09       	mov	r9,0
80002b96:	48 58       	lddpc	r8,80002ba8 <sd_mmc_spi_test_unit_ready+0x60>
80002b98:	b0 89       	st.b	r8[0x0],r9
80002b9a:	30 2c       	mov	r12,2
      Sd_mmc_spi_access_signal_off();
      return CTRL_NO_PRESENT;
80002b9c:	d8 02       	popm	pc

    default:
      sd_mmc_spi_presence_status = SD_MMC_REMOVED;
80002b9e:	30 09       	mov	r9,0
80002ba0:	48 28       	lddpc	r8,80002ba8 <sd_mmc_spi_test_unit_ready+0x60>
80002ba2:	b0 89       	st.b	r8[0x0],r9
80002ba4:	30 3c       	mov	r12,3
    }
    else
      return CTRL_NO_PRESENT;
  }
*/
}
80002ba6:	d8 02       	popm	pc
80002ba8:	00 00       	add	r0,r0
80002baa:	00 04       	add	r4,r0
80002bac:	00 00       	add	r0,r0
80002bae:	00 28       	rsub	r8,r0
80002bb0:	80 00       	ld.sh	r0,r0[0x0]
80002bb2:	2a e8       	sub	r8,-82

80002bb4 <sd_mmc_spi_mem_init>:

//_____ D E C L A R A T I O N ______________________________________________


void sd_mmc_spi_mem_init(void)
{
80002bb4:	d4 01       	pushm	lr
  sd_mmc_spi_internal_init();        // Restart Init of SD/MMC card after previous first init
80002bb6:	f0 1f 00 02 	mcall	80002bbc <sd_mmc_spi_mem_init+0x8>
}
80002bba:	d8 02       	popm	pc
80002bbc:	80 00       	ld.sh	r0,r0[0x0]
80002bbe:	28 44       	sub	r4,-124

80002bc0 <sd_mmc_spi_ram_2_mem>:
//! @return                Ctrl_status
//!   It is ready      ->    CTRL_GOOD
//!   An error occurs  ->    CTRL_FAIL
//!
Ctrl_status    sd_mmc_spi_ram_2_mem(uint32_t addr, const void *ram)
{
80002bc0:	eb cd 40 c0 	pushm	r6-r7,lr
80002bc4:	18 96       	mov	r6,r12
80002bc6:	16 97       	mov	r7,r11
   Sd_mmc_spi_access_signal_on();
   sd_mmc_spi_check_presence();
80002bc8:	f0 1f 00 12 	mcall	80002c10 <sd_mmc_spi_ram_2_mem+0x50>

   if (!sd_mmc_spi_init_done)
80002bcc:	49 28       	lddpc	r8,80002c14 <sd_mmc_spi_ram_2_mem+0x54>
80002bce:	11 89       	ld.ub	r9,r8[0x0]
80002bd0:	30 08       	mov	r8,0
80002bd2:	f0 09 18 00 	cp.b	r9,r8
80002bd6:	c0 c1       	brne	80002bee <sd_mmc_spi_ram_2_mem+0x2e>
   {
      sd_mmc_spi_mem_init();
80002bd8:	f0 1f 00 10 	mcall	80002c18 <sd_mmc_spi_ram_2_mem+0x58>
   }

   if (sd_mmc_spi_init_done)
80002bdc:	48 e8       	lddpc	r8,80002c14 <sd_mmc_spi_ram_2_mem+0x54>
80002bde:	11 89       	ld.ub	r9,r8[0x0]
80002be0:	30 08       	mov	r8,0
80002be2:	f0 09 18 00 	cp.b	r9,r8
80002be6:	c0 41       	brne	80002bee <sd_mmc_spi_ram_2_mem+0x2e>
80002be8:	30 2c       	mov	r12,2
80002bea:	e3 cd 80 c0 	ldm	sp++,r6-r7,pc
   {
     sd_mmc_spi_write_open(addr);
80002bee:	0c 9c       	mov	r12,r6
80002bf0:	f0 1f 00 0b 	mcall	80002c1c <sd_mmc_spi_ram_2_mem+0x5c>
     if (!sd_mmc_spi_write_sector_from_ram(ram))
80002bf4:	0e 9c       	mov	r12,r7
80002bf6:	f0 1f 00 0b 	mcall	80002c20 <sd_mmc_spi_ram_2_mem+0x60>
80002bfa:	c0 61       	brne	80002c06 <sd_mmc_spi_ram_2_mem+0x46>
     {
       sd_mmc_spi_write_close();
80002bfc:	f0 1f 00 0a 	mcall	80002c24 <sd_mmc_spi_ram_2_mem+0x64>
80002c00:	30 2c       	mov	r12,2
       Sd_mmc_spi_access_signal_off();
       return CTRL_NO_PRESENT;
80002c02:	e3 cd 80 c0 	ldm	sp++,r6-r7,pc
     }
     sd_mmc_spi_write_close();
80002c06:	f0 1f 00 08 	mcall	80002c24 <sd_mmc_spi_ram_2_mem+0x64>
80002c0a:	e3 cf 80 c0 	ldm	sp++,r6-r7,pc,r12=0
80002c0e:	00 00       	add	r0,r0
80002c10:	80 00       	ld.sh	r0,r0[0x0]
80002c12:	22 f4       	sub	r4,47
80002c14:	00 00       	add	r0,r0
80002c16:	00 28       	rsub	r8,r0
80002c18:	80 00       	ld.sh	r0,r0[0x0]
80002c1a:	2b b4       	sub	r4,-69
80002c1c:	80 00       	ld.sh	r0,r0[0x0]
80002c1e:	21 b0       	sub	r0,27
80002c20:	80 00       	ld.sh	r0,r0[0x0]
80002c22:	23 70       	sub	r0,55
80002c24:	80 00       	ld.sh	r0,r0[0x0]
80002c26:	21 20       	sub	r0,18

80002c28 <sd_mmc_spi_mem_2_ram>:
//------------ Standard functions for read/write 1 sector to 1 sector ram buffer -----------------

#if ACCESS_MEM_TO_RAM == true

Ctrl_status sd_mmc_spi_mem_2_ram(uint32_t addr, void *ram)
{
80002c28:	eb cd 40 c0 	pushm	r6-r7,lr
80002c2c:	18 97       	mov	r7,r12
80002c2e:	16 96       	mov	r6,r11
   Sd_mmc_spi_access_signal_on();
   sd_mmc_spi_check_presence();
80002c30:	f0 1f 00 12 	mcall	80002c78 <sd_mmc_spi_mem_2_ram+0x50>

   if (!sd_mmc_spi_init_done)
80002c34:	49 28       	lddpc	r8,80002c7c <sd_mmc_spi_mem_2_ram+0x54>
80002c36:	11 89       	ld.ub	r9,r8[0x0]
80002c38:	30 08       	mov	r8,0
80002c3a:	f0 09 18 00 	cp.b	r9,r8
80002c3e:	c0 c1       	brne	80002c56 <sd_mmc_spi_mem_2_ram+0x2e>
   {
      sd_mmc_spi_mem_init();
80002c40:	f0 1f 00 10 	mcall	80002c80 <sd_mmc_spi_mem_2_ram+0x58>
   }

   if (!sd_mmc_spi_init_done)
80002c44:	48 e8       	lddpc	r8,80002c7c <sd_mmc_spi_mem_2_ram+0x54>
80002c46:	11 89       	ld.ub	r9,r8[0x0]
80002c48:	30 08       	mov	r8,0
80002c4a:	f0 09 18 00 	cp.b	r9,r8
80002c4e:	c0 41       	brne	80002c56 <sd_mmc_spi_mem_2_ram+0x2e>
80002c50:	30 2c       	mov	r12,2
80002c52:	e3 cd 80 c0 	ldm	sp++,r6-r7,pc
     return CTRL_NO_PRESENT;

   if( !sd_mmc_spi_read_open(addr) )
80002c56:	0e 9c       	mov	r12,r7
80002c58:	f0 1f 00 0b 	mcall	80002c84 <sd_mmc_spi_mem_2_ram+0x5c>
80002c5c:	c0 c0       	breq	80002c74 <sd_mmc_spi_mem_2_ram+0x4c>
     goto sd_mmc_spi_mem_2_ram_fail;

   if( !sd_mmc_spi_read_sector_to_ram(ram))
80002c5e:	0c 9c       	mov	r12,r6
80002c60:	f0 1f 00 0a 	mcall	80002c88 <sd_mmc_spi_mem_2_ram+0x60>
80002c64:	c0 80       	breq	80002c74 <sd_mmc_spi_mem_2_ram+0x4c>
     goto sd_mmc_spi_mem_2_ram_fail;

   if( !sd_mmc_spi_read_close() )
80002c66:	f0 1f 00 0a 	mcall	80002c8c <sd_mmc_spi_mem_2_ram+0x64>
80002c6a:	ec 1c 00 01 	eorl	r12,0x1
80002c6e:	5c 5c       	castu.b	r12
80002c70:	e3 cd 80 c0 	ldm	sp++,r6-r7,pc
80002c74:	e3 cf 90 c0 	ldm	sp++,r6-r7,pc,r12=1
80002c78:	80 00       	ld.sh	r0,r0[0x0]
80002c7a:	22 f4       	sub	r4,47
80002c7c:	00 00       	add	r0,r0
80002c7e:	00 28       	rsub	r8,r0
80002c80:	80 00       	ld.sh	r0,r0[0x0]
80002c82:	2b b4       	sub	r4,-69
80002c84:	80 00       	ld.sh	r0,r0[0x0]
80002c86:	21 d4       	sub	r4,29
80002c88:	80 00       	ld.sh	r0,r0[0x0]
80002c8a:	26 00       	sub	r0,96
80002c8c:	80 00       	ld.sh	r0,r0[0x0]
80002c8e:	21 c8       	sub	r8,28

80002c90 <sd_mmc_spi_read_capacity>:
}



Ctrl_status sd_mmc_spi_read_capacity(uint32_t *nb_sector)
{
80002c90:	eb cd 40 80 	pushm	r7,lr
80002c94:	18 97       	mov	r7,r12
//   sd_mmc_spi_check_presence();   // omitted because creates interferences with "sd_mmc_spi_test_unit_ready()" function
   Sd_mmc_spi_access_signal_on();

   if (!sd_mmc_spi_init_done)
80002c96:	48 c8       	lddpc	r8,80002cc4 <sd_mmc_spi_read_capacity+0x34>
80002c98:	11 89       	ld.ub	r9,r8[0x0]
80002c9a:	30 08       	mov	r8,0
80002c9c:	f0 09 18 00 	cp.b	r9,r8
80002ca0:	c0 c1       	brne	80002cb8 <sd_mmc_spi_read_capacity+0x28>
   {
      sd_mmc_spi_mem_init();
80002ca2:	f0 1f 00 0a 	mcall	80002cc8 <sd_mmc_spi_read_capacity+0x38>
   }

   if (sd_mmc_spi_init_done)
80002ca6:	48 88       	lddpc	r8,80002cc4 <sd_mmc_spi_read_capacity+0x34>
80002ca8:	11 89       	ld.ub	r9,r8[0x0]
80002caa:	30 08       	mov	r8,0
80002cac:	f0 09 18 00 	cp.b	r9,r8
80002cb0:	c0 41       	brne	80002cb8 <sd_mmc_spi_read_capacity+0x28>
80002cb2:	30 2c       	mov	r12,2
80002cb4:	e3 cd 80 80 	ldm	sp++,r7,pc
   {
     *nb_sector = sd_mmc_spi_last_block_address+1;
80002cb8:	48 58       	lddpc	r8,80002ccc <sd_mmc_spi_read_capacity+0x3c>
80002cba:	70 08       	ld.w	r8,r8[0x0]
80002cbc:	2f f8       	sub	r8,-1
80002cbe:	8f 08       	st.w	r7[0x0],r8
80002cc0:	e3 cf 80 80 	ldm	sp++,r7,pc,r12=0
80002cc4:	00 00       	add	r0,r0
80002cc6:	00 28       	rsub	r8,r0
80002cc8:	80 00       	ld.sh	r0,r0[0x0]
80002cca:	2b b4       	sub	r4,-69
80002ccc:	00 00       	add	r0,r0
80002cce:	04 08       	add	r8,r2

80002cd0 <sdramc_ck_delay>:
 * \param ck Number of HSB clock cycles to wait.
 */
static void sdramc_ck_delay(unsigned long ck)
{
  // Use the CPU cycle counter (CPU and HSB clocks are the same).
  unsigned long delay_start_cycle = Get_system_register(AVR32_COUNT);
80002cd0:	e1 b8 00 42 	mfsr	r8,0x108
  unsigned long delay_end_cycle = delay_start_cycle + ck;
80002cd4:	f0 0c 00 0c 	add	r12,r8,r12

  // To be safer, the end of wait is based on an inequality test, so CPU cycle
  // counter wrap around is checked.
  if (delay_start_cycle > delay_end_cycle)
80002cd8:	18 38       	cp.w	r8,r12
80002cda:	e0 88 00 06 	brls	80002ce6 <sdramc_ck_delay+0x16>
  {
    while ((unsigned long)Get_system_register(AVR32_COUNT) > delay_end_cycle);
80002cde:	e1 b8 00 42 	mfsr	r8,0x108
80002ce2:	10 3c       	cp.w	r12,r8
80002ce4:	cf d3       	brcs	80002cde <sdramc_ck_delay+0xe>
  }
  while ((unsigned long)Get_system_register(AVR32_COUNT) < delay_end_cycle);
80002ce6:	e1 b8 00 42 	mfsr	r8,0x108
80002cea:	10 3c       	cp.w	r12,r8
80002cec:	fe 9b ff fd 	brhi	80002ce6 <sdramc_ck_delay+0x16>
}
80002cf0:	5e fc       	retal	r12
80002cf2:	d7 03       	nop

80002cf4 <sdramc_init>:
// {
// }
// #endif

void sdramc_init(unsigned long hsb_hz)
{
80002cf4:	d4 31       	pushm	r0-r7,lr
80002cf6:	18 91       	mov	r1,r12
  unsigned long hsb_mhz_dn = hsb_hz / 1000000;
  unsigned long hsb_mhz_up = (hsb_hz + 999999) / 1000000;
80002cf8:	ee 78 42 3f 	mov	r8,999999
80002cfc:	f8 08 00 09 	add	r9,r12,r8
80002d00:	e0 60 de 83 	mov	r0,56963
80002d04:	ea 10 43 1b 	orh	r0,0x431b
80002d08:	f2 00 06 48 	mulu.d	r8,r9,r0
80002d0c:	f2 06 16 12 	lsr	r6,r9,0x12
    // Enable clock-related pins.
    {AVR32_EBI_SDCK_PIN,            AVR32_EBI_SDCK_FUNCTION           },
    {AVR32_EBI_SDCKE_PIN,           AVR32_EBI_SDCKE_FUNCTION          }
  };

  gpio_enable_module(SDRAMC_EBI_GPIO_MAP, sizeof(SDRAMC_EBI_GPIO_MAP) / sizeof(SDRAMC_EBI_GPIO_MAP[0]));
80002d10:	32 5b       	mov	r11,37
80002d12:	4c 9c       	lddpc	r12,80002e34 <sdramc_init+0x140>
80002d14:	f0 1f 00 49 	mcall	80002e38 <sdramc_init+0x144>
#if (defined AVR32_HMATRIX)
  AVR32_HMATRIX.sfr[AVR32_EBI_HMATRIX_NR] |= 1 << AVR32_EBI_SDRAM_CS;
  AVR32_HMATRIX.sfr[AVR32_EBI_HMATRIX_NR];
#endif
#if (defined AVR32_HMATRIXB)
  AVR32_HMATRIXB.sfr[AVR32_EBI_HMATRIX_NR] |= 1 << AVR32_EBI_SDRAM_CS;
80002d18:	fe 68 20 00 	mov	r8,-122880
80002d1c:	f0 f9 01 28 	ld.w	r9,r8[296]
80002d20:	a1 a9       	sbr	r9,0x0
80002d22:	f1 49 01 28 	st.w	r8[296],r9
  AVR32_HMATRIXB.sfr[AVR32_EBI_HMATRIX_NR];
80002d26:	f0 f8 01 28 	ld.w	r8,r8[296]
      ((( SDRAM_COL_BITS                 -    8) << AVR32_SDRAMC_CR_NC_OFFSET  ) & AVR32_SDRAMC_CR_NC_MASK  ) |
      ((( SDRAM_ROW_BITS                 -   11) << AVR32_SDRAMC_CR_NR_OFFSET  ) & AVR32_SDRAMC_CR_NR_MASK  ) |
      ((( SDRAM_BANK_BITS                -    1) << AVR32_SDRAMC_CR_NB_OFFSET  ) & AVR32_SDRAMC_CR_NB_MASK  ) |
      ((  SDRAM_CAS                              << AVR32_SDRAMC_CR_CAS_OFFSET ) & AVR32_SDRAMC_CR_CAS_MASK ) |
      ((( SDRAM_DBW                      >>   4) << AVR32_SDRAMC_CR_DBW_OFFSET ) & AVR32_SDRAMC_CR_DBW_MASK ) |
      ((((SDRAM_TWR  * hsb_mhz_up + 999) / 1000) << AVR32_SDRAMC_CR_TWR_OFFSET ) & AVR32_SDRAMC_CR_TWR_MASK ) |
80002d2a:	ec 08 15 04 	lsl	r8,r6,0x4
80002d2e:	0c 18       	sub	r8,r6
80002d30:	f0 c3 fc 19 	sub	r3,r8,-999
80002d34:	e0 65 4d d3 	mov	r5,19923
80002d38:	ea 15 10 62 	orh	r5,0x1062
80002d3c:	e6 05 06 42 	mulu.d	r2,r3,r5
80002d40:	a7 83       	lsr	r3,0x6
#endif

  // Configure the SDRAM Controller with SDRAM setup and timing information.
  // All timings below are rounded up because they are minimal values.
  AVR32_SDRAMC.cr =
      ((( SDRAM_COL_BITS                 -    8) << AVR32_SDRAMC_CR_NC_OFFSET  ) & AVR32_SDRAMC_CR_NC_MASK  ) |
80002d42:	ec 02 15 05 	lsl	r2,r6,0x5
80002d46:	0c 02       	add	r2,r6
80002d48:	a1 72       	lsl	r2,0x1
80002d4a:	e4 06 00 0b 	add	r11,r2,r6
80002d4e:	f6 cb fc 19 	sub	r11,r11,-999
80002d52:	f6 05 06 4a 	mulu.d	r10,r11,r5
80002d56:	f6 0a 16 06 	lsr	r10,r11,0x6
80002d5a:	bd 6a       	lsl	r10,0x1c
80002d5c:	e8 1a 00 f0 	orl	r10,0xf0
80002d60:	e6 09 15 08 	lsl	r9,r3,0x8
80002d64:	e2 19 0f 00 	andl	r9,0xf00,COH
80002d68:	12 4a       	or	r10,r9
80002d6a:	f0 09 15 02 	lsl	r9,r8,0x2
80002d6e:	f2 c9 fc 19 	sub	r9,r9,-999
80002d72:	f2 05 06 48 	mulu.d	r8,r9,r5
80002d76:	a7 69       	lsl	r9,0x6
80002d78:	e2 19 f0 00 	andl	r9,0xf000,COH
80002d7c:	f5 e9 10 08 	or	r8,r10,r9
80002d80:	e6 09 15 10 	lsl	r9,r3,0x10
80002d84:	e6 19 00 0f 	andh	r9,0xf,COH
80002d88:	12 48       	or	r8,r9
80002d8a:	e6 09 15 14 	lsl	r9,r3,0x14
80002d8e:	e6 19 00 f0 	andh	r9,0xf0,COH
80002d92:	12 48       	or	r8,r9
80002d94:	ec 06 00 3b 	add	r11,r6,r6<<0x3
80002d98:	ec 0b 00 2b 	add	r11,r6,r11<<0x2
80002d9c:	f6 cb fc 19 	sub	r11,r11,-999
80002da0:	f6 05 06 4a 	mulu.d	r10,r11,r5
80002da4:	f6 09 15 12 	lsl	r9,r11,0x12
80002da8:	e6 19 0f 00 	andh	r9,0xf00,COH
80002dac:	12 48       	or	r8,r9
  AVR32_HMATRIXB.sfr[AVR32_EBI_HMATRIX_NR];
#endif

  // Configure the SDRAM Controller with SDRAM setup and timing information.
  // All timings below are rounded up because they are minimal values.
  AVR32_SDRAMC.cr =
80002dae:	fe 67 2c 00 	mov	r7,-119808
80002db2:	8f 28       	st.w	r7[0x8],r8
      ((((SDRAM_TRC  * hsb_mhz_up + 999) / 1000) << AVR32_SDRAMC_CR_TRC_OFFSET ) & AVR32_SDRAMC_CR_TRC_MASK ) |
      ((((SDRAM_TRP  * hsb_mhz_up + 999) / 1000) << AVR32_SDRAMC_CR_TRP_OFFSET ) & AVR32_SDRAMC_CR_TRP_MASK ) |
      ((((SDRAM_TRCD * hsb_mhz_up + 999) / 1000) << AVR32_SDRAMC_CR_TRCD_OFFSET) & AVR32_SDRAMC_CR_TRCD_MASK) |
      ((((SDRAM_TRAS * hsb_mhz_up + 999) / 1000) << AVR32_SDRAMC_CR_TRAS_OFFSET) & AVR32_SDRAMC_CR_TRAS_MASK) |
      ((((SDRAM_TXSR * hsb_mhz_up + 999) / 1000) << AVR32_SDRAMC_CR_TXSR_OFFSET) & AVR32_SDRAMC_CR_TXSR_MASK);
  AVR32_SDRAMC.cr;
80002db4:	6e 28       	ld.w	r8,r7[0x8]

  // Issue a NOP command to the SDRAM in order to start the generation of SDRAMC signals.
  AVR32_SDRAMC.mr = AVR32_SDRAMC_MR_MODE_NOP;
80002db6:	30 18       	mov	r8,1
80002db8:	8f 08       	st.w	r7[0x0],r8
  AVR32_SDRAMC.mr;
80002dba:	6e 08       	ld.w	r8,r7[0x0]
  sdram[0];
80002dbc:	fc 14 c0 00 	movh	r4,0xc000
80002dc0:	88 08       	ld.sh	r8,r4[0x0]

  // Wait during the SDRAM stable-clock initialization delay.
  sdramc_us_delay(SDRAM_STABLE_CLOCK_INIT_DELAY, hsb_mhz_up);
80002dc2:	ec 0c 10 64 	mul	r12,r6,100
80002dc6:	f0 1f 00 1e 	mcall	80002e3c <sdramc_init+0x148>

  // Issue a PRECHARGE ALL command to the SDRAM.
  AVR32_SDRAMC.mr = AVR32_SDRAMC_MR_MODE_BANKS_PRECHARGE;
80002dca:	30 28       	mov	r8,2
80002dcc:	8f 08       	st.w	r7[0x0],r8
  AVR32_SDRAMC.mr;
80002dce:	6e 08       	ld.w	r8,r7[0x0]
  sdram[0];
80002dd0:	88 08       	ld.sh	r8,r4[0x0]
  sdramc_ns_delay(SDRAM_TRP, hsb_mhz_up);
80002dd2:	06 9c       	mov	r12,r3
80002dd4:	f0 1f 00 1a 	mcall	80002e3c <sdramc_init+0x148>

  // Issue initialization AUTO REFRESH commands to the SDRAM.
  AVR32_SDRAMC.mr = AVR32_SDRAMC_MR_MODE_AUTO_REFRESH;
80002dd8:	30 48       	mov	r8,4
80002dda:	8f 08       	st.w	r7[0x0],r8
  AVR32_SDRAMC.mr;
80002ddc:	6e 08       	ld.w	r8,r7[0x0]
  for (i = 0; i < SDRAM_INIT_AUTO_REFRESH_COUNT; i++)
  {
    sdram[0];
    sdramc_ns_delay(SDRAM_TRFC, hsb_mhz_up);
80002dde:	e4 c3 fc 19 	sub	r3,r2,-999
80002de2:	e6 05 06 42 	mulu.d	r2,r3,r5
80002de6:	a7 83       	lsr	r3,0x6
  // Issue initialization AUTO REFRESH commands to the SDRAM.
  AVR32_SDRAMC.mr = AVR32_SDRAMC_MR_MODE_AUTO_REFRESH;
  AVR32_SDRAMC.mr;
  for (i = 0; i < SDRAM_INIT_AUTO_REFRESH_COUNT; i++)
  {
    sdram[0];
80002de8:	88 08       	ld.sh	r8,r4[0x0]
    sdramc_ns_delay(SDRAM_TRFC, hsb_mhz_up);
80002dea:	06 9c       	mov	r12,r3
80002dec:	f0 1f 00 14 	mcall	80002e3c <sdramc_init+0x148>
  // Issue initialization AUTO REFRESH commands to the SDRAM.
  AVR32_SDRAMC.mr = AVR32_SDRAMC_MR_MODE_AUTO_REFRESH;
  AVR32_SDRAMC.mr;
  for (i = 0; i < SDRAM_INIT_AUTO_REFRESH_COUNT; i++)
  {
    sdram[0];
80002df0:	88 08       	ld.sh	r8,r4[0x0]
    sdramc_ns_delay(SDRAM_TRFC, hsb_mhz_up);
80002df2:	06 9c       	mov	r12,r3
80002df4:	f0 1f 00 12 	mcall	80002e3c <sdramc_init+0x148>
  //  - bit 3: burst type: sequential (0b);
  //  - bits 4 to 6: CAS latency: AVR32_SDRAMC.CR.cas;
  //  - bits 7 to 8: operating mode: standard operation (00b);
  //  - bit 9: write burst mode: programmed burst length (0b);
  //  - all other bits: reserved: 0b.
  AVR32_SDRAMC.mr = AVR32_SDRAMC_MR_MODE_LOAD_MODE;
80002df8:	30 38       	mov	r8,3
80002dfa:	8f 08       	st.w	r7[0x0],r8
  AVR32_SDRAMC.mr;
80002dfc:	6e 08       	ld.w	r8,r7[0x0]
  sdram[0];
80002dfe:	88 08       	ld.sh	r8,r4[0x0]
  sdramc_ns_delay(SDRAM_TMRD, hsb_mhz_up);
80002e00:	ec 09 15 01 	lsl	r9,r6,0x1
80002e04:	f2 c9 fc 19 	sub	r9,r9,-999
80002e08:	f2 05 06 48 	mulu.d	r8,r9,r5
80002e0c:	f2 0c 16 06 	lsr	r12,r9,0x6
80002e10:	f0 1f 00 0b 	mcall	80002e3c <sdramc_init+0x148>

  // Switch the SDRAM Controller to normal mode.
  AVR32_SDRAMC.mr = AVR32_SDRAMC_MR_MODE_NORMAL;
80002e14:	30 08       	mov	r8,0
80002e16:	8f 08       	st.w	r7[0x0],r8
  AVR32_SDRAMC.mr;
80002e18:	6e 08       	ld.w	r8,r7[0x0]
  sdram[0];
80002e1a:	88 08       	ld.sh	r8,r4[0x0]

  // Write the refresh period into the SDRAMC Refresh Timer Register.
  // tR is rounded down because it is a maximal value.
  AVR32_SDRAMC.tr = (SDRAM_TR * hsb_mhz_dn) / 1000;
80002e1c:	e2 00 06 40 	mulu.d	r0,r1,r0
80002e20:	b3 81       	lsr	r1,0x12
80002e22:	e0 68 1e 84 	mov	r8,7812
80002e26:	b1 31       	mul	r1,r8
80002e28:	e2 05 06 44 	mulu.d	r4,r1,r5
80002e2c:	a7 85       	lsr	r5,0x6
80002e2e:	8f 15       	st.w	r7[0x4],r5
  AVR32_SDRAMC.tr;
80002e30:	6e 18       	ld.w	r8,r7[0x4]
}
80002e32:	d8 32       	popm	r0-r7,pc
80002e34:	80 00       	ld.sh	r0,r0[0x0]
80002e36:	3e 00       	mov	r0,-32
80002e38:	80 00       	ld.sh	r0,r0[0x0]
80002e3a:	2f a4       	sub	r4,-6
80002e3c:	80 00       	ld.sh	r0,r0[0x0]
80002e3e:	2c d0       	sub	r0,-51

80002e40 <flashc_set_wait_state>:
}


void flashc_set_wait_state(unsigned int wait_state)
{
	u_avr32_flashc_fcr_t u_avr32_flashc_fcr = {AVR32_FLASHC.fcr};
80002e40:	fe 68 00 00 	mov	r8,-131072
80002e44:	70 09       	ld.w	r9,r8[0x0]
	u_avr32_flashc_fcr.FCR.fws = wait_state;
80002e46:	f3 dc d0 c1 	bfins	r9,r12,0x6,0x1
	AVR32_FLASHC.fcr = u_avr32_flashc_fcr.fcr;
80002e4a:	91 09       	st.w	r8[0x0],r9
}
80002e4c:	5e fc       	retal	r12

80002e4e <flashc_is_ready>:
//! @{


bool flashc_is_ready(void)
{
	return ((AVR32_FLASHC.fsr & AVR32_FLASHC_FSR_FRDY_MASK) != 0);
80002e4e:	fe 68 00 00 	mov	r8,-131072
80002e52:	70 2c       	ld.w	r12,r8[0x8]
}
80002e54:	f9 dc c0 01 	bfextu	r12,r12,0x0,0x1
80002e58:	5e fc       	retal	r12
80002e5a:	d7 03       	nop

80002e5c <flashc_default_wait_until_ready>:


void flashc_default_wait_until_ready(void)
{
80002e5c:	d4 01       	pushm	lr
	while (!flashc_is_ready());
80002e5e:	f0 1f 00 03 	mcall	80002e68 <flashc_default_wait_until_ready+0xc>
80002e62:	cf e0       	breq	80002e5e <flashc_default_wait_until_ready+0x2>
}
80002e64:	d8 02       	popm	pc
80002e66:	00 00       	add	r0,r0
80002e68:	80 00       	ld.sh	r0,r0[0x0]
80002e6a:	2e 4e       	sub	lr,-28

80002e6c <flashc_issue_command>:
	return (AVR32_FLASHC.fcmd & AVR32_FLASHC_FCMD_PAGEN_MASK) >> AVR32_FLASHC_FCMD_PAGEN_OFFSET;
}


void flashc_issue_command(unsigned int command, int page_number)
{
80002e6c:	eb cd 40 c0 	pushm	r6-r7,lr
80002e70:	18 96       	mov	r6,r12
80002e72:	16 97       	mov	r7,r11
	u_avr32_flashc_fcmd_t u_avr32_flashc_fcmd;

	flashc_wait_until_ready();
80002e74:	48 e8       	lddpc	r8,80002eac <flashc_issue_command+0x40>
80002e76:	70 08       	ld.w	r8,r8[0x0]
80002e78:	5d 18       	icall	r8
	u_avr32_flashc_fcmd.fcmd = AVR32_FLASHC.fcmd;
80002e7a:	fe 68 00 00 	mov	r8,-131072
80002e7e:	70 18       	ld.w	r8,r8[0x4]
	u_avr32_flashc_fcmd.FCMD.cmd = command;
80002e80:	f1 d6 d0 06 	bfins	r8,r6,0x0,0x6
	if (page_number >= 0) {
80002e84:	58 07       	cp.w	r7,0
80002e86:	c0 35       	brlt	80002e8c <flashc_issue_command+0x20>
		u_avr32_flashc_fcmd.FCMD.pagen = page_number;
80002e88:	f1 d7 d1 10 	bfins	r8,r7,0x8,0x10
	}
	u_avr32_flashc_fcmd.FCMD.key = AVR32_FLASHC_FCMD_KEY_KEY;
80002e8c:	3a 59       	mov	r9,-91
80002e8e:	f1 d9 d3 08 	bfins	r8,r9,0x18,0x8
	AVR32_FLASHC.fcmd = u_avr32_flashc_fcmd.fcmd;
80002e92:	fe 69 00 00 	mov	r9,-131072
80002e96:	93 18       	st.w	r9[0x4],r8
 *          the driver's API which instead presents \ref flashc_is_lock_error
 *          and \ref flashc_is_programming_error.
 */
static unsigned int flashc_get_error_status(void)
{
	return AVR32_FLASHC.fsr & (AVR32_FLASHC_FSR_LOCKE_MASK |
80002e98:	72 29       	ld.w	r9,r9[0x8]
	if (page_number >= 0) {
		u_avr32_flashc_fcmd.FCMD.pagen = page_number;
	}
	u_avr32_flashc_fcmd.FCMD.key = AVR32_FLASHC_FCMD_KEY_KEY;
	AVR32_FLASHC.fcmd = u_avr32_flashc_fcmd.fcmd;
	flashc_error_status = flashc_get_error_status();
80002e9a:	e2 19 00 0c 	andl	r9,0xc,COH
80002e9e:	48 58       	lddpc	r8,80002eb0 <flashc_issue_command+0x44>
80002ea0:	91 09       	st.w	r8[0x0],r9
	flashc_wait_until_ready();
80002ea2:	48 38       	lddpc	r8,80002eac <flashc_issue_command+0x40>
80002ea4:	70 08       	ld.w	r8,r8[0x0]
80002ea6:	5d 18       	icall	r8
}
80002ea8:	e3 cd 80 c0 	ldm	sp++,r6-r7,pc
80002eac:	00 00       	add	r0,r0
80002eae:	00 08       	add	r8,r0
80002eb0:	00 00       	add	r0,r0
80002eb2:	00 2c       	rsub	r12,r0

80002eb4 <flashc_set_flash_waitstate_and_readmode>:
}


#if UC3C
void flashc_set_flash_waitstate_and_readmode(unsigned long cpu_f_hz)
{
80002eb4:	eb cd 40 80 	pushm	r7,lr
80002eb8:	18 97       	mov	r7,r12
	#define AVR32_FLASHC_HSEN_FWS_0_MAX_FREQ      33000000
	#define AVR32_FLASHC_HSEN_FWS_1_MAX_FREQ      72000000
	// These defines are missing from or wrong in the toolchain header files uc3cxxx.h
	// Put a Bugzilla

	if (cpu_f_hz > AVR32_FLASHC_HSEN_FWS_0_MAX_FREQ) { // > 33MHz
80002eba:	e0 68 8a 40 	mov	r8,35392
80002ebe:	ea 18 01 f7 	orh	r8,0x1f7
80002ec2:	10 3c       	cp.w	r12,r8
80002ec4:	e0 88 00 18 	brls	80002ef4 <flashc_set_flash_waitstate_and_readmode+0x40>
		// Set a wait-state
		flashc_set_wait_state(1);
80002ec8:	30 1c       	mov	r12,1
80002eca:	f0 1f 00 10 	mcall	80002f08 <flashc_set_flash_waitstate_and_readmode+0x54>
		if (cpu_f_hz <= AVR32_FLASHC_FWS_1_MAX_FREQ) {   // <= 66MHz and >33Mhz
80002ece:	e0 68 14 80 	mov	r8,5248
80002ed2:	ea 18 03 ef 	orh	r8,0x3ef
80002ed6:	10 37       	cp.w	r7,r8
80002ed8:	e0 8b 00 08 	brhi	80002ee8 <flashc_set_flash_waitstate_and_readmode+0x34>
			// Disable the high-speed read mode.
			flashc_issue_command(AVR32_FLASHC_FCMD_CMD_HSDIS, -1);
80002edc:	3f fb       	mov	r11,-1
80002ede:	31 1c       	mov	r12,17
80002ee0:	f0 1f 00 0b 	mcall	80002f0c <flashc_set_flash_waitstate_and_readmode+0x58>
80002ee4:	e3 cd 80 80 	ldm	sp++,r7,pc
		} else { // > 66Mhz
			// Enable the high-speed read mode.
			flashc_issue_command(AVR32_FLASHC_FCMD_CMD_HSEN, -1);
80002ee8:	3f fb       	mov	r11,-1
80002eea:	31 0c       	mov	r12,16
80002eec:	f0 1f 00 08 	mcall	80002f0c <flashc_set_flash_waitstate_and_readmode+0x58>
80002ef0:	e3 cd 80 80 	ldm	sp++,r7,pc
		}
	} else { // <= 33 MHz
		// Disable wait-state
		flashc_set_wait_state(0);
80002ef4:	30 0c       	mov	r12,0
80002ef6:	f0 1f 00 05 	mcall	80002f08 <flashc_set_flash_waitstate_and_readmode+0x54>
		// Disable the high-speed read mode.
		flashc_issue_command(AVR32_FLASHC_FCMD_CMD_HSDIS, -1);
80002efa:	3f fb       	mov	r11,-1
80002efc:	31 1c       	mov	r12,17
80002efe:	f0 1f 00 04 	mcall	80002f0c <flashc_set_flash_waitstate_and_readmode+0x58>
80002f02:	e3 cd 80 80 	ldm	sp++,r7,pc
80002f06:	00 00       	add	r0,r0
80002f08:	80 00       	ld.sh	r0,r0[0x0]
80002f0a:	2e 40       	sub	r0,-28
80002f0c:	80 00       	ld.sh	r0,r0[0x0]
80002f0e:	2e 6c       	sub	r12,-26

80002f10 <gpio_enable_module_pin>:
 *
 * \return \ref GPIO_SUCCESS or \ref GPIO_INVALID_ARGUMENT.
 */
uint32_t gpio_enable_module_pin(uint32_t pin, uint32_t function)
{
	volatile avr32_gpio_port_t *gpio_port = &AVR32_GPIO.port[pin >> 5];
80002f10:	f8 08 16 05 	lsr	r8,r12,0x5
80002f14:	a9 78       	lsl	r8,0x9
80002f16:	e0 28 e0 00 	sub	r8,57344

	/* Enable the correct function. */
	switch (function) {
80002f1a:	58 7b       	cp.w	r11,7
80002f1c:	e0 8b 00 05 	brhi	80002f26 <gpio_enable_module_pin+0x16>
80002f20:	4a 09       	lddpc	r9,80002fa0 <gpio_enable_module_pin+0x90>
80002f22:	f2 0b 03 2f 	ld.w	pc,r9[r11<<0x2]
80002f26:	5e ff       	retal	1
	case 0: /* A function. */
		gpio_port->pmr0c = 1 << (pin & 0x1F);
80002f28:	30 19       	mov	r9,1
80002f2a:	f2 0c 09 49 	lsl	r9,r9,r12
80002f2e:	91 69       	st.w	r8[0x18],r9
		gpio_port->pmr1c = 1 << (pin & 0x1F);
80002f30:	91 a9       	st.w	r8[0x28],r9
#if (AVR32_GPIO_H_VERSION >= 210)
		gpio_port->pmr2c = 1 << (pin & 0x1F);
80002f32:	91 e9       	st.w	r8[0x38],r9
#endif
		break;
80002f34:	c3 18       	rjmp	80002f96 <gpio_enable_module_pin+0x86>

	case 1: /* B function. */
		gpio_port->pmr0s = 1 << (pin & 0x1F);
80002f36:	30 19       	mov	r9,1
80002f38:	f2 0c 09 49 	lsl	r9,r9,r12
80002f3c:	91 59       	st.w	r8[0x14],r9
		gpio_port->pmr1c = 1 << (pin & 0x1F);
80002f3e:	91 a9       	st.w	r8[0x28],r9
#if (AVR32_GPIO_H_VERSION >= 210)
		gpio_port->pmr2c = 1 << (pin & 0x1F);
80002f40:	91 e9       	st.w	r8[0x38],r9
#endif
		break;
80002f42:	c2 a8       	rjmp	80002f96 <gpio_enable_module_pin+0x86>

	case 2: /* C function. */
		gpio_port->pmr0c = 1 << (pin & 0x1F);
80002f44:	30 19       	mov	r9,1
80002f46:	f2 0c 09 49 	lsl	r9,r9,r12
80002f4a:	91 69       	st.w	r8[0x18],r9
		gpio_port->pmr1s = 1 << (pin & 0x1F);
80002f4c:	91 99       	st.w	r8[0x24],r9
#if (AVR32_GPIO_H_VERSION >= 210)
		gpio_port->pmr2c = 1 << (pin & 0x1F);
80002f4e:	91 e9       	st.w	r8[0x38],r9
#endif
		break;
80002f50:	c2 38       	rjmp	80002f96 <gpio_enable_module_pin+0x86>

	case 3: /* D function. */
		gpio_port->pmr0s = 1 << (pin & 0x1F);
80002f52:	30 19       	mov	r9,1
80002f54:	f2 0c 09 49 	lsl	r9,r9,r12
80002f58:	91 59       	st.w	r8[0x14],r9
		gpio_port->pmr1s = 1 << (pin & 0x1F);
80002f5a:	91 99       	st.w	r8[0x24],r9
#if (AVR32_GPIO_H_VERSION >= 210)
		gpio_port->pmr2c = 1 << (pin & 0x1F);
80002f5c:	91 e9       	st.w	r8[0x38],r9
#endif
		break;
80002f5e:	c1 c8       	rjmp	80002f96 <gpio_enable_module_pin+0x86>

#if (AVR32_GPIO_H_VERSION >= 210)
	case 4: /* E function. */
		gpio_port->pmr0c = 1 << (pin & 0x1F);
80002f60:	30 19       	mov	r9,1
80002f62:	f2 0c 09 49 	lsl	r9,r9,r12
80002f66:	91 69       	st.w	r8[0x18],r9
		gpio_port->pmr1c = 1 << (pin & 0x1F);
80002f68:	91 a9       	st.w	r8[0x28],r9
		gpio_port->pmr2s = 1 << (pin & 0x1F);
80002f6a:	91 d9       	st.w	r8[0x34],r9
		break;
80002f6c:	c1 58       	rjmp	80002f96 <gpio_enable_module_pin+0x86>

	case 5: /* F function. */
		gpio_port->pmr0s = 1 << (pin & 0x1F);
80002f6e:	30 19       	mov	r9,1
80002f70:	f2 0c 09 49 	lsl	r9,r9,r12
80002f74:	91 59       	st.w	r8[0x14],r9
		gpio_port->pmr1c = 1 << (pin & 0x1F);
80002f76:	91 a9       	st.w	r8[0x28],r9
		gpio_port->pmr2s = 1 << (pin & 0x1F);
80002f78:	91 d9       	st.w	r8[0x34],r9
		break;
80002f7a:	c0 e8       	rjmp	80002f96 <gpio_enable_module_pin+0x86>

	case 6: /* G function. */
		gpio_port->pmr0c = 1 << (pin & 0x1F);
80002f7c:	30 19       	mov	r9,1
80002f7e:	f2 0c 09 49 	lsl	r9,r9,r12
80002f82:	91 69       	st.w	r8[0x18],r9
		gpio_port->pmr1s = 1 << (pin & 0x1F);
80002f84:	91 99       	st.w	r8[0x24],r9
		gpio_port->pmr2s = 1 << (pin & 0x1F);
80002f86:	91 d9       	st.w	r8[0x34],r9
		break;
80002f88:	c0 78       	rjmp	80002f96 <gpio_enable_module_pin+0x86>

	case 7: /* H function. */
		gpio_port->pmr0s = 1 << (pin & 0x1F);
80002f8a:	30 19       	mov	r9,1
80002f8c:	f2 0c 09 49 	lsl	r9,r9,r12
80002f90:	91 59       	st.w	r8[0x14],r9
		gpio_port->pmr1s = 1 << (pin & 0x1F);
80002f92:	91 99       	st.w	r8[0x24],r9
		gpio_port->pmr2s = 1 << (pin & 0x1F);
80002f94:	91 d9       	st.w	r8[0x34],r9
	default:
		return GPIO_INVALID_ARGUMENT;
	}

	/* Disable GPIO control. */
	gpio_port->gperc = 1 << (pin & 0x1F);
80002f96:	30 19       	mov	r9,1
80002f98:	f2 0c 09 4c 	lsl	r12,r9,r12
80002f9c:	91 2c       	st.w	r8[0x8],r12
80002f9e:	5e fd       	retal	0
80002fa0:	80 00       	ld.sh	r0,r0[0x0]
80002fa2:	3f 28       	mov	r8,-14

80002fa4 <gpio_enable_module>:
 * \param size The number of pins in \a gpiomap.
 *
 * \return \ref GPIO_SUCCESS or \ref GPIO_INVALID_ARGUMENT.
 */
uint32_t gpio_enable_module(const gpio_map_t gpiomap, uint32_t size)
{
80002fa4:	d4 21       	pushm	r4-r7,lr
80002fa6:	18 97       	mov	r7,r12
80002fa8:	16 94       	mov	r4,r11
	uint32_t status = GPIO_SUCCESS;
	uint32_t i;

	for (i = 0; i < size; i++) {
80002faa:	58 0b       	cp.w	r11,0
80002fac:	c0 31       	brne	80002fb2 <gpio_enable_module+0xe>
80002fae:	30 05       	mov	r5,0
80002fb0:	c0 d8       	rjmp	80002fca <gpio_enable_module+0x26>
80002fb2:	30 05       	mov	r5,0
80002fb4:	0a 96       	mov	r6,r5
		status |= gpio_enable_module_pin(gpiomap->pin, gpiomap->function);
80002fb6:	6e 1b       	ld.w	r11,r7[0x4]
80002fb8:	6e 0c       	ld.w	r12,r7[0x0]
80002fba:	f0 1f 00 06 	mcall	80002fd0 <gpio_enable_module+0x2c>
80002fbe:	18 45       	or	r5,r12
		gpiomap++;
80002fc0:	2f 87       	sub	r7,-8
uint32_t gpio_enable_module(const gpio_map_t gpiomap, uint32_t size)
{
	uint32_t status = GPIO_SUCCESS;
	uint32_t i;

	for (i = 0; i < size; i++) {
80002fc2:	2f f6       	sub	r6,-1
80002fc4:	0c 34       	cp.w	r4,r6
80002fc6:	fe 9b ff f8 	brhi	80002fb6 <gpio_enable_module+0x12>
		status |= gpio_enable_module_pin(gpiomap->pin, gpiomap->function);
		gpiomap++;
	}

	return status;
}
80002fca:	0a 9c       	mov	r12,r5
80002fcc:	d8 22       	popm	r4-r7,pc
80002fce:	00 00       	add	r0,r0
80002fd0:	80 00       	ld.sh	r0,r0[0x0]
80002fd2:	2f 10       	sub	r0,-15

80002fd4 <gpio_set_gpio_pin>:
 *
 * \param pin The pin number.
 */
void gpio_set_gpio_pin(uint32_t pin)
{
	volatile avr32_gpio_port_t *gpio_port = &AVR32_GPIO.port[pin >> 5];
80002fd4:	f8 08 16 05 	lsr	r8,r12,0x5
80002fd8:	a9 78       	lsl	r8,0x9
80002fda:	e0 28 e0 00 	sub	r8,57344
	
	/* Value to be driven on the I/O line: 1. */
	gpio_port->ovrs  = 1 << (pin & 0x1F);
80002fde:	30 19       	mov	r9,1
80002fe0:	f2 0c 09 4c 	lsl	r12,r9,r12
80002fe4:	f1 4c 00 54 	st.w	r8[84],r12
	/* The GPIO output driver is enabled for that pin. */ 
	gpio_port->oders = 1 << (pin & 0x1F);
80002fe8:	f1 4c 00 44 	st.w	r8[68],r12
	/* The GPIO module controls that pin. */
	gpio_port->gpers = 1 << (pin & 0x1F);
80002fec:	91 1c       	st.w	r8[0x4],r12
}
80002fee:	5e fc       	retal	r12

80002ff0 <gpio_clr_gpio_pin>:
 *
 * \param pin The pin number.
 */
void gpio_clr_gpio_pin(uint32_t pin)
{
	volatile avr32_gpio_port_t *gpio_port = &AVR32_GPIO.port[pin >> 5];
80002ff0:	f8 08 16 05 	lsr	r8,r12,0x5
80002ff4:	a9 78       	lsl	r8,0x9
80002ff6:	e0 28 e0 00 	sub	r8,57344
	
	/* Value to be driven on the I/O line: 0. */
	gpio_port->ovrc  = 1 << (pin & 0x1F);
80002ffa:	30 19       	mov	r9,1
80002ffc:	f2 0c 09 4c 	lsl	r12,r9,r12
80003000:	f1 4c 00 58 	st.w	r8[88],r12
	/* The GPIO output driver is enabled for that pin. */
	gpio_port->oders = 1 << (pin & 0x1F);
80003004:	f1 4c 00 44 	st.w	r8[68],r12
	/* The GPIO module controls that pin. */
	gpio_port->gpers = 1 << (pin & 0x1F);
80003008:	91 1c       	st.w	r8[0x4],r12
}
8000300a:	5e fc       	retal	r12

8000300c <_get_interrupt_handler>:
__int_handler _get_interrupt_handler(uint32_t int_level)
{
	/* ICR3 is mapped first, ICR0 last.
	Code in exception.S puts int_level in R12 which is used by the compiler
	to pass a single argument to a function. */
	uint32_t int_grp = AVR32_INTC.icr[AVR32_INTC_INT3 - int_level];
8000300c:	fe 78 00 00 	mov	r8,-65536
80003010:	e0 69 00 83 	mov	r9,131
80003014:	f2 0c 01 0c 	sub	r12,r9,r12
80003018:	f0 0c 03 29 	ld.w	r9,r8[r12<<0x2]
	uint32_t int_req = AVR32_INTC.irr[int_grp];
8000301c:	f2 ca ff c0 	sub	r10,r9,-64
80003020:	f0 0a 03 28 	ld.w	r8,r8[r10<<0x2]
	exception.S will provide the interrupt handler with a clean interrupt
	stack frame, with nothing more pushed onto the stack. The interrupt
	handler must manage the `rete' instruction, which can be done using
	pure assembly, inline assembly or the `__attribute__((__interrupt__))'
	C function attribute.*/
	return (int_req)
80003024:	58 08       	cp.w	r8,0
80003026:	c0 21       	brne	8000302a <_get_interrupt_handler+0x1e>
80003028:	5e fd       	retal	0
		? _int_handler_table[int_grp]._int_line_handler_table[32
8000302a:	f0 08 12 00 	clz	r8,r8
8000302e:	48 5a       	lddpc	r10,80003040 <_get_interrupt_handler+0x34>
80003030:	f4 09 00 39 	add	r9,r10,r9<<0x3
80003034:	f0 08 11 1f 	rsub	r8,r8,31
80003038:	72 19       	ld.w	r9,r9[0x4]
	exception.S will provide the interrupt handler with a clean interrupt
	stack frame, with nothing more pushed onto the stack. The interrupt
	handler must manage the `rete' instruction, which can be done using
	pure assembly, inline assembly or the `__attribute__((__interrupt__))'
	C function attribute.*/
	return (int_req)
8000303a:	f2 08 03 2c 	ld.w	r12,r9[r8<<0x2]
		? _int_handler_table[int_grp]._int_line_handler_table[32
			- clz(int_req) - 1]
		: NULL;
}
8000303e:	5e fc       	retal	r12
80003040:	80 00       	ld.sh	r0,r0[0x0]
80003042:	3f 48       	mov	r8,-12

80003044 <pm_set_mclk_source>:
 **/

long pm_set_mclk_source(pm_clk_src_t src)
{
  // Unlock the write-protected MCCTRL register
  AVR32_ENTER_CRITICAL_REGION( );
80003044:	e1 b9 00 00 	mfsr	r9,0x0
80003048:	d3 03       	ssrf	0x10
  PM_UNLOCK(AVR32_PM_MCCTRL);
8000304a:	fe 78 04 00 	mov	r8,-64512
8000304e:	fc 1a aa 00 	movh	r10,0xaa00
80003052:	f1 4a 00 58 	st.w	r8[88],r10
  AVR32_PM.mcctrl = src;
80003056:	91 0c       	st.w	r8[0x0],r12
  AVR32_LEAVE_CRITICAL_REGION( );
80003058:	12 98       	mov	r8,r9
8000305a:	e6 18 00 01 	andh	r8,0x1,COH
8000305e:	c0 21       	brne	80003062 <pm_set_mclk_source+0x1e>
80003060:	d5 03       	csrf	0x10

  return PASS;
}
80003062:	5e fd       	retal	0

80003064 <pcl_switch_to_osc>:
        return PASS;
}
#endif // UC3D device-specific implementation

long int pcl_switch_to_osc(pcl_osc_t osc, unsigned int fcrystal, unsigned int startup)
{
80003064:	eb cd 40 c0 	pushm	r6-r7,lr
80003068:	16 97       	mov	r7,r11
8000306a:	14 96       	mov	r6,r10
#else
// Implementation for UC3C, UC3L parts.
  #if AVR32_PM_VERSION_RESETVALUE < 0x400
    return PCL_NOT_SUPPORTED;
  #else
  if(PCL_OSC0 == osc)
8000306c:	58 0c       	cp.w	r12,0
8000306e:	c0 50       	breq	80003078 <pcl_switch_to_osc+0x14>
80003070:	fe 7c d8 f0 	mov	r12,-10000
80003074:	e3 cd 80 c0 	ldm	sp++,r6-r7,pc
  {
    // Configure OSC0 in crystal mode, external crystal with a fcrystal Hz frequency.
    scif_configure_osc_crystalmode(SCIF_OSC0, fcrystal);
80003078:	30 0c       	mov	r12,0
8000307a:	f0 1f 00 08 	mcall	80003098 <pcl_switch_to_osc+0x34>
    // Enable the OSC0
    scif_enable_osc(SCIF_OSC0, startup, true);
8000307e:	30 1a       	mov	r10,1
80003080:	0c 9b       	mov	r11,r6
80003082:	30 0c       	mov	r12,0
80003084:	f0 1f 00 06 	mcall	8000309c <pcl_switch_to_osc+0x38>
    // Set the Flash wait state and the speed read mode (depending on the target CPU frequency).
#if UC3L || UC3D
    flashcdw_set_flash_waitstate_and_readmode(fcrystal);
#elif UC3C
    flashc_set_flash_waitstate_and_readmode(fcrystal);
80003088:	0e 9c       	mov	r12,r7
8000308a:	f0 1f 00 06 	mcall	800030a0 <pcl_switch_to_osc+0x3c>
#endif
    // Set the main clock source as being OSC0.
    pm_set_mclk_source(PM_CLK_SRC_OSC0);
8000308e:	30 1c       	mov	r12,1
80003090:	f0 1f 00 05 	mcall	800030a4 <pcl_switch_to_osc+0x40>
80003094:	e3 cf 80 c0 	ldm	sp++,r6-r7,pc,r12=0
80003098:	80 00       	ld.sh	r0,r0[0x0]
8000309a:	31 38       	mov	r8,19
8000309c:	80 00       	ld.sh	r0,r0[0x0]
8000309e:	30 c4       	mov	r4,12
800030a0:	80 00       	ld.sh	r0,r0[0x0]
800030a2:	2e b4       	sub	r4,-21
800030a4:	80 00       	ld.sh	r0,r0[0x0]
800030a6:	30 44       	mov	r4,4

800030a8 <scif_pclksr_statushigh_wait>:
 * \return Status.
 *   \retval 0   Status is high.
 *   \retval <0  SCIF_POLL_TIMEOUT Timeout expired before the status was high.
 */
static long int scif_pclksr_statushigh_wait(unsigned long statusMask)
{
800030a8:	e0 78 86 a0 	mov	r8,100000
  unsigned int timeout = SCIF_POLL_TIMEOUT;

  while(!(AVR32_SCIF.pclksr & statusMask))
800030ac:	fe 7a 08 00 	mov	r10,-63488
800030b0:	c0 48       	rjmp	800030b8 <scif_pclksr_statushigh_wait+0x10>
  {
    if(--timeout == 0)
800030b2:	20 18       	sub	r8,1
800030b4:	c0 21       	brne	800030b8 <scif_pclksr_statushigh_wait+0x10>
800030b6:	5e fe       	retal	-1
 */
static long int scif_pclksr_statushigh_wait(unsigned long statusMask)
{
  unsigned int timeout = SCIF_POLL_TIMEOUT;

  while(!(AVR32_SCIF.pclksr & statusMask))
800030b8:	74 59       	ld.w	r9,r10[0x14]
800030ba:	f9 e9 00 09 	and	r9,r12,r9
800030be:	cf a0       	breq	800030b2 <scif_pclksr_statushigh_wait+0xa>
800030c0:	5e fd       	retal	0
800030c2:	d7 03       	nop

800030c4 <scif_enable_osc>:

  return PASS;
}

long int scif_enable_osc(scif_osc_t osc, unsigned int startup, bool wait_for_ready)
{
800030c4:	eb cd 40 80 	pushm	r7,lr
800030c8:	20 2d       	sub	sp,8

  u_avr32_scif_oscctrl_t   u_avr32_scif_oscctrl;

  // Read Register
  u_avr32_scif_oscctrl.OSCCTRL[osc] = AVR32_SCIF.OSCCTRL[osc] ;
800030ca:	fa c8 ff f8 	sub	r8,sp,-8
800030ce:	f0 0c 00 2e 	add	lr,r8,r12<<0x2
800030d2:	fe 78 08 00 	mov	r8,-63488
800030d6:	f8 c9 ff f7 	sub	r9,r12,-9
800030da:	f0 09 03 27 	ld.w	r7,r8[r9<<0x2]
  // Modify: Configure the oscillator startup and enable the osc.
  u_avr32_scif_oscctrl.OSCCTRL[osc].startup = startup;
800030de:	ef db d1 04 	bfins	r7,r11,0x8,0x4
  u_avr32_scif_oscctrl.OSCCTRL[osc].oscen = ENABLE;
800030e2:	30 1b       	mov	r11,1
800030e4:	ef db d2 01 	bfins	r7,r11,0x10,0x1
800030e8:	fd 47 ff f8 	st.w	lr[-8],r7
  AVR32_ENTER_CRITICAL_REGION( );
800030ec:	e1 bb 00 00 	mfsr	r11,0x0
800030f0:	d3 03       	ssrf	0x10
  // Unlock the write-protected OSCCTRL0 register
  SCIF_UNLOCK(AVR32_SCIF_OSCCTRL + 4*osc);
800030f2:	f2 07 15 02 	lsl	r7,r9,0x2
800030f6:	ea 17 aa 00 	orh	r7,0xaa00
800030fa:	91 67       	st.w	r8[0x18],r7
  // Write Back
  AVR32_SCIF.OSCCTRL[osc] = u_avr32_scif_oscctrl.OSCCTRL[osc];
800030fc:	fc fe ff f8 	ld.w	lr,lr[-8]
80003100:	f0 09 09 2e 	st.w	r8[r9<<0x2],lr
  AVR32_LEAVE_CRITICAL_REGION( );
80003104:	16 98       	mov	r8,r11
80003106:	e6 18 00 01 	andh	r8,0x1,COH
8000310a:	c0 21       	brne	8000310e <scif_enable_osc+0x4a>
8000310c:	d5 03       	csrf	0x10

  if(true == wait_for_ready)
8000310e:	58 0a       	cp.w	r10,0
80003110:	c0 e0       	breq	8000312c <scif_enable_osc+0x68>
  {
	  if (osc == SCIF_OSC0) {
80003112:	58 0c       	cp.w	r12,0
80003114:	c0 61       	brne	80003120 <scif_enable_osc+0x5c>
		  // Wait until OSC0 is stable and ready to be used.
		  if(scif_pclksr_statushigh_wait(AVR32_SCIF_PCLKSR_OSC0RDY_MASK))
80003116:	30 1c       	mov	r12,1
80003118:	f0 1f 00 07 	mcall	80003134 <scif_enable_osc+0x70>
8000311c:	c0 80       	breq	8000312c <scif_enable_osc+0x68>
8000311e:	c0 58       	rjmp	80003128 <scif_enable_osc+0x64>
			return -1;
	  } else {
		  // Wait until OSC1 is stable and ready to be used.
		  if(scif_pclksr_statushigh_wait(AVR32_SCIF_PCLKSR_OSC1RDY_MASK))
80003120:	30 2c       	mov	r12,2
80003122:	f0 1f 00 05 	mcall	80003134 <scif_enable_osc+0x70>
80003126:	c0 30       	breq	8000312c <scif_enable_osc+0x68>
80003128:	3f fc       	mov	r12,-1
8000312a:	c0 28       	rjmp	8000312e <scif_enable_osc+0x6a>
8000312c:	30 0c       	mov	r12,0
			return -1;
	  }
  }

  return PASS;
}
8000312e:	2f ed       	sub	sp,-8
80003130:	e3 cd 80 80 	ldm	sp++,r7,pc
80003134:	80 00       	ld.sh	r0,r0[0x0]
80003136:	30 a8       	mov	r8,10

80003138 <scif_configure_osc_crystalmode>:

long int scif_configure_osc_crystalmode(scif_osc_t osc, unsigned int fcrystal)
{
  u_avr32_scif_oscctrl_t   u_avr32_scif_oscctrl;

  if (osc == SCIF_OSC0)
80003138:	58 0c       	cp.w	r12,0
8000313a:	c3 41       	brne	800031a2 <scif_configure_osc_crystalmode+0x6a>
  {
    // Read Register
    u_avr32_scif_oscctrl.OSCCTRL[SCIF_OSC0] = AVR32_SCIF.OSCCTRL[SCIF_OSC0] ;
8000313c:	fe 78 08 00 	mov	r8,-63488
80003140:	70 98       	ld.w	r8,r8[0x24]
    // Modify : Configure the oscillator mode to crystal and set the gain according to the
    // crystal frequency.
    u_avr32_scif_oscctrl.OSCCTRL[SCIF_OSC0].mode = SCIF_OSC_MODE_2PIN_CRYSTAL;
    u_avr32_scif_oscctrl.OSCCTRL[SCIF_OSC0].gain = (fcrystal <  2000000) ? AVR32_SCIF_OSCCTRL0_GAIN_G0 :
80003142:	e0 69 84 7f 	mov	r9,33919
80003146:	ea 19 00 1e 	orh	r9,0x1e
8000314a:	12 3b       	cp.w	r11,r9
8000314c:	e0 8b 00 04 	brhi	80003154 <scif_configure_osc_crystalmode+0x1c>
80003150:	30 0b       	mov	r11,0
80003152:	c1 38       	rjmp	80003178 <scif_configure_osc_crystalmode+0x40>
80003154:	e0 69 96 7f 	mov	r9,38527
80003158:	ea 19 00 98 	orh	r9,0x98
8000315c:	12 3b       	cp.w	r11,r9
8000315e:	e0 8b 00 04 	brhi	80003166 <scif_configure_osc_crystalmode+0x2e>
80003162:	30 1b       	mov	r11,1
80003164:	c0 a8       	rjmp	80003178 <scif_configure_osc_crystalmode+0x40>
80003166:	e0 69 24 00 	mov	r9,9216
8000316a:	ea 19 00 f4 	orh	r9,0xf4
8000316e:	12 3b       	cp.w	r11,r9
80003170:	f9 bb 03 02 	movlo	r11,2
80003174:	f9 bb 02 03 	movhs	r11,3
  {
    // Read Register
    u_avr32_scif_oscctrl.OSCCTRL[SCIF_OSC0] = AVR32_SCIF.OSCCTRL[SCIF_OSC0] ;
    // Modify : Configure the oscillator mode to crystal and set the gain according to the
    // crystal frequency.
    u_avr32_scif_oscctrl.OSCCTRL[SCIF_OSC0].mode = SCIF_OSC_MODE_2PIN_CRYSTAL;
80003178:	30 19       	mov	r9,1
8000317a:	f1 d9 d0 01 	bfins	r8,r9,0x0,0x1
    u_avr32_scif_oscctrl.OSCCTRL[SCIF_OSC0].gain = (fcrystal <  2000000) ? AVR32_SCIF_OSCCTRL0_GAIN_G0 :
8000317e:	f1 db d0 22 	bfins	r8,r11,0x1,0x2
                                                   (fcrystal < 10000000) ? AVR32_SCIF_OSCCTRL0_GAIN_G1 :
                                                   (fcrystal < 16000000) ? AVR32_SCIF_OSCCTRL0_GAIN_G2 :
                                                                           AVR32_SCIF_OSCCTRL0_GAIN_G3;
    AVR32_ENTER_CRITICAL_REGION( );
80003182:	e1 ba 00 00 	mfsr	r10,0x0
80003186:	d3 03       	ssrf	0x10
    // Unlock the write-protected OSCCTRL0 register
    SCIF_UNLOCK(AVR32_SCIF_OSCCTRL);
80003188:	fe 79 08 00 	mov	r9,-63488
8000318c:	32 4b       	mov	r11,36
8000318e:	ea 1b aa 00 	orh	r11,0xaa00
80003192:	93 6b       	st.w	r9[0x18],r11
    // Write Back
    AVR32_SCIF.OSCCTRL[SCIF_OSC0] = u_avr32_scif_oscctrl.OSCCTRL[SCIF_OSC0];
80003194:	93 98       	st.w	r9[0x24],r8
    AVR32_LEAVE_CRITICAL_REGION( );
80003196:	14 98       	mov	r8,r10
80003198:	e6 18 00 01 	andh	r8,0x1,COH
8000319c:	c3 51       	brne	80003206 <scif_configure_osc_crystalmode+0xce>
8000319e:	d5 03       	csrf	0x10
800031a0:	c3 38       	rjmp	80003206 <scif_configure_osc_crystalmode+0xce>
  }
  else
  {
    // Read Register
    u_avr32_scif_oscctrl.OSCCTRL[SCIF_OSC1] = AVR32_SCIF.OSCCTRL[SCIF_OSC1] ;
800031a2:	fe 78 08 00 	mov	r8,-63488
800031a6:	70 a8       	ld.w	r8,r8[0x28]
    // Modify : Configure the oscillator mode to crystal and set the gain according to the
    // crystal frequency.
    u_avr32_scif_oscctrl.OSCCTRL[SCIF_OSC1].mode = SCIF_OSC_MODE_2PIN_CRYSTAL;
    u_avr32_scif_oscctrl.OSCCTRL[SCIF_OSC1].gain = (fcrystal <  2000000) ? AVR32_SCIF_OSCCTRL1_GAIN_G0 :
800031a8:	e0 69 84 7f 	mov	r9,33919
800031ac:	ea 19 00 1e 	orh	r9,0x1e
800031b0:	12 3b       	cp.w	r11,r9
800031b2:	e0 8b 00 04 	brhi	800031ba <scif_configure_osc_crystalmode+0x82>
800031b6:	30 0b       	mov	r11,0
800031b8:	c1 38       	rjmp	800031de <scif_configure_osc_crystalmode+0xa6>
800031ba:	e0 69 96 7f 	mov	r9,38527
800031be:	ea 19 00 98 	orh	r9,0x98
800031c2:	12 3b       	cp.w	r11,r9
800031c4:	e0 8b 00 04 	brhi	800031cc <scif_configure_osc_crystalmode+0x94>
800031c8:	30 1b       	mov	r11,1
800031ca:	c0 a8       	rjmp	800031de <scif_configure_osc_crystalmode+0xa6>
800031cc:	e0 69 24 00 	mov	r9,9216
800031d0:	ea 19 00 f4 	orh	r9,0xf4
800031d4:	12 3b       	cp.w	r11,r9
800031d6:	f9 bb 03 02 	movlo	r11,2
800031da:	f9 bb 02 03 	movhs	r11,3
  {
    // Read Register
    u_avr32_scif_oscctrl.OSCCTRL[SCIF_OSC1] = AVR32_SCIF.OSCCTRL[SCIF_OSC1] ;
    // Modify : Configure the oscillator mode to crystal and set the gain according to the
    // crystal frequency.
    u_avr32_scif_oscctrl.OSCCTRL[SCIF_OSC1].mode = SCIF_OSC_MODE_2PIN_CRYSTAL;
800031de:	30 19       	mov	r9,1
800031e0:	f1 d9 d0 01 	bfins	r8,r9,0x0,0x1
    u_avr32_scif_oscctrl.OSCCTRL[SCIF_OSC1].gain = (fcrystal <  2000000) ? AVR32_SCIF_OSCCTRL1_GAIN_G0 :
800031e4:	f1 db d0 22 	bfins	r8,r11,0x1,0x2
                                                   (fcrystal < 10000000) ? AVR32_SCIF_OSCCTRL1_GAIN_G1 :
                                                   (fcrystal < 16000000) ? AVR32_SCIF_OSCCTRL1_GAIN_G2 :
                                                                           AVR32_SCIF_OSCCTRL1_GAIN_G3;
    AVR32_ENTER_CRITICAL_REGION( );
800031e8:	e1 ba 00 00 	mfsr	r10,0x0
800031ec:	d3 03       	ssrf	0x10
    // Unlock the write-protected OSCCTRL1 register
    SCIF_UNLOCK(AVR32_SCIF_OSCCTRL + 4);
800031ee:	fe 79 08 00 	mov	r9,-63488
800031f2:	32 8b       	mov	r11,40
800031f4:	ea 1b aa 00 	orh	r11,0xaa00
800031f8:	93 6b       	st.w	r9[0x18],r11
    // Write Back
    AVR32_SCIF.OSCCTRL[SCIF_OSC1] = u_avr32_scif_oscctrl.OSCCTRL[SCIF_OSC1];
800031fa:	93 a8       	st.w	r9[0x28],r8
    AVR32_LEAVE_CRITICAL_REGION( );
800031fc:	14 98       	mov	r8,r10
800031fe:	e6 18 00 01 	andh	r8,0x1,COH
80003202:	c0 21       	brne	80003206 <scif_configure_osc_crystalmode+0xce>
80003204:	d5 03       	csrf	0x10
  }

  return PASS;
}
80003206:	5e fd       	retal	0

80003208 <getBaudDiv>:
xSemaphoreHandle xSPIMutex;
#endif

int16_t getBaudDiv(const uint32_t baudrate, uint32_t pb_hz)
{
	uint32_t baudDiv = div_ceil(pb_hz, baudrate);
80003208:	f8 c8 00 01 	sub	r8,r12,1
8000320c:	f0 0b 00 0b 	add	r11,r8,r11
80003210:	f6 0c 0d 0a 	divu	r10,r11,r12
80003214:	14 9c       	mov	r12,r10

	if (baudDiv <= 0 || baudDiv > 255) {
80003216:	f4 c8 00 01 	sub	r8,r10,1
8000321a:	e0 48 00 fe 	cp.w	r8,254
8000321e:	e0 88 00 03 	brls	80003224 <getBaudDiv+0x1c>
80003222:	5e fe       	retal	-1
		return -1;
	}

	return baudDiv;
80003224:	5c 8c       	casts.h	r12
}
80003226:	5e fc       	retal	r12

80003228 <spi_initMaster>:
spi_status_t spi_initMaster(volatile avr32_spi_t *spi,
		const spi_options_t *options)
{
	u_avr32_spi_mr_t u_avr32_spi_mr;

	if (options->modfdis > 1) {
80003228:	f7 39 00 0d 	ld.ub	r9,r11[13]
8000322c:	30 18       	mov	r8,1
8000322e:	f0 09 18 00 	cp.b	r9,r8
80003232:	e0 88 00 04 	brls	8000323a <spi_initMaster+0x12>
80003236:	30 2c       	mov	r12,2
80003238:	5e fc       	retal	r12
		return SPI_ERROR_ARGUMENT;
	}

	/* Reset. */
	spi->cr = AVR32_SPI_CR_SWRST_MASK;
8000323a:	e0 68 00 80 	mov	r8,128
8000323e:	99 08       	st.w	r12[0x0],r8

	/* Master Mode. */
	u_avr32_spi_mr.mr = spi->mr;
80003240:	78 18       	ld.w	r8,r12[0x4]
	u_avr32_spi_mr.MR.mstr = 1;
80003242:	30 19       	mov	r9,1
80003244:	f1 d9 d0 01 	bfins	r8,r9,0x0,0x1
	u_avr32_spi_mr.MR.modfdis = options->modfdis;
80003248:	f7 39 00 0d 	ld.ub	r9,r11[13]
8000324c:	f1 d9 d0 81 	bfins	r8,r9,0x4,0x1
	u_avr32_spi_mr.MR.llb = 0;
80003250:	30 09       	mov	r9,0
80003252:	f1 d9 d0 e1 	bfins	r8,r9,0x7,0x1
	u_avr32_spi_mr.MR.pcs = (1 << AVR32_SPI_MR_PCS_SIZE) - 1;
80003256:	30 fa       	mov	r10,15
80003258:	f1 da d2 04 	bfins	r8,r10,0x10,0x4
	spi->mr = u_avr32_spi_mr.mr;
8000325c:	99 18       	st.w	r12[0x4],r8
8000325e:	5e f9       	retal	r9

80003260 <spi_selectionMode>:

spi_status_t spi_selectionMode(volatile avr32_spi_t *spi,
		uint8_t variable_ps,
		uint8_t pcs_decode,
		uint8_t delay)
{
80003260:	eb cd 40 80 	pushm	r7,lr
	u_avr32_spi_mr_t u_avr32_spi_mr;

	if (variable_ps > 1 ||
80003264:	30 1e       	mov	lr,1
80003266:	f6 0e 18 00 	cp.b	lr,r11
8000326a:	f9 be 02 00 	movhs	lr,0
8000326e:	30 18       	mov	r8,1
80003270:	f4 08 18 00 	cp.b	r8,r10
80003274:	f9 b8 02 00 	movhs	r8,0
80003278:	fd e8 10 08 	or	r8,lr,r8
8000327c:	30 07       	mov	r7,0
8000327e:	ee 08 18 00 	cp.b	r8,r7
80003282:	c0 40       	breq	8000328a <spi_selectionMode+0x2a>
80003284:	30 2c       	mov	r12,2
80003286:	e3 cd 80 80 	ldm	sp++,r7,pc
			pcs_decode > 1) {
		return SPI_ERROR_ARGUMENT;
	}

	u_avr32_spi_mr.mr = spi->mr;
8000328a:	78 18       	ld.w	r8,r12[0x4]
	u_avr32_spi_mr.MR.ps = variable_ps;
8000328c:	f1 db d0 21 	bfins	r8,r11,0x1,0x1
	u_avr32_spi_mr.MR.pcsdec = pcs_decode;
80003290:	f1 da d0 41 	bfins	r8,r10,0x2,0x1
	u_avr32_spi_mr.MR.dlybcs = delay;
80003294:	f1 d9 d3 08 	bfins	r8,r9,0x18,0x8
	spi->mr = u_avr32_spi_mr.mr;
80003298:	99 18       	st.w	r12[0x4],r8
8000329a:	e3 cf 80 80 	ldm	sp++,r7,pc,r12=0

8000329e <spi_selectChip>:
	while (pdFALSE == xSemaphoreTake(xSPIMutex, 20)) {
	}
#endif

	/* Assert all lines; no peripheral is selected. */
	spi->mr |= AVR32_SPI_MR_PCS_MASK;
8000329e:	78 18       	ld.w	r8,r12[0x4]
800032a0:	ea 18 00 0f 	orh	r8,0xf
800032a4:	99 18       	st.w	r12[0x4],r8

	if (spi->mr & AVR32_SPI_MR_PCSDEC_MASK) {
800032a6:	78 18       	ld.w	r8,r12[0x4]
800032a8:	e2 18 00 04 	andl	r8,0x4,COH
800032ac:	c0 f0       	breq	800032ca <spi_selectChip+0x2c>
		/* The signal is decoded; allow up to 15 chips. */
		if (chip > 14) {
800032ae:	30 e8       	mov	r8,14
800032b0:	f0 0b 18 00 	cp.b	r11,r8
800032b4:	e0 8b 00 19 	brhi	800032e6 <spi_selectChip+0x48>
			return SPI_ERROR_ARGUMENT;
		}

		spi->mr &= ~AVR32_SPI_MR_PCS_MASK |
800032b8:	78 18       	ld.w	r8,r12[0x4]
800032ba:	b1 6b       	lsl	r11,0x10
800032bc:	ea 1b ff f0 	orh	r11,0xfff0
800032c0:	e8 1b ff ff 	orl	r11,0xffff
800032c4:	10 6b       	and	r11,r8
800032c6:	99 1b       	st.w	r12[0x4],r11
800032c8:	5e fd       	retal	0
				(chip << AVR32_SPI_MR_PCS_OFFSET);
	} else {
		if (chip > 3) {
800032ca:	30 38       	mov	r8,3
800032cc:	f0 0b 18 00 	cp.b	r11,r8
800032d0:	e0 8b 00 0b 	brhi	800032e6 <spi_selectChip+0x48>
			return SPI_ERROR_ARGUMENT;
		}

		spi->mr &= ~(1 << (AVR32_SPI_MR_PCS_OFFSET + chip));
800032d4:	78 18       	ld.w	r8,r12[0x4]
800032d6:	2f 0b       	sub	r11,-16
800032d8:	30 19       	mov	r9,1
800032da:	f2 0b 09 4b 	lsl	r11,r9,r11
800032de:	5c db       	com	r11
800032e0:	10 6b       	and	r11,r8
800032e2:	99 1b       	st.w	r12[0x4],r11
800032e4:	5e fd       	retal	0
800032e6:	30 2c       	mov	r12,2
	}

	return SPI_OK;
}
800032e8:	5e fc       	retal	r12

800032ea <spi_unselectChip>:

spi_status_t spi_unselectChip(volatile avr32_spi_t *spi, uint8_t chip)
{
800032ea:	e0 68 3a 98 	mov	r8,15000
	uint32_t timeout = SPI_TIMEOUT;

	while (!(spi->sr & AVR32_SPI_SR_TXEMPTY_MASK)) {
800032ee:	c0 58       	rjmp	800032f8 <spi_unselectChip+0xe>
		if (!timeout--) {
800032f0:	58 08       	cp.w	r8,0
800032f2:	c0 21       	brne	800032f6 <spi_unselectChip+0xc>
800032f4:	5e ff       	retal	1
800032f6:	20 18       	sub	r8,1

spi_status_t spi_unselectChip(volatile avr32_spi_t *spi, uint8_t chip)
{
	uint32_t timeout = SPI_TIMEOUT;

	while (!(spi->sr & AVR32_SPI_SR_TXEMPTY_MASK)) {
800032f8:	78 49       	ld.w	r9,r12[0x10]
800032fa:	e2 19 02 00 	andl	r9,0x200,COH
800032fe:	cf 90       	breq	800032f0 <spi_unselectChip+0x6>
			return SPI_ERROR_TIMEOUT;
		}
	}

	/* Assert all lines; no peripheral is selected. */
	spi->mr |= AVR32_SPI_MR_PCS_MASK;
80003300:	78 18       	ld.w	r8,r12[0x4]
80003302:	ea 18 00 0f 	orh	r8,0xf
80003306:	99 18       	st.w	r12[0x4],r8

	/* Last transfer, so de-assert the current NPCS if CSAAT is set. */
	spi->cr = AVR32_SPI_CR_LASTXFER_MASK;
80003308:	fc 18 01 00 	movh	r8,0x100
8000330c:	99 08       	st.w	r12[0x0],r8
8000330e:	5e fd       	retal	0

80003310 <spi_setupChipReg>:
}

spi_status_t spi_setupChipReg(volatile avr32_spi_t *spi,
		const spi_options_t *options,
		uint32_t pb_hz)
{
80003310:	eb cd 40 f8 	pushm	r3-r7,lr
80003314:	18 95       	mov	r5,r12
80003316:	16 97       	mov	r7,r11
	u_avr32_spi_csr_t u_avr32_spi_csr;

	if (options->spi_mode > 3 ||
80003318:	f7 36 00 0c 	ld.ub	r6,r11[12]
8000331c:	30 38       	mov	r8,3
8000331e:	f0 06 18 00 	cp.b	r6,r8
80003322:	e0 8b 00 4d 	brhi	800033bc <spi_setupChipReg+0xac>
			options->stay_act > 1 ||
80003326:	f7 34 00 0b 	ld.ub	r4,r11[11]
		const spi_options_t *options,
		uint32_t pb_hz)
{
	u_avr32_spi_csr_t u_avr32_spi_csr;

	if (options->spi_mode > 3 ||
8000332a:	30 18       	mov	r8,1
8000332c:	f0 04 18 00 	cp.b	r4,r8
80003330:	e0 8b 00 46 	brhi	800033bc <spi_setupChipReg+0xac>
			options->stay_act > 1 ||
			options->bits < 8 || options->bits > 16) {
80003334:	f7 33 00 08 	ld.ub	r3,r11[8]
		const spi_options_t *options,
		uint32_t pb_hz)
{
	u_avr32_spi_csr_t u_avr32_spi_csr;

	if (options->spi_mode > 3 ||
80003338:	30 78       	mov	r8,7
8000333a:	f0 03 18 00 	cp.b	r3,r8
8000333e:	e0 88 00 3f 	brls	800033bc <spi_setupChipReg+0xac>
80003342:	31 08       	mov	r8,16
80003344:	f0 03 18 00 	cp.b	r3,r8
80003348:	e0 8b 00 3a 	brhi	800033bc <spi_setupChipReg+0xac>
			options->stay_act > 1 ||
			options->bits < 8 || options->bits > 16) {
		return SPI_ERROR_ARGUMENT;
	}

	int baudDiv = getBaudDiv(options->baudrate, pb_hz);
8000334c:	14 9b       	mov	r11,r10
8000334e:	6e 1c       	ld.w	r12,r7[0x4]
80003350:	f0 1f 00 1d 	mcall	800033c4 <spi_setupChipReg+0xb4>

	if (baudDiv < 0) {
80003354:	c3 45       	brlt	800033bc <spi_setupChipReg+0xac>
		return SPI_ERROR_ARGUMENT;
	}

	/* Will use CSR0 offsets; these are the same for CSR0 to CSR3. */
	u_avr32_spi_csr.csr = 0;
80003356:	30 08       	mov	r8,0
	u_avr32_spi_csr.CSR.cpol   = options->spi_mode >> 1;
80003358:	ec 09 16 01 	lsr	r9,r6,0x1
8000335c:	f1 d9 d0 01 	bfins	r8,r9,0x0,0x1
	u_avr32_spi_csr.CSR.ncpha  = (options->spi_mode & 0x1) ^ 0x1;
80003360:	ec 16 00 01 	eorl	r6,0x1
80003364:	f1 d6 d0 21 	bfins	r8,r6,0x1,0x1
	u_avr32_spi_csr.CSR.csaat  = options->stay_act;
80003368:	f1 d4 d0 61 	bfins	r8,r4,0x3,0x1
	u_avr32_spi_csr.CSR.bits   = options->bits - 8;
8000336c:	20 83       	sub	r3,8
8000336e:	f1 d3 d0 84 	bfins	r8,r3,0x4,0x4
	u_avr32_spi_csr.CSR.scbr   = baudDiv;
80003372:	f1 dc d1 08 	bfins	r8,r12,0x8,0x8
	u_avr32_spi_csr.CSR.dlybs  = options->spck_delay;
80003376:	ef 39 00 09 	ld.ub	r9,r7[9]
8000337a:	f1 d9 d2 08 	bfins	r8,r9,0x10,0x8
	u_avr32_spi_csr.CSR.dlybct = options->trans_delay;
8000337e:	ef 39 00 0a 	ld.ub	r9,r7[10]
80003382:	f1 d9 d3 08 	bfins	r8,r9,0x18,0x8

	switch (options->reg) {
80003386:	0f 89       	ld.ub	r9,r7[0x0]
80003388:	30 1a       	mov	r10,1
8000338a:	f4 09 18 00 	cp.b	r9,r10
8000338e:	c0 e0       	breq	800033aa <spi_setupChipReg+0x9a>
80003390:	c0 a3       	brcs	800033a4 <spi_setupChipReg+0x94>
80003392:	30 2a       	mov	r10,2
80003394:	f4 09 18 00 	cp.b	r9,r10
80003398:	c0 c0       	breq	800033b0 <spi_setupChipReg+0xa0>
8000339a:	30 3a       	mov	r10,3
8000339c:	f4 09 18 00 	cp.b	r9,r10
800033a0:	c0 e1       	brne	800033bc <spi_setupChipReg+0xac>
800033a2:	c0 a8       	rjmp	800033b6 <spi_setupChipReg+0xa6>
	case 0:
		spi->csr0 = u_avr32_spi_csr.csr;
800033a4:	8b c8       	st.w	r5[0x30],r8
800033a6:	e3 cf 80 f8 	ldm	sp++,r3-r7,pc,r12=0
		break;

	case 1:
		spi->csr1 = u_avr32_spi_csr.csr;
800033aa:	8b d8       	st.w	r5[0x34],r8
800033ac:	e3 cf 80 f8 	ldm	sp++,r3-r7,pc,r12=0
		break;

	case 2:
		spi->csr2 = u_avr32_spi_csr.csr;
800033b0:	8b e8       	st.w	r5[0x38],r8
800033b2:	e3 cf 80 f8 	ldm	sp++,r3-r7,pc,r12=0
		break;

	case 3:
		spi->csr3 = u_avr32_spi_csr.csr;
800033b6:	8b f8       	st.w	r5[0x3c],r8
800033b8:	e3 cf 80 f8 	ldm	sp++,r3-r7,pc,r12=0
		break;
800033bc:	30 2c       	mov	r12,2
		}
	}
#endif

	return SPI_OK;
}
800033be:	e3 cd 80 f8 	ldm	sp++,r3-r7,pc
800033c2:	00 00       	add	r0,r0
800033c4:	80 00       	ld.sh	r0,r0[0x0]
800033c6:	32 08       	mov	r8,32

800033c8 <spi_enable>:

void spi_enable(volatile avr32_spi_t *spi)
{
	spi->cr = AVR32_SPI_CR_SPIEN_MASK;
800033c8:	30 18       	mov	r8,1
800033ca:	99 08       	st.w	r12[0x0],r8
}
800033cc:	5e fc       	retal	r12

800033ce <spi_write>:
{
	return ((spi->sr & AVR32_SPI_SR_TDRE_MASK) != 0);
}

spi_status_t spi_write(volatile avr32_spi_t *spi, uint16_t data)
{
800033ce:	e0 68 3a 98 	mov	r8,15000
	uint32_t timeout = SPI_TIMEOUT;

	while (!(spi->sr & AVR32_SPI_SR_TDRE_MASK)) {
800033d2:	c0 58       	rjmp	800033dc <spi_write+0xe>
		if (!timeout--) {
800033d4:	58 08       	cp.w	r8,0
800033d6:	c0 21       	brne	800033da <spi_write+0xc>
800033d8:	5e ff       	retal	1
800033da:	20 18       	sub	r8,1

spi_status_t spi_write(volatile avr32_spi_t *spi, uint16_t data)
{
	uint32_t timeout = SPI_TIMEOUT;

	while (!(spi->sr & AVR32_SPI_SR_TDRE_MASK)) {
800033dc:	78 49       	ld.w	r9,r12[0x10]
800033de:	e2 19 00 02 	andl	r9,0x2,COH
800033e2:	cf 90       	breq	800033d4 <spi_write+0x6>
		if (!timeout--) {
			return SPI_ERROR_TIMEOUT;
		}
	}

	spi->tdr = data << AVR32_SPI_TDR_TD_OFFSET;
800033e4:	5c 7b       	castu.h	r11
800033e6:	99 3b       	st.w	r12[0xc],r11
800033e8:	5e fd       	retal	0

800033ea <spi_read>:
{
	return ((spi->sr & AVR32_SPI_SR_RDRF_MASK) != 0);
}

spi_status_t spi_read(volatile avr32_spi_t *spi, uint16_t *data)
{
800033ea:	e0 68 3a 98 	mov	r8,15000
	unsigned int timeout = SPI_TIMEOUT;

	while ((spi->sr &
800033ee:	c0 58       	rjmp	800033f8 <spi_read+0xe>
			(AVR32_SPI_SR_RDRF_MASK | AVR32_SPI_SR_TXEMPTY_MASK)) !=
			(AVR32_SPI_SR_RDRF_MASK | AVR32_SPI_SR_TXEMPTY_MASK)) {
		if (!timeout--) {
800033f0:	58 08       	cp.w	r8,0
800033f2:	c0 21       	brne	800033f6 <spi_read+0xc>
800033f4:	5e ff       	retal	1
800033f6:	20 18       	sub	r8,1

spi_status_t spi_read(volatile avr32_spi_t *spi, uint16_t *data)
{
	unsigned int timeout = SPI_TIMEOUT;

	while ((spi->sr &
800033f8:	78 49       	ld.w	r9,r12[0x10]
800033fa:	e2 19 02 01 	andl	r9,0x201,COH
800033fe:	e0 49 02 01 	cp.w	r9,513
80003402:	cf 71       	brne	800033f0 <spi_read+0x6>
		if (!timeout--) {
			return SPI_ERROR_TIMEOUT;
		}
	}

	*data = spi->rdr >> AVR32_SPI_RDR_RD_OFFSET;
80003404:	78 28       	ld.w	r8,r12[0x8]
80003406:	b6 08       	st.h	r11[0x0],r8
80003408:	5e fd       	retal	0

8000340a <usart_set_async_baudrate>:
 *
 * \retval USART_SUCCESS        Baud rate successfully initialized.
 * \retval USART_INVALID_INPUT  Baud rate set point is out of range for the given input clock frequency.
 */
static int usart_set_async_baudrate(volatile avr32_usart_t *usart, unsigned int baudrate, unsigned long pba_hz)
{
8000340a:	d4 01       	pushm	lr
  unsigned int over = (pba_hz >= 16 * baudrate) ? 16 : 8;
8000340c:	f6 08 15 04 	lsl	r8,r11,0x4
80003410:	14 38       	cp.w	r8,r10
80003412:	f9 b8 08 10 	movls	r8,16
80003416:	f9 b8 0b 08 	movhi	r8,8
  unsigned int cd_fp = ((1 << AVR32_USART_BRGR_FP_SIZE) * pba_hz + (over * baudrate) / 2) / (over * baudrate);
8000341a:	f0 0b 02 4b 	mul	r11,r8,r11
8000341e:	f6 09 16 01 	lsr	r9,r11,0x1
80003422:	f2 0a 00 3a 	add	r10,r9,r10<<0x3
80003426:	f4 0b 0d 0a 	divu	r10,r10,r11
  unsigned int cd = cd_fp >> AVR32_USART_BRGR_FP_SIZE;
8000342a:	f4 09 16 03 	lsr	r9,r10,0x3
  unsigned int fp = cd_fp & ((1 << AVR32_USART_BRGR_FP_SIZE) - 1);

  if (cd < 1 || cd > (1 << AVR32_USART_BRGR_CD_SIZE) - 1)
8000342e:	f2 cb 00 01 	sub	r11,r9,1
80003432:	e0 4b ff fe 	cp.w	r11,65534
80003436:	e0 88 00 03 	brls	8000343c <usart_set_async_baudrate+0x32>
8000343a:	da 0a       	popm	pc,r12=1
    return USART_INVALID_INPUT;

  usart->mr = (usart->mr & ~(AVR32_USART_MR_USCLKS_MASK |
                             AVR32_USART_MR_SYNC_MASK |
                             AVR32_USART_MR_OVER_MASK)) |
              AVR32_USART_MR_USCLKS_MCK << AVR32_USART_MR_USCLKS_OFFSET |
8000343c:	78 1b       	ld.w	r11,r12[0x4]
  unsigned int fp = cd_fp & ((1 << AVR32_USART_BRGR_FP_SIZE) - 1);

  if (cd < 1 || cd > (1 << AVR32_USART_BRGR_CD_SIZE) - 1)
    return USART_INVALID_INPUT;

  usart->mr = (usart->mr & ~(AVR32_USART_MR_USCLKS_MASK |
8000343e:	e8 6e 00 00 	mov	lr,524288
80003442:	59 08       	cp.w	r8,16
80003444:	fc 08 17 10 	movne	r8,lr
80003448:	f9 b8 00 00 	moveq	r8,0
8000344c:	e4 1b ff f7 	andh	r11,0xfff7
80003450:	e0 1b fe cf 	andl	r11,0xfecf
80003454:	16 48       	or	r8,r11
80003456:	99 18       	st.w	r12[0x4],r8
                             AVR32_USART_MR_SYNC_MASK |
                             AVR32_USART_MR_OVER_MASK)) |
              AVR32_USART_MR_USCLKS_MCK << AVR32_USART_MR_USCLKS_OFFSET |
              ((over == 16) ? AVR32_USART_MR_OVER_X16 : AVR32_USART_MR_OVER_X8) << AVR32_USART_MR_OVER_OFFSET;

  usart->brgr = cd << AVR32_USART_BRGR_CD_OFFSET |
80003458:	f5 da c0 03 	bfextu	r10,r10,0x0,0x3
8000345c:	f3 ea 11 09 	or	r9,r9,r10<<0x10
80003460:	99 89       	st.w	r12[0x20],r9
80003462:	d8 0a       	popm	pc,r12=0

80003464 <usart_write_char>:
 *
 * \return \c 1 if the USART Transmit Holding Register is free, otherwise \c 0.
 */
__always_inline static int usart_tx_ready(volatile avr32_usart_t *usart)
{
  return (usart->csr & AVR32_USART_CSR_TXRDY_MASK) != 0;
80003464:	78 58       	ld.w	r8,r12[0x14]
}


int usart_write_char(volatile avr32_usart_t *usart, int c)
{
  if (usart_tx_ready(usart))
80003466:	e2 18 00 02 	andl	r8,0x2,COH
8000346a:	c0 31       	brne	80003470 <usart_write_char+0xc>
8000346c:	30 2c       	mov	r12,2
8000346e:	5e fc       	retal	r12
  {
    usart->thr = (c << AVR32_USART_THR_TXCHR_OFFSET) & AVR32_USART_THR_TXCHR_MASK;
80003470:	f7 db c0 09 	bfextu	r11,r11,0x0,0x9
80003474:	99 7b       	st.w	r12[0x1c],r11
80003476:	5e fd       	retal	0

80003478 <usart_putchar>:
    return USART_TX_BUSY;
}


int usart_putchar(volatile avr32_usart_t *usart, int c)
{
80003478:	eb cd 40 e0 	pushm	r5-r7,lr
8000347c:	18 96       	mov	r6,r12
8000347e:	16 95       	mov	r5,r11
80003480:	e0 67 27 0f 	mov	r7,9999
80003484:	c0 68       	rjmp	80003490 <usart_putchar+0x18>
  int timeout = USART_DEFAULT_TIMEOUT;

  do
  {
    if (!timeout--) return USART_FAILURE;
80003486:	58 07       	cp.w	r7,0
80003488:	c0 31       	brne	8000348e <usart_putchar+0x16>
8000348a:	e3 cf c0 e0 	ldm	sp++,r5-r7,pc,r12=-1
8000348e:	20 17       	sub	r7,1
  } while (usart_write_char(usart, c) != USART_SUCCESS);
80003490:	0a 9b       	mov	r11,r5
80003492:	0c 9c       	mov	r12,r6
80003494:	f0 1f 00 03 	mcall	800034a0 <usart_putchar+0x28>
80003498:	cf 71       	brne	80003486 <usart_putchar+0xe>

  return USART_SUCCESS;
}
8000349a:	e3 cd 80 e0 	ldm	sp++,r5-r7,pc
8000349e:	00 00       	add	r0,r0
800034a0:	80 00       	ld.sh	r0,r0[0x0]
800034a2:	34 64       	mov	r4,70

800034a4 <usart_write_line>:
  return c;
}


void usart_write_line(volatile avr32_usart_t *usart, const char *string)
{
800034a4:	eb cd 40 c0 	pushm	r6-r7,lr
800034a8:	18 96       	mov	r6,r12
800034aa:	16 97       	mov	r7,r11
  while (*string != '\0')
800034ac:	17 8b       	ld.ub	r11,r11[0x0]
800034ae:	58 0b       	cp.w	r11,0
800034b0:	c0 80       	breq	800034c0 <usart_write_line+0x1c>
    usart_putchar(usart, *string++);
800034b2:	2f f7       	sub	r7,-1
800034b4:	0c 9c       	mov	r12,r6
800034b6:	f0 1f 00 04 	mcall	800034c4 <usart_write_line+0x20>
}


void usart_write_line(volatile avr32_usart_t *usart, const char *string)
{
  while (*string != '\0')
800034ba:	0f 8b       	ld.ub	r11,r7[0x0]
800034bc:	58 0b       	cp.w	r11,0
800034be:	cf a1       	brne	800034b2 <usart_write_line+0xe>
800034c0:	e3 cd 80 c0 	ldm	sp++,r6-r7,pc
800034c4:	80 00       	ld.sh	r0,r0[0x0]
800034c6:	34 78       	mov	r8,71

800034c8 <usart_reset>:
//! @{


void usart_reset(volatile avr32_usart_t *usart)
{
  bool global_interrupt_enabled = cpu_irq_is_enabled();
800034c8:	e1 b8 00 00 	mfsr	r8,0x0

  // Disable all USART interrupts.
  // Interrupts needed should be set explicitly on every reset.
  if (global_interrupt_enabled) cpu_irq_disable();
800034cc:	e6 18 00 01 	andh	r8,0x1,COH
800034d0:	c0 71       	brne	800034de <usart_reset+0x16>
800034d2:	d3 03       	ssrf	0x10
  usart->idr = 0xFFFFFFFF;
800034d4:	3f f8       	mov	r8,-1
800034d6:	99 38       	st.w	r12[0xc],r8
  usart->csr;
800034d8:	78 58       	ld.w	r8,r12[0x14]
  if (global_interrupt_enabled) cpu_irq_enable();
800034da:	d5 03       	csrf	0x10
800034dc:	c0 48       	rjmp	800034e4 <usart_reset+0x1c>
  bool global_interrupt_enabled = cpu_irq_is_enabled();

  // Disable all USART interrupts.
  // Interrupts needed should be set explicitly on every reset.
  if (global_interrupt_enabled) cpu_irq_disable();
  usart->idr = 0xFFFFFFFF;
800034de:	3f f8       	mov	r8,-1
800034e0:	99 38       	st.w	r12[0xc],r8
  usart->csr;
800034e2:	78 58       	ld.w	r8,r12[0x14]
  if (global_interrupt_enabled) cpu_irq_enable();

  // Reset mode and other registers that could cause unpredictable behavior after reset.
  usart->mr = 0;
800034e4:	30 08       	mov	r8,0
800034e6:	99 18       	st.w	r12[0x4],r8
  usart->rtor = 0;
800034e8:	99 98       	st.w	r12[0x24],r8
  usart->ttgr = 0;
800034ea:	99 a8       	st.w	r12[0x28],r8

  // Shutdown TX and RX (will be re-enabled when setup has successfully completed),
  // reset status bits and turn off DTR and RTS.
  usart->cr = AVR32_USART_CR_RSTRX_MASK   |
800034ec:	ea 68 61 0c 	mov	r8,680204
800034f0:	99 08       	st.w	r12[0x0],r8
#ifndef AVR32_USART_440_H_INCLUDED
// Note: Modem Signal Management DTR-DSR-DCD-RI are not included in USART rev.440.
              AVR32_USART_CR_DTRDIS_MASK  |
#endif
              AVR32_USART_CR_RTSDIS_MASK;
}
800034f2:	5e fc       	retal	r12

800034f4 <usart_init_rs232>:


int usart_init_rs232(volatile avr32_usart_t *usart, const usart_options_t *opt, long pba_hz)
{
800034f4:	eb cd 40 e0 	pushm	r5-r7,lr
800034f8:	18 96       	mov	r6,r12
800034fa:	16 97       	mov	r7,r11
800034fc:	14 95       	mov	r5,r10
  // Reset the USART and shutdown TX and RX.
  usart_reset(usart);
800034fe:	f0 1f 00 2f 	mcall	800035b8 <usart_init_rs232+0xc4>

  // Check input values.
  if (!opt || // Null pointer.
80003502:	58 07       	cp.w	r7,0
80003504:	c5 80       	breq	800035b4 <usart_init_rs232+0xc0>
      opt->charlength < 5 || opt->charlength > 9 ||
80003506:	0f c8       	ld.ub	r8,r7[0x4]
{
  // Reset the USART and shutdown TX and RX.
  usart_reset(usart);

  // Check input values.
  if (!opt || // Null pointer.
80003508:	30 49       	mov	r9,4
8000350a:	f2 08 18 00 	cp.b	r8,r9
8000350e:	e0 88 00 53 	brls	800035b4 <usart_init_rs232+0xc0>
80003512:	30 99       	mov	r9,9
80003514:	f2 08 18 00 	cp.b	r8,r9
80003518:	e0 8b 00 4e 	brhi	800035b4 <usart_init_rs232+0xc0>
      opt->charlength < 5 || opt->charlength > 9 ||
      opt->paritytype > 7 ||
8000351c:	0f d9       	ld.ub	r9,r7[0x5]
8000351e:	30 78       	mov	r8,7
80003520:	f0 09 18 00 	cp.b	r9,r8
80003524:	e0 8b 00 48 	brhi	800035b4 <usart_init_rs232+0xc0>
      opt->stopbits > 2 + 255 ||
80003528:	8e 39       	ld.sh	r9,r7[0x6]
8000352a:	e0 68 01 01 	mov	r8,257
8000352e:	f0 09 19 00 	cp.h	r9,r8
80003532:	e0 8b 00 41 	brhi	800035b4 <usart_init_rs232+0xc0>
      opt->channelmode > 3 ||
80003536:	ef 39 00 08 	ld.ub	r9,r7[8]
8000353a:	30 38       	mov	r8,3
8000353c:	f0 09 18 00 	cp.b	r9,r8
80003540:	e0 8b 00 3a 	brhi	800035b4 <usart_init_rs232+0xc0>
      usart_set_async_baudrate(usart, opt->baudrate, pba_hz) == USART_INVALID_INPUT)
80003544:	0a 9a       	mov	r10,r5
80003546:	6e 0b       	ld.w	r11,r7[0x0]
80003548:	0c 9c       	mov	r12,r6
8000354a:	f0 1f 00 1d 	mcall	800035bc <usart_init_rs232+0xc8>
{
  // Reset the USART and shutdown TX and RX.
  usart_reset(usart);

  // Check input values.
  if (!opt || // Null pointer.
8000354e:	58 1c       	cp.w	r12,1
80003550:	c3 20       	breq	800035b4 <usart_init_rs232+0xc0>
      opt->stopbits > 2 + 255 ||
      opt->channelmode > 3 ||
      usart_set_async_baudrate(usart, opt->baudrate, pba_hz) == USART_INVALID_INPUT)
    return USART_INVALID_INPUT;

  if (opt->charlength == 9)
80003552:	0f c8       	ld.ub	r8,r7[0x4]
80003554:	30 99       	mov	r9,9
80003556:	f2 08 18 00 	cp.b	r8,r9
8000355a:	c0 51       	brne	80003564 <usart_init_rs232+0x70>
  {
    // Character length set to 9 bits. MODE9 dominates CHRL.
    usart->mr |= AVR32_USART_MR_MODE9_MASK;
8000355c:	6c 18       	ld.w	r8,r6[0x4]
8000355e:	b1 b8       	sbr	r8,0x11
80003560:	8d 18       	st.w	r6[0x4],r8
80003562:	c0 68       	rjmp	8000356e <usart_init_rs232+0x7a>
  }
  else
  {
    // CHRL gives the character length (- 5) when MODE9 = 0.
    usart->mr |= (opt->charlength - 5) << AVR32_USART_MR_CHRL_OFFSET;
80003564:	6c 19       	ld.w	r9,r6[0x4]
80003566:	20 58       	sub	r8,5
80003568:	f3 e8 10 68 	or	r8,r9,r8<<0x6
8000356c:	8d 18       	st.w	r6[0x4],r8
  }

  usart->mr |= opt->paritytype << AVR32_USART_MR_PAR_OFFSET |
8000356e:	6c 19       	ld.w	r9,r6[0x4]
80003570:	ef 3a 00 08 	ld.ub	r10,r7[8]
80003574:	0f d8       	ld.ub	r8,r7[0x5]
80003576:	a9 78       	lsl	r8,0x9
80003578:	f1 ea 10 e8 	or	r8,r8,r10<<0xe
8000357c:	12 48       	or	r8,r9
8000357e:	8d 18       	st.w	r6[0x4],r8
               opt->channelmode << AVR32_USART_MR_CHMODE_OFFSET;

  if (opt->stopbits > USART_2_STOPBITS)
80003580:	8e 38       	ld.sh	r8,r7[0x6]
80003582:	30 29       	mov	r9,2
80003584:	f2 08 19 00 	cp.h	r8,r9
80003588:	e0 88 00 09 	brls	8000359a <usart_init_rs232+0xa6>
  {
    // Set two stop bits
    usart->mr |= AVR32_USART_MR_NBSTOP_2 << AVR32_USART_MR_NBSTOP_OFFSET;
8000358c:	6c 18       	ld.w	r8,r6[0x4]
8000358e:	ad b8       	sbr	r8,0xd
80003590:	8d 18       	st.w	r6[0x4],r8
    // and a timeguard period gives the rest.
    usart->ttgr = opt->stopbits - USART_2_STOPBITS;
80003592:	8e b8       	ld.uh	r8,r7[0x6]
80003594:	20 28       	sub	r8,2
80003596:	8d a8       	st.w	r6[0x28],r8
80003598:	c0 68       	rjmp	800035a4 <usart_init_rs232+0xb0>
  }
  else
    // Insert 1, 1.5 or 2 stop bits.
    usart->mr |= opt->stopbits << AVR32_USART_MR_NBSTOP_OFFSET;
8000359a:	6c 19       	ld.w	r9,r6[0x4]
8000359c:	5c 78       	castu.h	r8
8000359e:	f3 e8 10 c8 	or	r8,r9,r8<<0xc
800035a2:	8d 18       	st.w	r6[0x4],r8

  // Set normal mode.
  usart->mr = (usart->mr & ~AVR32_USART_MR_MODE_MASK) |
800035a4:	6c 18       	ld.w	r8,r6[0x4]
800035a6:	e0 18 ff f0 	andl	r8,0xfff0
800035aa:	8d 18       	st.w	r6[0x4],r8
              AVR32_USART_MR_MODE_NORMAL << AVR32_USART_MR_MODE_OFFSET;

  // Setup complete; enable communication.
  // Enable input and output.
  usart->cr = AVR32_USART_CR_RXEN_MASK |
800035ac:	35 08       	mov	r8,80
800035ae:	8d 08       	st.w	r6[0x0],r8
800035b0:	e3 cf 80 e0 	ldm	sp++,r5-r7,pc,r12=0
              AVR32_USART_CR_TXEN_MASK;

  return USART_SUCCESS;
800035b4:	e3 cf 90 e0 	ldm	sp++,r5-r7,pc,r12=1
800035b8:	80 00       	ld.sh	r0,r0[0x0]
800035ba:	34 c8       	mov	r8,76
800035bc:	80 00       	ld.sh	r0,r0[0x0]
800035be:	34 0a       	mov	r10,64

800035c0 <print_char>:
  usart_write_line(usart, str);
}


void print_char(volatile avr32_usart_t *usart, int c)
{
800035c0:	d4 01       	pushm	lr
  // Invoke the USART driver to transmit the input character with the given USART.
  usart_putchar(usart, c);
800035c2:	f0 1f 00 02 	mcall	800035c8 <print_char+0x8>
}
800035c6:	d8 02       	popm	pc
800035c8:	80 00       	ld.sh	r0,r0[0x0]
800035ca:	34 78       	mov	r8,71

800035cc <print_dbg_char>:
  print(DBG_USART, str);
}


void print_dbg_char(int c)
{
800035cc:	d4 01       	pushm	lr
  // Redirection to the debug USART.
  print_char(DBG_USART, c);
800035ce:	18 9b       	mov	r11,r12
800035d0:	fe 7c 2c 00 	mov	r12,-54272
800035d4:	f0 1f 00 02 	mcall	800035dc <print_dbg_char+0x10>
}
800035d8:	d8 02       	popm	pc
800035da:	00 00       	add	r0,r0
800035dc:	80 00       	ld.sh	r0,r0[0x0]
800035de:	35 c0       	mov	r0,92

800035e0 <print>:
  print_hex(DBG_USART, n);
}


void print(volatile avr32_usart_t *usart, const char *str)
{
800035e0:	d4 01       	pushm	lr
  // Invoke the USART driver to transmit the input string with the given USART.
  usart_write_line(usart, str);
800035e2:	f0 1f 00 02 	mcall	800035e8 <print+0x8>
}
800035e6:	d8 02       	popm	pc
800035e8:	80 00       	ld.sh	r0,r0[0x0]
800035ea:	34 a4       	mov	r4,74

800035ec <print_ulong>:
  usart_putchar(usart, c);
}


void print_ulong(volatile avr32_usart_t *usart, unsigned long n)
{
800035ec:	eb cd 40 e0 	pushm	r5-r7,lr
800035f0:	20 3d       	sub	sp,12
  char tmp[11];
  int i = sizeof(tmp) - 1;

  // Convert the given number to an ASCII decimal representation.
  tmp[i] = '\0';
800035f2:	30 08       	mov	r8,0
800035f4:	fb 68 00 0a 	st.b	sp[10],r8
800035f8:	30 a9       	mov	r9,10
  do
  {
    tmp[--i] = '0' + n % 10;
800035fa:	1a 95       	mov	r5,sp
800035fc:	e0 6e cc cd 	mov	lr,52429
80003600:	ea 1e cc cc 	orh	lr,0xcccc
80003604:	20 19       	sub	r9,1
80003606:	f6 0e 06 46 	mulu.d	r6,r11,lr
8000360a:	0e 98       	mov	r8,r7
8000360c:	a3 98       	lsr	r8,0x3
8000360e:	f0 08 00 2a 	add	r10,r8,r8<<0x2
80003612:	f6 0a 01 1b 	sub	r11,r11,r10<<0x1
80003616:	2d 0b       	sub	r11,-48
80003618:	ea 09 0b 0b 	st.b	r5[r9],r11
    n /= 10;
8000361c:	10 9b       	mov	r11,r8
  } while (n);
8000361e:	58 08       	cp.w	r8,0
80003620:	cf 21       	brne	80003604 <print_ulong+0x18>

  // Transmit the resulting string with the given USART.
  print(usart, tmp + i);
80003622:	1a 9b       	mov	r11,sp
80003624:	12 0b       	add	r11,r9
80003626:	f0 1f 00 03 	mcall	80003630 <print_ulong+0x44>
}
8000362a:	2f dd       	sub	sp,-12
8000362c:	e3 cd 80 e0 	ldm	sp++,r5-r7,pc
80003630:	80 00       	ld.sh	r0,r0[0x0]
80003632:	35 e0       	mov	r0,94

80003634 <print_dbg_ulong>:
  print_char(DBG_USART, c);
}


void print_dbg_ulong(unsigned long n)
{
80003634:	d4 01       	pushm	lr
  // Redirection to the debug USART.
  print_ulong(DBG_USART, n);
80003636:	18 9b       	mov	r11,r12
80003638:	fe 7c 2c 00 	mov	r12,-54272
8000363c:	f0 1f 00 02 	mcall	80003644 <print_dbg_ulong+0x10>
}
80003640:	d8 02       	popm	pc
80003642:	00 00       	add	r0,r0
80003644:	80 00       	ld.sh	r0,r0[0x0]
80003646:	35 ec       	mov	r12,94

80003648 <print_dbg>:
  usart_init_rs232(DBG_USART, &dbg_usart_options, pba_hz);
}


void print_dbg(const char *str)
{
80003648:	d4 01       	pushm	lr
  // Redirection to the debug USART.
  print(DBG_USART, str);
8000364a:	18 9b       	mov	r11,r12
8000364c:	fe 7c 2c 00 	mov	r12,-54272
80003650:	f0 1f 00 02 	mcall	80003658 <print_dbg+0x10>
}
80003654:	d8 02       	popm	pc
80003656:	00 00       	add	r0,r0
80003658:	80 00       	ld.sh	r0,r0[0x0]
8000365a:	35 e0       	mov	r0,94

8000365c <init_dbg_rs232_ex>:
  init_dbg_rs232_ex(DBG_USART_BAUDRATE, pba_hz);
}


void init_dbg_rs232_ex(unsigned long baudrate, long pba_hz)
{
8000365c:	eb cd 40 80 	pushm	r7,lr
80003660:	20 3d       	sub	sp,12
80003662:	16 97       	mov	r7,r11
    .baudrate = baudrate,
    .charlength = 8,
    .paritytype = USART_NO_PARITY,
    .stopbits = USART_1_STOPBIT,
    .channelmode = USART_NORMAL_CHMODE
  };
80003664:	50 0c       	stdsp	sp[0x0],r12
80003666:	30 88       	mov	r8,8
80003668:	ba c8       	st.b	sp[0x4],r8
8000366a:	30 48       	mov	r8,4
8000366c:	ba d8       	st.b	sp[0x5],r8
8000366e:	30 08       	mov	r8,0
80003670:	ba 38       	st.h	sp[0x6],r8
80003672:	fb 68 00 08 	st.b	sp[8],r8

  // Setup GPIO for debug USART.
  gpio_enable_module(DBG_USART_GPIO_MAP,
80003676:	30 2b       	mov	r11,2
80003678:	48 6c       	lddpc	r12,80003690 <init_dbg_rs232_ex+0x34>
8000367a:	f0 1f 00 07 	mcall	80003694 <init_dbg_rs232_ex+0x38>
                     sizeof(DBG_USART_GPIO_MAP) / sizeof(DBG_USART_GPIO_MAP[0]));

  // Initialize it in RS232 mode.
  usart_init_rs232(DBG_USART, &dbg_usart_options, pba_hz);
8000367e:	0e 9a       	mov	r10,r7
80003680:	1a 9b       	mov	r11,sp
80003682:	fe 7c 2c 00 	mov	r12,-54272
80003686:	f0 1f 00 05 	mcall	80003698 <init_dbg_rs232_ex+0x3c>
}
8000368a:	2f dd       	sub	sp,-12
8000368c:	e3 cd 80 80 	ldm	sp++,r7,pc
80003690:	80 00       	ld.sh	r0,r0[0x0]
80003692:	40 c0       	lddsp	r0,sp[0x30]
80003694:	80 00       	ld.sh	r0,r0[0x0]
80003696:	2f a4       	sub	r4,-6
80003698:	80 00       	ld.sh	r0,r0[0x0]
8000369a:	34 f4       	mov	r4,79

8000369c <init_dbg_rs232>:
//! ASCII representation of hexadecimal digits.
static const char HEX_DIGITS[16] = "0123456789ABCDEF";


void init_dbg_rs232(long pba_hz)
{
8000369c:	d4 01       	pushm	lr
  init_dbg_rs232_ex(DBG_USART_BAUDRATE, pba_hz);
8000369e:	18 9b       	mov	r11,r12
800036a0:	e0 6c e1 00 	mov	r12,57600
800036a4:	f0 1f 00 02 	mcall	800036ac <init_dbg_rs232+0x10>
}
800036a8:	d8 02       	popm	pc
800036aa:	00 00       	add	r0,r0
800036ac:	80 00       	ld.sh	r0,r0[0x0]
800036ae:	36 5c       	mov	r12,101

800036b0 <_stext>:
800036b0:	48 dd       	lddpc	sp,800036e4 <udata_clear_loop_end+0x4>
800036b2:	fe c0 fa b2 	sub	r0,pc,-1358
800036b6:	e3 b0 00 01 	mtsr	0x4,r0
800036ba:	d5 53       	csrf	0x15
800036bc:	48 b0       	lddpc	r0,800036e8 <udata_clear_loop_end+0x8>
800036be:	48 c1       	lddpc	r1,800036ec <udata_clear_loop_end+0xc>
800036c0:	02 30       	cp.w	r0,r1
800036c2:	c0 62       	brcc	800036ce <idata_load_loop_end>
800036c4:	48 b2       	lddpc	r2,800036f0 <udata_clear_loop_end+0x10>

800036c6 <idata_load_loop>:
800036c6:	a5 05       	ld.d	r4,r2++
800036c8:	a1 24       	st.d	r0++,r4
800036ca:	02 30       	cp.w	r0,r1
800036cc:	cf d3       	brcs	800036c6 <idata_load_loop>

800036ce <idata_load_loop_end>:
800036ce:	48 a0       	lddpc	r0,800036f4 <udata_clear_loop_end+0x14>
800036d0:	48 a1       	lddpc	r1,800036f8 <udata_clear_loop_end+0x18>
800036d2:	02 30       	cp.w	r0,r1
800036d4:	c0 62       	brcc	800036e0 <udata_clear_loop_end>
800036d6:	30 02       	mov	r2,0
800036d8:	30 03       	mov	r3,0

800036da <udata_clear_loop>:
800036da:	a1 22       	st.d	r0++,r2
800036dc:	02 30       	cp.w	r0,r1
800036de:	cf e3       	brcs	800036da <udata_clear_loop>

800036e0 <udata_clear_loop_end>:
800036e0:	fe cf ff b4 	sub	pc,pc,-76
800036e4:	00 01       	add	r1,r0
800036e6:	00 00       	add	r0,r0
800036e8:	00 00       	add	r0,r0
800036ea:	00 04       	add	r4,r0
800036ec:	00 00       	add	r0,r0
800036ee:	00 10       	sub	r0,r0
800036f0:	80 00       	ld.sh	r0,r0[0x0]
800036f2:	42 e0       	lddsp	r0,sp[0xb8]
800036f4:	00 00       	add	r0,r0
800036f6:	00 10       	sub	r0,r0
800036f8:	00 00       	add	r0,r0
800036fa:	04 28       	rsub	r8,r2

800036fc <board_init>:
// 	static const gpio_map_t USART_GPIO_MAP =
// 	{
// 		{USART_RXD_PIN, USART_RXD_FUNCTION},
// 		{USART_TXD_PIN, USART_TXD_FUNCTION}
//	};
}
800036fc:	5e fc       	retal	r12
800036fe:	d7 03       	nop

80003700 <mem_test_unit_ready>:
  return LUN_ID_0;
}


Ctrl_status mem_test_unit_ready(U8 lun)
{
80003700:	d4 01       	pushm	lr
  Ctrl_status status;

  if (!Ctrl_access_lock()) return CTRL_FAIL;

  status =
80003702:	58 0c       	cp.w	r12,0
80003704:	c0 20       	breq	80003708 <mem_test_unit_ready+0x8>
80003706:	da 0a       	popm	pc,r12=1
#if MAX_LUN
         (lun < MAX_LUN) ? lun_desc[lun].test_unit_ready() :
80003708:	48 28       	lddpc	r8,80003710 <mem_test_unit_ready+0x10>
8000370a:	70 0c       	ld.w	r12,r8[0x0]
8000370c:	5d 1c       	icall	r12
#endif

  Ctrl_access_unlock();

  return status;
}
8000370e:	d8 02       	popm	pc
80003710:	80 00       	ld.sh	r0,r0[0x0]
80003712:	40 d0       	lddsp	r0,sp[0x34]

80003714 <mem_read_capacity>:


Ctrl_status mem_read_capacity(U8 lun, U32 *u32_nb_sector)
{
80003714:	d4 01       	pushm	lr
  Ctrl_status status;

  if (!Ctrl_access_lock()) return CTRL_FAIL;

  status =
80003716:	58 0c       	cp.w	r12,0
80003718:	c0 20       	breq	8000371c <mem_read_capacity+0x8>
8000371a:	da 0a       	popm	pc,r12=1
#if MAX_LUN
         (lun < MAX_LUN) ? lun_desc[lun].read_capacity(u32_nb_sector) :
8000371c:	48 38       	lddpc	r8,80003728 <mem_read_capacity+0x14>
8000371e:	70 18       	ld.w	r8,r8[0x4]
80003720:	16 9c       	mov	r12,r11
80003722:	5d 18       	icall	r8
#endif

  Ctrl_access_unlock();

  return status;
}
80003724:	d8 02       	popm	pc
80003726:	00 00       	add	r0,r0
80003728:	80 00       	ld.sh	r0,r0[0x0]
8000372a:	40 d0       	lddsp	r0,sp[0x34]

8000372c <main>:
}



int main (void)
{
8000372c:	d4 31       	pushm	r0-r7,lr
8000372e:	20 5d       	sub	sp,20
	unsigned long sdram_size, progress_inc, i, j, tmp, noErrors = 0;
	volatile unsigned long *sdram = SDRAM;
	uint32_t VarTemp;
	board_init();
80003730:	f0 1f 00 a5 	mcall	800039c4 <main+0x298>
	pcl_switch_to_osc(PCL_OSC0, FOSC0, OSC0_STARTUP);
80003734:	30 3a       	mov	r10,3
80003736:	e0 6b 24 00 	mov	r11,9216
8000373a:	ea 1b 00 f4 	orh	r11,0xf4
8000373e:	30 0c       	mov	r12,0
80003740:	f0 1f 00 a2 	mcall	800039c8 <main+0x29c>
	init_dbg_rs232(FOSC0);
80003744:	e0 6c 24 00 	mov	r12,9216
80003748:	ea 1c 00 f4 	orh	r12,0xf4
8000374c:	f0 1f 00 a0 	mcall	800039cc <main+0x2a0>
	print_dbg("\x0C Columbus Board Tester");
80003750:	fe fc 02 80 	ld.w	r12,pc[640]
80003754:	f0 1f 00 a0 	mcall	800039d4 <main+0x2a8>
	print_dbg("\n\rAll LEDS on;");
80003758:	fe fc 02 80 	ld.w	r12,pc[640]
8000375c:	f0 1f 00 9e 	mcall	800039d4 <main+0x2a8>
	LEDMOTOR_SET;
80003760:	32 cc       	mov	r12,44
80003762:	f0 1f 00 9f 	mcall	800039dc <main+0x2b0>
	LED2_SET;
80003766:	33 1c       	mov	r12,49
80003768:	f0 1f 00 9d 	mcall	800039dc <main+0x2b0>
	LED3_SET;
8000376c:	33 2c       	mov	r12,50
8000376e:	f0 1f 00 9c 	mcall	800039dc <main+0x2b0>
	LED4_SET;
80003772:	33 bc       	mov	r12,59
80003774:	f0 1f 00 9a 	mcall	800039dc <main+0x2b0>
	LED5_SET;
80003778:	33 cc       	mov	r12,60
8000377a:	f0 1f 00 99 	mcall	800039dc <main+0x2b0>
	LED6_SET;
8000377e:	33 dc       	mov	r12,61
80003780:	f0 1f 00 97 	mcall	800039dc <main+0x2b0>
 * \param  delay:   (input) delay in CPU cycles before timeout.
 * \param  cpu_time: (output) internal information used by the timer API.
 */
__always_inline static void cpu_set_timeout(unsigned long delay, t_cpu_time *cpu_time)
{
  cpu_time->delay_start_cycle = Get_system_register(AVR32_COUNT);
80003784:	e1 b8 00 42 	mfsr	r8,0x108
  cpu_time->delay_end_cycle   = cpu_time->delay_start_cycle + delay;
80003788:	e0 6a 24 00 	mov	r10,9216
8000378c:	ea 1a 00 f4 	orh	r10,0xf4
80003790:	f0 0a 00 0a 	add	r10,r8,r10
 *
 * \return true if timeout occurred, otherwise false.
 */
__always_inline static unsigned long cpu_is_timeout(t_cpu_time *cpu_time)
{
  unsigned long current_cycle_count = Get_system_register(AVR32_COUNT);
80003794:	e1 b9 00 42 	mfsr	r9,0x108
  // Test if the timeout as already occurred.
  else if (cpu_time->timer_state == CPU_TIMER_STATE_REACHED)
    return true;

  // If the ending cycle count of this timeout is wrapped, ...
  else if (cpu_time->delay_start_cycle > cpu_time->delay_end_cycle)
80003798:	14 38       	cp.w	r8,r10
8000379a:	e0 88 00 09 	brls	800037ac <main+0x80>
  {
    if (current_cycle_count < cpu_time->delay_start_cycle && current_cycle_count > cpu_time->delay_end_cycle)
8000379e:	12 38       	cp.w	r8,r9
800037a0:	fe 98 ff fa 	brls	80003794 <main+0x68>
800037a4:	12 3a       	cp.w	r10,r9
800037a6:	e0 83 00 d5 	brlo	80003950 <main+0x224>
800037aa:	cf 5b       	rjmp	80003794 <main+0x68>
    }
    return false;
  }
  else
  {
    if (current_cycle_count < cpu_time->delay_start_cycle || current_cycle_count > cpu_time->delay_end_cycle)
800037ac:	12 38       	cp.w	r8,r9
800037ae:	e0 8b 00 d1 	brhi	80003950 <main+0x224>
800037b2:	12 3a       	cp.w	r10,r9
800037b4:	e0 83 00 ce 	brlo	80003950 <main+0x224>
800037b8:	ce eb       	rjmp	80003794 <main+0x68>
 *
 * \return true if timeout occurred, otherwise false.
 */
__always_inline static unsigned long cpu_is_timeout(t_cpu_time *cpu_time)
{
  unsigned long current_cycle_count = Get_system_register(AVR32_COUNT);
800037ba:	e1 b9 00 42 	mfsr	r9,0x108
  // Test if the timeout as already occurred.
  else if (cpu_time->timer_state == CPU_TIMER_STATE_REACHED)
    return true;

  // If the ending cycle count of this timeout is wrapped, ...
  else if (cpu_time->delay_start_cycle > cpu_time->delay_end_cycle)
800037be:	14 38       	cp.w	r8,r10
800037c0:	e0 88 00 09 	brls	800037d2 <main+0xa6>
  {
    if (current_cycle_count < cpu_time->delay_start_cycle && current_cycle_count > cpu_time->delay_end_cycle)
800037c4:	12 38       	cp.w	r8,r9
800037c6:	fe 98 ff fa 	brls	800037ba <main+0x8e>
800037ca:	12 3a       	cp.w	r10,r9
800037cc:	e0 83 00 e0 	brlo	8000398c <main+0x260>
800037d0:	cf 5b       	rjmp	800037ba <main+0x8e>
    }
    return false;
  }
  else
  {
    if (current_cycle_count < cpu_time->delay_start_cycle || current_cycle_count > cpu_time->delay_end_cycle)
800037d2:	12 38       	cp.w	r8,r9
800037d4:	e0 8b 00 dc 	brhi	8000398c <main+0x260>
800037d8:	12 3a       	cp.w	r10,r9
800037da:	e0 83 00 d9 	brlo	8000398c <main+0x260>
800037de:	ce eb       	rjmp	800037ba <main+0x8e>
800037e0:	0c 95       	mov	r5,r6
	// printed progression status.
	progress_inc = (sdram_size + 50) / 100;
	// Fill the SDRAM with the test pattern.
	for (i = 0, j = 0; i < sdram_size; i++)
	{
		if (i == j * progress_inc)
800037e2:	ea 03 02 48 	mul	r8,r5,r3
800037e6:	0e 38       	cp.w	r8,r7
800037e8:	c0 30       	breq	800037ee <main+0xc2>
800037ea:	0a 96       	mov	r6,r5
800037ec:	c0 c8       	rjmp	80003804 <main+0xd8>
		{
			//LED_Toggle(LED_SDRAM_WRITE);
			print_dbg("\rFilling SDRAM with test pattern: ");
800037ee:	04 9c       	mov	r12,r2
800037f0:	f0 1f 00 79 	mcall	800039d4 <main+0x2a8>
			print_dbg_ulong(j++);
800037f4:	ea c6 ff ff 	sub	r6,r5,-1
800037f8:	0a 9c       	mov	r12,r5
800037fa:	f0 1f 00 7a 	mcall	800039e0 <main+0x2b4>
			print_dbg_char('%');
800037fe:	02 9c       	mov	r12,r1
80003800:	f0 1f 00 79 	mcall	800039e4 <main+0x2b8>
		}
		sdram[i] = i;
80003804:	08 a7       	st.w	r4++,r7
	print_dbg("SDRAM initialized\r\n");
	// Determine the increment of SDRAM word address requiring an update of the
	// printed progression status.
	progress_inc = (sdram_size + 50) / 100;
	// Fill the SDRAM with the test pattern.
	for (i = 0, j = 0; i < sdram_size; i++)
80003806:	2f f7       	sub	r7,-1
80003808:	fc 18 00 10 	movh	r8,0x10
8000380c:	10 37       	cp.w	r7,r8
8000380e:	ce 91       	brne	800037e0 <main+0xb4>
			print_dbg_char('%');
		}
		sdram[i] = i;
		
	}
	print_dbg("\rSDRAM filled with test pattern       \r\n");
80003810:	4f 6c       	lddpc	r12,800039e8 <main+0x2bc>
80003812:	f0 1f 00 71 	mcall	800039d4 <main+0x2a8>
80003816:	fc 15 c0 00 	movh	r5,0xc000
8000381a:	30 07       	mov	r7,0
8000381c:	0e 93       	mov	r3,r7
8000381e:	0e 96       	mov	r6,r7
	// Recover the test pattern from the SDRAM and verify it.
	for (i = 0, j = 0; i < sdram_size; i++)
	{
		
		if (i == j * progress_inc)
80003820:	e0 62 28 f6 	mov	r2,10486
		{
			print_dbg("\rRecovering test pattern from SDRAM: ");
80003824:	4f 21       	lddpc	r1,800039ec <main+0x2c0>
			print_dbg_ulong(j++);
			print_dbg_char('%');
80003826:	32 50       	mov	r0,37
	print_dbg("\rSDRAM filled with test pattern       \r\n");
	// Recover the test pattern from the SDRAM and verify it.
	for (i = 0, j = 0; i < sdram_size; i++)
	{
		
		if (i == j * progress_inc)
80003828:	ec 02 02 48 	mul	r8,r6,r2
8000382c:	0e 38       	cp.w	r8,r7
8000382e:	c0 30       	breq	80003834 <main+0x108>
80003830:	0c 94       	mov	r4,r6
80003832:	c0 c8       	rjmp	8000384a <main+0x11e>
		{
			print_dbg("\rRecovering test pattern from SDRAM: ");
80003834:	02 9c       	mov	r12,r1
80003836:	f0 1f 00 68 	mcall	800039d4 <main+0x2a8>
			print_dbg_ulong(j++);
8000383a:	ec c4 ff ff 	sub	r4,r6,-1
8000383e:	0c 9c       	mov	r12,r6
80003840:	f0 1f 00 68 	mcall	800039e0 <main+0x2b4>
			print_dbg_char('%');
80003844:	00 9c       	mov	r12,r0
80003846:	f0 1f 00 68 	mcall	800039e4 <main+0x2b8>
		}
		tmp = sdram[i];
8000384a:	6a 08       	ld.w	r8,r5[0x0]
		if (tmp != i)//failed
		{
			noErrors++;
8000384c:	0e 38       	cp.w	r8,r7
8000384e:	f7 b3 01 ff 	subne	r3,-1
		sdram[i] = i;
		
	}
	print_dbg("\rSDRAM filled with test pattern       \r\n");
	// Recover the test pattern from the SDRAM and verify it.
	for (i = 0, j = 0; i < sdram_size; i++)
80003852:	2f f7       	sub	r7,-1
80003854:	2f c5       	sub	r5,-4
80003856:	fc 18 00 10 	movh	r8,0x10
8000385a:	10 37       	cp.w	r7,r8
8000385c:	c0 30       	breq	80003862 <main+0x136>
8000385e:	08 96       	mov	r6,r4
80003860:	ce 4b       	rjmp	80003828 <main+0xfc>
		{
			noErrors++;
		}

	}
	print_dbg("\rSDRAM tested: ");
80003862:	4e 4c       	lddpc	r12,800039f0 <main+0x2c4>
80003864:	f0 1f 00 5c 	mcall	800039d4 <main+0x2a8>
	print_dbg_ulong(noErrors);
80003868:	06 9c       	mov	r12,r3
8000386a:	f0 1f 00 5e 	mcall	800039e0 <main+0x2b4>
	print_dbg(" corrupted word(s)       \r\n");
8000386e:	4e 2c       	lddpc	r12,800039f4 <main+0x2c8>
80003870:	f0 1f 00 59 	mcall	800039d4 <main+0x2a8>
	if (noErrors)
80003874:	58 03       	cp.w	r3,0
80003876:	c0 50       	breq	80003880 <main+0x154>
	{
			LED3_SET;
80003878:	33 2c       	mov	r12,50
8000387a:	f0 1f 00 59 	mcall	800039dc <main+0x2b0>
8000387e:	c0 48       	rjmp	80003886 <main+0x15a>
	}
	else
	{
			LED2_SET;
80003880:	33 1c       	mov	r12,49
80003882:	f0 1f 00 57 	mcall	800039dc <main+0x2b0>
80003886:	fc 16 c0 00 	movh	r6,0xc000
8000388a:	30 07       	mov	r7,0
	
	
	for(i = 0; i < 10; i++)
	{
		sdram[i] = i;
		print_dbg("\n\rWritten data: ");
8000388c:	4d b5       	lddpc	r5,800039f8 <main+0x2cc>
		print_dbg_ulong(i);
		print_dbg("\n\rRead data: ");
8000388e:	4d c4       	lddpc	r4,800039fc <main+0x2d0>
	}
	
	
	for(i = 0; i < 10; i++)
	{
		sdram[i] = i;
80003890:	8d 07       	st.w	r6[0x0],r7
		print_dbg("\n\rWritten data: ");
80003892:	0a 9c       	mov	r12,r5
80003894:	f0 1f 00 50 	mcall	800039d4 <main+0x2a8>
		print_dbg_ulong(i);
80003898:	0e 9c       	mov	r12,r7
8000389a:	f0 1f 00 52 	mcall	800039e0 <main+0x2b4>
		print_dbg("\n\rRead data: ");
8000389e:	08 9c       	mov	r12,r4
800038a0:	f0 1f 00 4d 	mcall	800039d4 <main+0x2a8>
		print_dbg_ulong(sdram[i]);
800038a4:	0d 0c       	ld.w	r12,r6++
800038a6:	f0 1f 00 4f 	mcall	800039e0 <main+0x2b4>
	{
			LED2_SET;
	}
	
	
	for(i = 0; i < 10; i++)
800038aa:	2f f7       	sub	r7,-1
800038ac:	58 a7       	cp.w	r7,10
800038ae:	cf 11       	brne	80003890 <main+0x164>
    .spck_delay   = 0,
    .trans_delay  = 0,
    .stay_act     = 1,
    .spi_mode     = 0,
    .modfdis      = 1
  };
800038b0:	4d 48       	lddpc	r8,80003a00 <main+0x2d4>
800038b2:	1a 97       	mov	r7,sp
800038b4:	70 09       	ld.w	r9,r8[0x0]
800038b6:	50 09       	stdsp	sp[0x0],r9
800038b8:	70 19       	ld.w	r9,r8[0x4]
800038ba:	50 19       	stdsp	sp[0x4],r9
800038bc:	70 29       	ld.w	r9,r8[0x8]
800038be:	50 29       	stdsp	sp[0x8],r9
800038c0:	70 38       	ld.w	r8,r8[0xc]
800038c2:	50 38       	stdsp	sp[0xc],r8

  // Assign I/Os to SPI.
  gpio_enable_module(SD_MMC_SPI_GPIO_MAP,
800038c4:	30 4b       	mov	r11,4
800038c6:	4d 0c       	lddpc	r12,80003a04 <main+0x2d8>
800038c8:	f0 1f 00 50 	mcall	80003a08 <main+0x2dc>
                     sizeof(SD_MMC_SPI_GPIO_MAP) / sizeof(SD_MMC_SPI_GPIO_MAP[0]));

  // Initialize as master.
  spi_initMaster(SD_MMC_SPI, &spiOptions);
800038cc:	1a 9b       	mov	r11,sp
800038ce:	fe 7c 34 00 	mov	r12,-52224
800038d2:	f0 1f 00 4f 	mcall	80003a0c <main+0x2e0>

  // Set SPI selection mode: variable_ps, pcs_decode, delay.
  spi_selectionMode(SD_MMC_SPI, 0, 0, 0);
800038d6:	30 09       	mov	r9,0
800038d8:	12 9a       	mov	r10,r9
800038da:	12 9b       	mov	r11,r9
800038dc:	fe 7c 34 00 	mov	r12,-52224
800038e0:	f0 1f 00 4c 	mcall	80003a10 <main+0x2e4>

  // Enable SPI module.
  spi_enable(SD_MMC_SPI);
800038e4:	fe 7c 34 00 	mov	r12,-52224
800038e8:	f0 1f 00 4b 	mcall	80003a14 <main+0x2e8>

  // Initialize SD/MMC driver with SPI clock (PBA).
  sd_mmc_spi_init(spiOptions, PBA_HZ);
800038ec:	20 4d       	sub	sp,16
800038ee:	6e 08       	ld.w	r8,r7[0x0]
800038f0:	50 08       	stdsp	sp[0x0],r8
800038f2:	6e 18       	ld.w	r8,r7[0x4]
800038f4:	50 18       	stdsp	sp[0x4],r8
800038f6:	6e 28       	ld.w	r8,r7[0x8]
800038f8:	50 28       	stdsp	sp[0x8],r8
800038fa:	6e 38       	ld.w	r8,r7[0xc]
800038fc:	50 38       	stdsp	sp[0xc],r8
800038fe:	e0 6c 24 00 	mov	r12,9216
80003902:	ea 1c 00 f4 	orh	r12,0xf4
80003906:	f0 1f 00 45 	mcall	80003a18 <main+0x2ec>
		print_dbg_ulong(sdram[i]);
	}


	sd_mmc_resources_init();
	print_dbg("\n\rSD Card Memory Test:\n\r");
8000390a:	4c 5c       	lddpc	r12,80003a1c <main+0x2f0>
8000390c:	f0 1f 00 32 	mcall	800039d4 <main+0x2a8>
	// Test if the memory is ready - using the control access memory abstraction layer (/SERVICES/MEMORY/CTRL_ACCESS/)
	if (mem_test_unit_ready(LUN_ID_SD_MMC_SPI_MEM) == CTRL_GOOD)
80003910:	30 0c       	mov	r12,0
80003912:	f0 1f 00 44 	mcall	80003a20 <main+0x2f4>
80003916:	2f cd       	sub	sp,-16
80003918:	58 0c       	cp.w	r12,0
8000391a:	c1 41       	brne	80003942 <main+0x216>
	{
		// Get and display the capacity
		mem_read_capacity(LUN_ID_SD_MMC_SPI_MEM, &VarTemp);
8000391c:	fa cb ff f0 	sub	r11,sp,-16
80003920:	f0 1f 00 41 	mcall	80003a24 <main+0x2f8>
		print_dbg("OK:\t");
80003924:	4c 1c       	lddpc	r12,80003a28 <main+0x2fc>
80003926:	f0 1f 00 2c 	mcall	800039d4 <main+0x2a8>
		print_dbg_ulong((VarTemp + 1) >> (20 - FS_SHIFT_B_TO_SECTOR));
8000392a:	40 4c       	lddsp	r12,sp[0x10]
8000392c:	2f fc       	sub	r12,-1
8000392e:	ab 9c       	lsr	r12,0xb
80003930:	f0 1f 00 2c 	mcall	800039e0 <main+0x2b4>
		print_dbg("MB\r\n");
80003934:	4b ec       	lddpc	r12,80003a2c <main+0x300>
80003936:	f0 1f 00 28 	mcall	800039d4 <main+0x2a8>
		print_dbg("SD Card Okay.\n\r");
8000393a:	4b ec       	lddpc	r12,80003a30 <main+0x304>
8000393c:	f0 1f 00 26 	mcall	800039d4 <main+0x2a8>
80003940:	c0 48       	rjmp	80003948 <main+0x21c>
	}
	else
	{
		// Display an error message
		print_dbg("Not initialized: Check if memory is ready...\r\n");
80003942:	4b dc       	lddpc	r12,80003a34 <main+0x308>
80003944:	f0 1f 00 24 	mcall	800039d4 <main+0x2a8>





	print_dbg("\n\rTest Complete!");
80003948:	4b cc       	lddpc	r12,80003a38 <main+0x30c>
8000394a:	f0 1f 00 23 	mcall	800039d4 <main+0x2a8>
8000394e:	c0 08       	rjmp	8000394e <main+0x222>
	LED3_SET;
	LED4_SET;
	LED5_SET;
	LED6_SET;
	delay_s(1);
	print_dbg("\n\rAll LEDS off;");
80003950:	4b bc       	lddpc	r12,80003a3c <main+0x310>
80003952:	f0 1f 00 21 	mcall	800039d4 <main+0x2a8>
	LEDMOTOR_CLR;
80003956:	32 cc       	mov	r12,44
80003958:	f0 1f 00 3a 	mcall	80003a40 <main+0x314>
	LED2_CLR;
8000395c:	33 1c       	mov	r12,49
8000395e:	f0 1f 00 39 	mcall	80003a40 <main+0x314>
	LED3_CLR;
80003962:	33 2c       	mov	r12,50
80003964:	f0 1f 00 37 	mcall	80003a40 <main+0x314>
	LED4_CLR;
80003968:	33 bc       	mov	r12,59
8000396a:	f0 1f 00 36 	mcall	80003a40 <main+0x314>
	LED5_CLR;
8000396e:	33 cc       	mov	r12,60
80003970:	f0 1f 00 34 	mcall	80003a40 <main+0x314>
	LED6_CLR;
80003974:	33 dc       	mov	r12,61
80003976:	f0 1f 00 33 	mcall	80003a40 <main+0x314>
 * \param  delay:   (input) delay in CPU cycles before timeout.
 * \param  cpu_time: (output) internal information used by the timer API.
 */
__always_inline static void cpu_set_timeout(unsigned long delay, t_cpu_time *cpu_time)
{
  cpu_time->delay_start_cycle = Get_system_register(AVR32_COUNT);
8000397a:	e1 b8 00 42 	mfsr	r8,0x108
  cpu_time->delay_end_cycle   = cpu_time->delay_start_cycle + delay;
8000397e:	e0 6a 24 00 	mov	r10,9216
80003982:	ea 1a 00 f4 	orh	r10,0xf4
80003986:	f0 0a 00 0a 	add	r10,r8,r10
8000398a:	c1 8b       	rjmp	800037ba <main+0x8e>
	delay_s(1);
	
	
	sdram_size = SDRAM_SIZE >> 2;
	print_dbg("\n\rSDRAM size: ");
8000398c:	4a ec       	lddpc	r12,80003a44 <main+0x318>
8000398e:	f0 1f 00 12 	mcall	800039d4 <main+0x2a8>
	print_dbg_ulong(SDRAM_SIZE >> 20);
80003992:	30 4c       	mov	r12,4
80003994:	f0 1f 00 13 	mcall	800039e0 <main+0x2b4>
	print_dbg(" MB\r\n");
80003998:	4a cc       	lddpc	r12,80003a48 <main+0x31c>
8000399a:	f0 1f 00 0f 	mcall	800039d4 <main+0x2a8>
	sdramc_init(FOSC0);
8000399e:	e0 6c 24 00 	mov	r12,9216
800039a2:	ea 1c 00 f4 	orh	r12,0xf4
800039a6:	f0 1f 00 2a 	mcall	80003a4c <main+0x320>
	print_dbg("SDRAM initialized\r\n");
800039aa:	4a ac       	lddpc	r12,80003a50 <main+0x324>
800039ac:	f0 1f 00 0a 	mcall	800039d4 <main+0x2a8>
800039b0:	fc 14 c0 00 	movh	r4,0xc000
800039b4:	30 07       	mov	r7,0
800039b6:	0e 95       	mov	r5,r7
	// printed progression status.
	progress_inc = (sdram_size + 50) / 100;
	// Fill the SDRAM with the test pattern.
	for (i = 0, j = 0; i < sdram_size; i++)
	{
		if (i == j * progress_inc)
800039b8:	e0 63 28 f6 	mov	r3,10486
		{
			//LED_Toggle(LED_SDRAM_WRITE);
			print_dbg("\rFilling SDRAM with test pattern: ");
800039bc:	4a 62       	lddpc	r2,80003a54 <main+0x328>
			print_dbg_ulong(j++);
			print_dbg_char('%');
800039be:	32 51       	mov	r1,37
800039c0:	c1 1b       	rjmp	800037e2 <main+0xb6>
800039c2:	00 00       	add	r0,r0
800039c4:	80 00       	ld.sh	r0,r0[0x0]
800039c6:	36 fc       	mov	r12,111
800039c8:	80 00       	ld.sh	r0,r0[0x0]
800039ca:	30 64       	mov	r4,6
800039cc:	80 00       	ld.sh	r0,r0[0x0]
800039ce:	36 9c       	mov	r12,105
800039d0:	80 00       	ld.sh	r0,r0[0x0]
800039d2:	41 34       	lddsp	r4,sp[0x4c]
800039d4:	80 00       	ld.sh	r0,r0[0x0]
800039d6:	36 48       	mov	r8,100
800039d8:	80 00       	ld.sh	r0,r0[0x0]
800039da:	41 4c       	lddsp	r12,sp[0x50]
800039dc:	80 00       	ld.sh	r0,r0[0x0]
800039de:	2f d4       	sub	r4,-3
800039e0:	80 00       	ld.sh	r0,r0[0x0]
800039e2:	36 34       	mov	r4,99
800039e4:	80 00       	ld.sh	r0,r0[0x0]
800039e6:	35 cc       	mov	r12,92
800039e8:	80 00       	ld.sh	r0,r0[0x0]
800039ea:	41 80       	lddsp	r0,sp[0x60]
800039ec:	80 00       	ld.sh	r0,r0[0x0]
800039ee:	41 ac       	lddsp	r12,sp[0x68]
800039f0:	80 00       	ld.sh	r0,r0[0x0]
800039f2:	41 d4       	lddsp	r4,sp[0x74]
800039f4:	80 00       	ld.sh	r0,r0[0x0]
800039f6:	41 e4       	lddsp	r4,sp[0x78]
800039f8:	80 00       	ld.sh	r0,r0[0x0]
800039fa:	42 00       	lddsp	r0,sp[0x80]
800039fc:	80 00       	ld.sh	r0,r0[0x0]
800039fe:	42 14       	lddsp	r4,sp[0x84]
80003a00:	80 00       	ld.sh	r0,r0[0x0]
80003a02:	41 04       	lddsp	r4,sp[0x40]
80003a04:	80 00       	ld.sh	r0,r0[0x0]
80003a06:	41 14       	lddsp	r4,sp[0x44]
80003a08:	80 00       	ld.sh	r0,r0[0x0]
80003a0a:	2f a4       	sub	r4,-6
80003a0c:	80 00       	ld.sh	r0,r0[0x0]
80003a0e:	32 28       	mov	r8,34
80003a10:	80 00       	ld.sh	r0,r0[0x0]
80003a12:	32 60       	mov	r0,38
80003a14:	80 00       	ld.sh	r0,r0[0x0]
80003a16:	33 c8       	mov	r8,60
80003a18:	80 00       	ld.sh	r0,r0[0x0]
80003a1a:	2b 10       	sub	r0,-79
80003a1c:	80 00       	ld.sh	r0,r0[0x0]
80003a1e:	42 24       	lddsp	r4,sp[0x88]
80003a20:	80 00       	ld.sh	r0,r0[0x0]
80003a22:	37 00       	mov	r0,112
80003a24:	80 00       	ld.sh	r0,r0[0x0]
80003a26:	37 14       	mov	r4,113
80003a28:	80 00       	ld.sh	r0,r0[0x0]
80003a2a:	42 40       	lddsp	r0,sp[0x90]
80003a2c:	80 00       	ld.sh	r0,r0[0x0]
80003a2e:	42 48       	lddsp	r8,sp[0x90]
80003a30:	80 00       	ld.sh	r0,r0[0x0]
80003a32:	42 50       	lddsp	r0,sp[0x94]
80003a34:	80 00       	ld.sh	r0,r0[0x0]
80003a36:	42 60       	lddsp	r0,sp[0x98]
80003a38:	80 00       	ld.sh	r0,r0[0x0]
80003a3a:	42 90       	lddsp	r0,sp[0xa4]
80003a3c:	80 00       	ld.sh	r0,r0[0x0]
80003a3e:	42 a4       	lddsp	r4,sp[0xa8]
80003a40:	80 00       	ld.sh	r0,r0[0x0]
80003a42:	2f f0       	sub	r0,-1
80003a44:	80 00       	ld.sh	r0,r0[0x0]
80003a46:	42 b4       	lddsp	r4,sp[0xac]
80003a48:	80 00       	ld.sh	r0,r0[0x0]
80003a4a:	42 c4       	lddsp	r4,sp[0xb0]
80003a4c:	80 00       	ld.sh	r0,r0[0x0]
80003a4e:	2c f4       	sub	r4,-49
80003a50:	80 00       	ld.sh	r0,r0[0x0]
80003a52:	42 cc       	lddsp	r12,sp[0xb0]
80003a54:	80 00       	ld.sh	r0,r0[0x0]
80003a56:	41 5c       	lddsp	r12,sp[0x54]

Disassembly of section .exception:

80003c00 <_evba>:
80003c00:	c0 08       	rjmp	80003c00 <_evba>
	...

80003c04 <_handle_TLB_Multiple_Hit>:
80003c04:	c0 08       	rjmp	80003c04 <_handle_TLB_Multiple_Hit>
	...

80003c08 <_handle_Bus_Error_Data_Fetch>:
80003c08:	c0 08       	rjmp	80003c08 <_handle_Bus_Error_Data_Fetch>
	...

80003c0c <_handle_Bus_Error_Instruction_Fetch>:
80003c0c:	c0 08       	rjmp	80003c0c <_handle_Bus_Error_Instruction_Fetch>
	...

80003c10 <_handle_NMI>:
80003c10:	c0 08       	rjmp	80003c10 <_handle_NMI>
	...

80003c14 <_handle_Instruction_Address>:
80003c14:	c0 08       	rjmp	80003c14 <_handle_Instruction_Address>
	...

80003c18 <_handle_ITLB_Protection>:
80003c18:	c0 08       	rjmp	80003c18 <_handle_ITLB_Protection>
	...

80003c1c <_handle_Breakpoint>:
80003c1c:	c0 08       	rjmp	80003c1c <_handle_Breakpoint>
	...

80003c20 <_handle_Illegal_Opcode>:
80003c20:	c0 08       	rjmp	80003c20 <_handle_Illegal_Opcode>
	...

80003c24 <_handle_Unimplemented_Instruction>:
80003c24:	c0 08       	rjmp	80003c24 <_handle_Unimplemented_Instruction>
	...

80003c28 <_handle_Privilege_Violation>:
80003c28:	c0 08       	rjmp	80003c28 <_handle_Privilege_Violation>
	...

80003c2c <_handle_Floating_Point>:
80003c2c:	c0 08       	rjmp	80003c2c <_handle_Floating_Point>
	...

80003c30 <_handle_Coprocessor_Absent>:
80003c30:	c0 08       	rjmp	80003c30 <_handle_Coprocessor_Absent>
	...

80003c34 <_handle_Data_Address_Read>:
80003c34:	c0 08       	rjmp	80003c34 <_handle_Data_Address_Read>
	...

80003c38 <_handle_Data_Address_Write>:
80003c38:	c0 08       	rjmp	80003c38 <_handle_Data_Address_Write>
	...

80003c3c <_handle_DTLB_Protection_Read>:
80003c3c:	c0 08       	rjmp	80003c3c <_handle_DTLB_Protection_Read>
	...

80003c40 <_handle_DTLB_Protection_Write>:
80003c40:	c0 08       	rjmp	80003c40 <_handle_DTLB_Protection_Write>
	...

80003c44 <_handle_DTLB_Modified>:
80003c44:	c0 08       	rjmp	80003c44 <_handle_DTLB_Modified>
	...

80003c50 <_handle_ITLB_Miss>:
80003c50:	c0 08       	rjmp	80003c50 <_handle_ITLB_Miss>
	...

80003c60 <_handle_DTLB_Miss_Read>:
80003c60:	c0 08       	rjmp	80003c60 <_handle_DTLB_Miss_Read>
	...

80003c70 <_handle_DTLB_Miss_Write>:
80003c70:	c0 08       	rjmp	80003c70 <_handle_DTLB_Miss_Write>
	...

80003d00 <_handle_Supervisor_Call>:
80003d00:	c0 08       	rjmp	80003d00 <_handle_Supervisor_Call>
80003d02:	d7 03       	nop

80003d04 <_int0>:
80003d04:	30 0c       	mov	r12,0
80003d06:	fe b0 f9 83 	rcall	8000300c <_get_interrupt_handler>
80003d0a:	58 0c       	cp.w	r12,0
80003d0c:	f8 0f 17 10 	movne	pc,r12
80003d10:	d6 03       	rete

80003d12 <_int1>:
80003d12:	30 1c       	mov	r12,1
80003d14:	fe b0 f9 7c 	rcall	8000300c <_get_interrupt_handler>
80003d18:	58 0c       	cp.w	r12,0
80003d1a:	f8 0f 17 10 	movne	pc,r12
80003d1e:	d6 03       	rete

80003d20 <_int2>:
80003d20:	30 2c       	mov	r12,2
80003d22:	fe b0 f9 75 	rcall	8000300c <_get_interrupt_handler>
80003d26:	58 0c       	cp.w	r12,0
80003d28:	f8 0f 17 10 	movne	pc,r12
80003d2c:	d6 03       	rete

80003d2e <_int3>:
80003d2e:	30 3c       	mov	r12,3
80003d30:	fe b0 f9 6e 	rcall	8000300c <_get_interrupt_handler>
80003d34:	58 0c       	cp.w	r12,0
80003d36:	f8 0f 17 10 	movne	pc,r12
80003d3a:	d6 03       	rete
80003d3c:	d7 03       	nop
80003d3e:	d7 03       	nop
80003d40:	d7 03       	nop
80003d42:	d7 03       	nop
80003d44:	d7 03       	nop
80003d46:	d7 03       	nop
80003d48:	d7 03       	nop
80003d4a:	d7 03       	nop
80003d4c:	d7 03       	nop
80003d4e:	d7 03       	nop
80003d50:	d7 03       	nop
80003d52:	d7 03       	nop
80003d54:	d7 03       	nop
80003d56:	d7 03       	nop
80003d58:	d7 03       	nop
80003d5a:	d7 03       	nop
80003d5c:	d7 03       	nop
80003d5e:	d7 03       	nop
80003d60:	d7 03       	nop
80003d62:	d7 03       	nop
80003d64:	d7 03       	nop
80003d66:	d7 03       	nop
80003d68:	d7 03       	nop
80003d6a:	d7 03       	nop
80003d6c:	d7 03       	nop
80003d6e:	d7 03       	nop
80003d70:	d7 03       	nop
80003d72:	d7 03       	nop
80003d74:	d7 03       	nop
80003d76:	d7 03       	nop
80003d78:	d7 03       	nop
80003d7a:	d7 03       	nop
80003d7c:	d7 03       	nop
80003d7e:	d7 03       	nop
80003d80:	d7 03       	nop
80003d82:	d7 03       	nop
80003d84:	d7 03       	nop
80003d86:	d7 03       	nop
80003d88:	d7 03       	nop
80003d8a:	d7 03       	nop
80003d8c:	d7 03       	nop
80003d8e:	d7 03       	nop
80003d90:	d7 03       	nop
80003d92:	d7 03       	nop
80003d94:	d7 03       	nop
80003d96:	d7 03       	nop
80003d98:	d7 03       	nop
80003d9a:	d7 03       	nop
80003d9c:	d7 03       	nop
80003d9e:	d7 03       	nop
80003da0:	d7 03       	nop
80003da2:	d7 03       	nop
80003da4:	d7 03       	nop
80003da6:	d7 03       	nop
80003da8:	d7 03       	nop
80003daa:	d7 03       	nop
80003dac:	d7 03       	nop
80003dae:	d7 03       	nop
80003db0:	d7 03       	nop
80003db2:	d7 03       	nop
80003db4:	d7 03       	nop
80003db6:	d7 03       	nop
80003db8:	d7 03       	nop
80003dba:	d7 03       	nop
80003dbc:	d7 03       	nop
80003dbe:	d7 03       	nop
80003dc0:	d7 03       	nop
80003dc2:	d7 03       	nop
80003dc4:	d7 03       	nop
80003dc6:	d7 03       	nop
80003dc8:	d7 03       	nop
80003dca:	d7 03       	nop
80003dcc:	d7 03       	nop
80003dce:	d7 03       	nop
80003dd0:	d7 03       	nop
80003dd2:	d7 03       	nop
80003dd4:	d7 03       	nop
80003dd6:	d7 03       	nop
80003dd8:	d7 03       	nop
80003dda:	d7 03       	nop
80003ddc:	d7 03       	nop
80003dde:	d7 03       	nop
80003de0:	d7 03       	nop
80003de2:	d7 03       	nop
80003de4:	d7 03       	nop
80003de6:	d7 03       	nop
80003de8:	d7 03       	nop
80003dea:	d7 03       	nop
80003dec:	d7 03       	nop
80003dee:	d7 03       	nop
80003df0:	d7 03       	nop
80003df2:	d7 03       	nop
80003df4:	d7 03       	nop
80003df6:	d7 03       	nop
80003df8:	d7 03       	nop
80003dfa:	d7 03       	nop
80003dfc:	d7 03       	nop
80003dfe:	d7 03       	nop
