
final.elf:     file format elf32-avr

Sections:
Idx Name          Size      VMA       LMA       File off  Algn
  0 .data         0000001e  00800100  00002bde  00002c72  2**0
                  CONTENTS, ALLOC, LOAD, DATA
  1 .text         00002bde  00000000  00000000  00000094  2**1
                  CONTENTS, ALLOC, LOAD, READONLY, CODE
  2 .bss          00000018  0080011e  0080011e  00002c90  2**0
                  ALLOC
  3 .stab         000006cc  00000000  00000000  00002c90  2**2
                  CONTENTS, READONLY, DEBUGGING
  4 .stabstr      00000085  00000000  00000000  0000335c  2**0
                  CONTENTS, READONLY, DEBUGGING
  5 .debug_aranges 00000020  00000000  00000000  000033e1  2**0
                  CONTENTS, READONLY, DEBUGGING
  6 .debug_pubnames 000002a9  00000000  00000000  00003401  2**0
                  CONTENTS, READONLY, DEBUGGING
  7 .debug_info   00000c3f  00000000  00000000  000036aa  2**0
                  CONTENTS, READONLY, DEBUGGING
  8 .debug_abbrev 000001a0  00000000  00000000  000042e9  2**0
                  CONTENTS, READONLY, DEBUGGING
  9 .debug_line   00001376  00000000  00000000  00004489  2**0
                  CONTENTS, READONLY, DEBUGGING
 10 .debug_frame  00000240  00000000  00000000  00005800  2**2
                  CONTENTS, READONLY, DEBUGGING
 11 .debug_str    00000346  00000000  00000000  00005a40  2**0
                  CONTENTS, READONLY, DEBUGGING
 12 .debug_pubtypes 00000047  00000000  00000000  00005d86  2**0
                  CONTENTS, READONLY, DEBUGGING

Disassembly of section .text:

00000000 <__vectors>:
       0:	0c 94 6e 06 	jmp	0xcdc	; 0xcdc <__ctors_end>
       4:	0c 94 12 14 	jmp	0x2824	; 0x2824 <__vector_1>
       8:	0c 94 8b 06 	jmp	0xd16	; 0xd16 <__bad_interrupt>
       c:	0c 94 8b 06 	jmp	0xd16	; 0xd16 <__bad_interrupt>
      10:	0c 94 8b 06 	jmp	0xd16	; 0xd16 <__bad_interrupt>
      14:	0c 94 8b 06 	jmp	0xd16	; 0xd16 <__bad_interrupt>
      18:	0c 94 8b 06 	jmp	0xd16	; 0xd16 <__bad_interrupt>
      1c:	0c 94 8b 06 	jmp	0xd16	; 0xd16 <__bad_interrupt>
      20:	0c 94 8b 06 	jmp	0xd16	; 0xd16 <__bad_interrupt>
      24:	0c 94 8b 06 	jmp	0xd16	; 0xd16 <__bad_interrupt>
      28:	0c 94 8b 06 	jmp	0xd16	; 0xd16 <__bad_interrupt>
      2c:	0c 94 8b 06 	jmp	0xd16	; 0xd16 <__bad_interrupt>
      30:	0c 94 8b 06 	jmp	0xd16	; 0xd16 <__bad_interrupt>
      34:	0c 94 8b 06 	jmp	0xd16	; 0xd16 <__bad_interrupt>
      38:	0c 94 8b 06 	jmp	0xd16	; 0xd16 <__bad_interrupt>
      3c:	0c 94 8b 06 	jmp	0xd16	; 0xd16 <__bad_interrupt>
      40:	0c 94 8b 06 	jmp	0xd16	; 0xd16 <__bad_interrupt>
      44:	0c 94 8b 06 	jmp	0xd16	; 0xd16 <__bad_interrupt>
      48:	0c 94 8b 06 	jmp	0xd16	; 0xd16 <__bad_interrupt>
      4c:	0c 94 8b 06 	jmp	0xd16	; 0xd16 <__bad_interrupt>
      50:	0c 94 8b 06 	jmp	0xd16	; 0xd16 <__bad_interrupt>
      54:	0c 94 8b 06 	jmp	0xd16	; 0xd16 <__bad_interrupt>
      58:	0c 94 8b 06 	jmp	0xd16	; 0xd16 <__bad_interrupt>
      5c:	0c 94 8b 06 	jmp	0xd16	; 0xd16 <__bad_interrupt>
      60:	0c 94 8b 06 	jmp	0xd16	; 0xd16 <__bad_interrupt>
      64:	0c 94 8b 06 	jmp	0xd16	; 0xd16 <__bad_interrupt>
      68:	0c 94 8b 06 	jmp	0xd16	; 0xd16 <__bad_interrupt>
      6c:	0c 94 8b 06 	jmp	0xd16	; 0xd16 <__bad_interrupt>
      70:	0c 94 8b 06 	jmp	0xd16	; 0xd16 <__bad_interrupt>
      74:	0c 94 8b 06 	jmp	0xd16	; 0xd16 <__bad_interrupt>
      78:	0c 94 8b 06 	jmp	0xd16	; 0xd16 <__bad_interrupt>

0000007c <change_reg>:
      7c:	3a 04 40 d0 12 14 32 80 17 16 18 04 19 02 1a 7b     :.@...2........{
      8c:	03 06 0c 00 3e 00 70 00 71 00 72 11 73 00 a2 02     ....>.p.q.r.s...
      9c:	11 01 7a 20 7b 1c 7c 28 7d 3c 7e 55 7f 68 80 76     ..z {.|(}<~U.h.v
      ac:	81 80 82 88 83 8f 84 96 85 a3 86 af 87 c4 88 d7     ................
      bc:	89 e8 13 e0 00 00 10 00 0d 00 14 20 a5 05 ab 07     ........... ....
      cc:	24 75 25 63 26 a5 9f 78 a0 68 a1 03 a6 df a7 df     $u%c&..x.h......
      dc:	a8 f0 a9 90 aa 94 13 e5 0e 61 0f 4b 16 02 1e 27     .........a.K...'
      ec:	21 02 22 91 29 07 33 0b 35 0b 37 1d 38 71 39 2a     !.".).3.5.7.8q9*
      fc:	3c 78 4d 40 4e 20 69 0c 6b 60 74 19 8d 4f 8e 00     <xM@N i.k`t..O..
     10c:	8f 00 90 00 91 00 92 00 96 00 9a 80 b0 84 b1 0c     ................
     11c:	b2 0e b3 82 b8 0a 43 14 44 f0 45 34 46 58 47 28     ......C.D.E4FXG(
     12c:	48 3a 59 88 5a 88 5b 44 5c 67 5d 49 5e 0e 64 04     H:Y.Z.[D\g]I^.d.
     13c:	65 20 66 05 94 04 95 08 6c 0a 6d 55 6e 11 6f 9f     e f.....l.mUn.o.
     14c:	6a 40 01 40 02 40 13 e7 15 02 4f 80 50 80 51 00     j@.@.@....O.P.Q.
     15c:	52 22 53 5e 54 80 58 9e 41 08 3f 00 75 05 76 e1     R"S^T.X.A.?.u.v.
     16c:	4c 00 77 01 3d c2 4b 09 c9 60 41 38 56 40 34 11     L.w.=.K..`A8V@4.
     17c:	3b 02 a4 89 96 00 97 30 98 20 99 30 9a 84 9b 29     ;......0. .0...)
     18c:	9c 03 9d 4c 9e 3f 78 04 79 01 c8 f0 79 0f c8 00     ...L.?x.y...y...
     19c:	79 10 c8 7e 79 0a c8 80 79 0b c8 01 79 0c c8 0f     y..~y...y...y...
     1ac:	79 0d c8 20 79 09 c8 80 79 02 c8 c0 79 03 c8 40     y.. y...y...y..@
     1bc:	79 05 c8 30 79 26 09 03 55 00 56 40 3b 42 00 00     y..0y&..U.V@;B..
	...

000001dc <font>:
	...
     1f0:	00 00 07 d0 00 00 00 00 00 00 00 00 00 00 00 00     ................
     200:	07 00 00 00 07 00 00 00 00 00 00 00 00 00 01 28     ...............(
     210:	03 f0 05 28 03 f0 05 20 00 00 00 00 00 00 00 00     ...(... ........
     220:	01 20 02 b8 06 a0 02 40 00 00 00 00 00 00 00 00     . .....@........
     230:	00 00 02 80 05 a0 02 d0 00 a0 00 00 00 00 00 60     ...............`
     240:	01 90 02 50 02 70 00 10 00 00 00 00 00 00 00 00     ...P.p..........
     250:	00 00 07 00 00 00 00 00 00 00 00 00 00 00 00 00     ................
     260:	01 e0 06 18 00 00 00 00 00 00 00 00 00 00 00 00     ................
     270:	00 00 00 00 06 18 01 e0 00 00 00 00 00 00 00 00     ................
     280:	02 00 02 80 07 00 02 80 02 00 00 00 00 00 00 80     ................
     290:	00 80 07 f0 00 80 00 80 00 00 00 00 00 00 00 00     ................
     2a0:	00 0c 00 18 00 10 00 00 00 00 00 00 00 00 00 80     ................
     2b0:	00 80 00 80 00 80 00 80 00 00 00 00 00 00 00 00     ................
     2c0:	00 00 00 10 00 10 00 00 00 00 00 00 00 00 00 00     ................
     2d0:	00 08 00 30 00 c0 03 00 04 00 00 00 00 00 00 00     ...0............
     2e0:	03 e0 04 10 04 10 04 10 03 e0 00 00 00 00 00 00     ................
     2f0:	00 10 04 10 07 f0 00 10 00 10 00 00 00 00 00 00     ................
     300:	02 30 04 50 04 90 05 10 02 10 00 00 00 00 00 00     .0.P............
     310:	02 20 04 10 04 90 04 90 03 60 00 00 00 00 00 c0     . .......`......
     320:	01 40 02 50 07 f0 00 50 00 00 00 00 00 00 00 00     .@.P...P........
     330:	00 20 07 90 04 90 04 90 04 60 00 00 00 00 01 e0     . .......`......
     340:	02 90 04 90 04 90 04 60 00 00 00 00 00 00 00 00     .......`........
     350:	06 00 04 00 04 30 04 c0 07 00 00 00 00 00 03 60     .....0.........`
     360:	04 90 04 90 04 90 03 60 00 00 00 00 00 00 03 10     .......`........
     370:	04 90 04 90 04 a0 03 c0 00 00 00 00 00 00 00 00     ................
     380:	01 10 01 10 00 00 00 00 00 00 00 00 00 00 00 00     ................
     390:	00 18 01 30 01 20 00 00 00 00 00 00 00 00 00 00     ...0. ..........
     3a0:	00 80 00 80 01 40 01 40 02 20 00 00 00 00 00 00     .....@.@. ......
     3b0:	01 40 01 40 01 40 01 40 01 40 00 00 00 00 02 20     .@.@.@.@.@..... 
     3c0:	01 40 01 40 00 80 00 80 00 00 00 00 00 00 00 00     .@.@............
     3d0:	02 00 04 10 04 d0 03 00 00 00 00 00 00 00 00 00     ................
     3e0:	03 f0 04 08 04 c8 05 28 03 e8 00 00 00 10 00 30     .......(.......0
     3f0:	05 d0 06 40 01 d0 00 30 00 10 00 00 00 00 04 10     ...@...0........
     400:	07 f0 04 90 04 90 04 90 03 60 00 00 00 00 03 e0     .........`......
     410:	04 10 04 10 04 10 06 20 00 00 00 00 00 00 04 10     ....... ........
     420:	07 f0 04 10 04 10 02 20 01 c0 00 00 00 00 00 00     ....... ........
     430:	04 10 07 f0 04 90 05 d0 06 30 00 00 00 00 04 10     .........0......
     440:	07 f0 04 90 05 c0 06 00 00 00 00 00 00 00 03 e0     ................
     450:	04 10 04 10 04 50 06 60 00 40 00 00 04 10 07 f0     .....P.`.@......
     460:	04 90 00 80 04 90 07 f0 04 10 00 00 00 00 04 10     ................
     470:	04 10 07 f0 04 10 04 10 00 00 00 00 00 00 00 60     ...............`
     480:	04 10 04 10 07 e0 04 00 00 00 00 00 04 10 07 f0     ................
     490:	04 90 00 80 05 40 06 30 04 10 00 00 00 00 04 10     .....@.0........
     4a0:	07 f0 04 10 00 10 00 70 00 00 00 00 00 00 04 10     .......p........
     4b0:	07 f0 07 10 00 80 07 10 07 f0 04 10 00 00 04 10     ................
     4c0:	07 f0 07 10 00 c0 04 30 07 f0 04 00 00 00 03 e0     .......0........
     4d0:	04 10 04 10 04 10 03 e0 00 00 00 00 00 00 00 00     ................
     4e0:	04 10 07 f0 04 50 04 40 03 80 00 00 00 00 00 00     .....P.@........
     4f0:	03 e0 04 10 04 18 04 18 03 e8 00 00 00 00 04 10     ................
     500:	07 f0 04 50 04 40 03 a0 00 10 00 00 00 00 00 00     ...P.@..........
     510:	03 30 04 90 04 90 02 90 06 60 00 00 00 00 00 00     .0.......`......
     520:	06 00 04 10 07 f0 04 10 06 00 00 00 00 00 04 00     ................
     530:	07 e0 04 10 00 10 04 10 07 e0 04 00 04 00 07 80     ................
     540:	04 70 00 10 04 e0 07 00 04 00 00 00 04 00 07 e0     .p..............
     550:	04 10 01 e0 04 10 07 e0 04 00 00 00 00 00 04 10     ................
     560:	06 30 01 40 00 80 01 40 06 30 04 10 04 00 06 00     .0.@...@.0......
     570:	05 10 00 f0 05 10 06 00 04 00 00 00 00 00 06 30     ...............0
     580:	04 50 04 90 05 10 06 30 00 00 00 00 00 00 00 00     .P.....0........
     590:	00 00 07 f8 04 08 00 00 00 00 00 00 00 00 00 00     ................
     5a0:	04 00 03 00 00 e0 00 18 00 00 00 00 00 00 00 00     ................
     5b0:	00 00 04 08 07 f8 00 00 00 00 00 00 00 00 00 00     ................
     5c0:	01 00 02 00 04 00 02 00 01 00 00 00 00 00 00 04     ................
     5d0:	00 04 00 04 00 04 00 04 00 04 00 04 00 00 00 00     ................
     5e0:	00 00 03 00 00 80 00 00 00 00 00 00 00 00 00 b0     ................
     5f0:	01 50 01 50 01 50 00 f0 00 10 00 00 00 00 04 10     .P.P.P..........
     600:	07 f0 00 90 01 10 01 10 00 e0 00 00 00 00 00 e0     ................
     610:	01 10 01 10 01 10 01 90 00 00 00 00 00 00 00 e0     ................
     620:	01 10 01 10 04 90 07 f0 00 10 00 00 00 00 00 00     ................
     630:	00 e0 01 50 01 50 01 50 00 d0 00 00 00 00 00 00     ...P.P.P........
     640:	01 10 03 f0 05 10 05 10 00 00 00 00 00 00 00 e0     ................
     650:	01 14 01 14 00 94 01 f8 01 00 00 00 00 00 04 10     ................
     660:	07 f0 00 90 01 00 01 10 00 f0 00 10 00 00 01 10     ................
     670:	01 10 05 f0 00 10 00 10 00 00 00 00 00 00 01 04     ................
     680:	01 04 05 04 01 f8 00 00 00 00 00 00 00 00 04 10     ................
     690:	07 f0 00 40 01 50 01 b0 01 10 00 00 00 00 00 00     ...@.P..........
     6a0:	00 10 04 10 07 f0 00 10 00 10 00 00 01 10 01 f0     ................
     6b0:	01 10 00 f0 01 10 00 f0 00 10 00 00 00 00 01 10     ................
     6c0:	01 f0 00 90 01 00 01 10 00 f0 00 10 00 00 00 00     ................
     6d0:	00 e0 01 10 01 10 01 10 00 e0 00 00 00 00 00 00     ................
     6e0:	01 04 01 fc 00 94 01 10 01 10 00 e0 00 00 00 e0     ................
     6f0:	01 10 01 10 00 94 01 fc 01 04 00 00 00 00 00 00     ................
     700:	01 10 01 f0 00 90 01 10 01 00 00 00 00 00 00 90     ................
     710:	01 50 01 50 01 50 01 20 00 00 00 00 00 00 01 00     .P.P.P. ........
     720:	03 e0 01 10 01 10 01 10 00 20 00 00 00 00 01 00     ......... ......
     730:	01 e0 00 10 00 10 01 20 01 f0 00 10 00 00 01 00     ....... ........
     740:	01 c0 01 30 00 10 01 60 01 80 01 00 00 00 01 00     ...0...`........
     750:	01 e0 01 10 00 60 01 10 01 e0 01 00 00 00 00 00     .....`..........
     760:	01 10 01 b0 00 40 01 b0 01 10 00 00 00 00 01 00     .....@..........
     770:	01 84 01 64 00 1c 01 60 01 80 01 00 00 00 00 00     ...d...`........
     780:	01 90 01 30 01 50 01 90 01 30 00 00 00 00 00 00     ...0.P...0......
     790:	00 80 07 f0 08 08 00 00 00 00 00 00 00 00 00 00     ................
     7a0:	00 00 07 f8 00 00 00 00 00 00 00 00 00 00 00 00     ................
     7b0:	00 00 08 08 07 f0 00 80 00 00 00 00 00 00 00 40     ...............@
     7c0:	00 80 00 c0 00 40 00 80 00 00 00 00 00 00 00 00     .....@..........
	...
     7dc:	00 00 00 e0 01 10 01 10 01 10 00 e0 00 00 00 00     ................
     7ec:	00 00 00 e0 01 10 01 70 01 10 00 e0 00 00 00 00     .......p........
     7fc:	07 f0 00 10 01 d0 01 10 00 d0 01 10 01 e0 00 00     ................
     80c:	00 e0 01 10 01 30 01 00 00 f0 01 00 00 f0 00 00     .....0..........
     81c:	00 60 00 90 00 90 01 10 01 70 01 50 06 10 00 00     .`.......p.P....
     82c:	00 e0 00 90 07 10 06 10 02 d0 02 e0 04 10 00 00     ................
     83c:	00 00 00 00 04 00 03 60 01 70 01 10 00 e0 00 00     .......`.p......
     84c:	00 e0 01 10 01 30 00 80 01 10 05 f0 02 30 01 c0     .....0.......0..
     85c:	00 e0 01 10 01 20 01 20 00 90 00 b0 00 b0 07 00     ..... . ........
     86c:	00 60 03 90 02 90 02 b0 02 b0 06 00 00 00 00 00     .`..............
     87c:	00 00 03 00 05 f0 05 00 04 00 03 f0 00 00 00 00     ................
     88c:	00 00 03 80 05 80 04 00 07 f0 00 10 07 f0 00 00     ................
     89c:	00 00 03 80 04 f0 05 80 02 00 04 00 03 f0 00 00     ................
     8ac:	00 00 03 80 04 70 04 c0 04 00 03 f0 00 00 00 00     .....p..........
     8bc:	00 00 03 80 04 f0 05 80 02 00 04 00 03 f0 00 00     ................
     8cc:	03 80 02 80 05 b0 03 f0 00 20 00 20 03 f0 00 00     ......... . ....
     8dc:	00 00 00 00 00 c0 00 60 06 30 07 f0 00 00 00 00     .......`.0......
     8ec:	00 00 00 00 04 c0 04 f0 04 10 03 f0 00 00 00 00     ................
     8fc:	00 00 01 80 05 f0 04 20 04 20 03 f0 00 30 00 00     ....... . ...0..
     90c:	00 00 07 00 05 00 07 f0 02 10 03 e0 04 00 00 00     ................
     91c:	00 00 03 80 05 80 02 00 07 f0 02 10 05 f0 00 00     ................
     92c:	03 30 05 f0 05 00 04 30 03 f0 00 20 07 f0 00 00     .0.....0... ....
     93c:	03 00 05 f0 05 30 04 00 03 e6 00 16 00 12 07 e6     .....0..........
     94c:	00 00 00 00 03 30 05 f6 05 0e 04 0c 03 fe 00 00     .....0..........
     95c:	00 00 00 00 03 30 05 f6 05 0e 04 0a 03 fe 00 00     .....0..........
     96c:	00 00 00 00 00 02 06 63 06 75 06 17 05 f7 00 00     .......c.u......
     97c:	07 80 03 80 04 00 07 f0 03 00 04 00 03 f0 00 00     ................
     98c:	03 c0 06 30 06 c0 03 00 04 30 03 f0 00 20 07 f0     ...0.....0... ..
     99c:	03 00 05 f0 05 30 04 00 03 f0 00 20 07 f0 00 30     .....0..... ...0
     9ac:	00 00 03 80 06 70 05 40 05 80 04 00 03 f0 00 00     .....p.@........
     9bc:	00 00 03 80 04 70 06 20 03 c0 04 00 03 f0 00 00     .....p. ........
     9cc:	00 00 00 00 03 00 05 f0 05 30 04 00 03 f0 00 00     .........0......
     9dc:	00 00 06 00 07 f0 01 80 06 00 04 00 07 f0 00 00     ................
     9ec:	00 00 00 00 00 00 07 10 05 f0 02 90 06 f0 00 00     ................
     9fc:	00 00 00 00 06 00 07 f0 00 20 00 70 07 f0 00 00     ......... .p....
     a0c:	00 00 00 00 06 10 07 f0 00 10 00 10 07 f0 00 00     ................
     a1c:	00 00 00 00 06 00 07 f0 00 10 00 10 7f f0 00 00     ................
     a2c:	00 00 00 00 07 f0 06 40 00 80 00 40 07 f0 00 00     .......@...@....
     a3c:	00 00 00 00 07 f0 06 40 00 80 00 40 3f f0 00 00     .......@...@?...
     a4c:	00 00 06 00 07 f0 01 c0 07 00 00 c0 07 f0 00 00     ................
     a5c:	00 00 06 00 07 f0 01 c0 07 00 00 c0 3f f0 00 00     ............?...
     a6c:	00 00 00 00 03 30 05 f0 05 00 04 00 03 f0 00 00     .....0..........
     a7c:	00 00 00 00 06 30 07 f0 00 20 00 10 07 f0 00 00     .....0... ......
     a8c:	00 00 00 00 07 f0 06 90 00 10 00 10 07 f0 00 00     ................
     a9c:	00 00 00 00 00 00 02 00 05 00 05 30 05 f0 00 00     ...........0....
     aac:	00 00 00 00 04 00 05 f0 05 30 05 00 03 f0 00 00     .........0......
     abc:	00 00 00 00 02 00 04 00 04 00 04 30 03 f0 00 00     ...........0....
     acc:	00 00 00 00 03 00 05 f0 05 80 05 00 07 f0 00 00     ................
     adc:	00 00 00 00 06 10 07 f0 00 d0 00 50 07 f0 00 00     ...........P....
     aec:	00 00 04 00 05 f0 05 30 05 00 03 f0 06 00 00 00     .......0........
     afc:	00 00 00 00 06 00 07 f0 00 80 07 00 07 f0 00 00     ................
     b0c:	00 00 06 00 03 f0 00 60 03 80 04 e0 07 f0 04 00     .......`........
     b1c:	00 00 00 00 04 f0 04 d0 04 10 03 e0 00 00 00 00     ................
     b2c:	00 00 00 00 05 e0 05 90 04 10 07 e0 00 00 00 00     ................
     b3c:	00 00 03 30 03 30 01 10 01 10 02 20 00 00 00 00     ...0.0..... ....
     b4c:	00 00 00 00 04 00 04 00 04 00 03 f0 00 00 00 00     ................
     b5c:	00 00 30 00 50 00 50 00 50 00 30 00 00 00 00 00     ..0.P.P.P.0.....
     b6c:	00 00 00 00 30 00 50 00 50 00 50 00 f0 00 00 00     ....0.P.P.P.....
	...
     b84:	00 00 00 06 00 07 00 00 00 00 00 00 00 00 00 06     ................
     b94:	00 07 00 01 00 07 00 00 00 00 20 00 50 00 2f f0     .......... .P./.
     ba4:	60 30 00 00 00 00 00 00 00 00 00 00 00 00 07 f0     `0..............
     bb4:	00 30 00 00 00 00 00 00 00 00 00 00 07 f0 00 30     .0.............0
     bc4:	00 00 07 f0 00 30 00 00 00 00 00 00 00 00 00 00     .....0..........
     bd4:	00 00 30 00 30 00 00 00 00 00 00 00 00 00 03 f0     ..0.0...........
     be4:	05 30 04 00 03 fe 00 00 00 00 00 00 03 80 00 80     .0..............
     bf4:	03 80 04 00 07 f0 00 00 00 00 00 00 00 00 00 00     ................
     c04:	00 00 00 00 03 80 00 00 00 00 00 00 00 00 00 00     ................
     c14:	06 80 07 80 01 00 06 00 00 00 00 00 00 00 03 80     ................
     c24:	02 00 03 80 00 80 03 00 00 00 00 00 00 00 00 00     ................
     c34:	03 00 02 80 02 80 06 80 00 00 00 00 00 00 01 00     ................
     c44:	03 80 01 00 00 00 00 00 00 00 00 00 00 00 00 00     ................
     c54:	00 c0 03 40 04 00 00 00 00 00 00 00 00 00 00 00     ...@............
	...

00000cdc <__ctors_end>:
     cdc:	11 24       	eor	r1, r1
     cde:	1f be       	out	0x3f, r1	; 63
     ce0:	cf ef       	ldi	r28, 0xFF	; 255
     ce2:	d0 e1       	ldi	r29, 0x10	; 16
     ce4:	de bf       	out	0x3e, r29	; 62
     ce6:	cd bf       	out	0x3d, r28	; 61

00000ce8 <__do_copy_data>:
     ce8:	11 e0       	ldi	r17, 0x01	; 1
     cea:	a0 e0       	ldi	r26, 0x00	; 0
     cec:	b1 e0       	ldi	r27, 0x01	; 1
     cee:	ee ed       	ldi	r30, 0xDE	; 222
     cf0:	fb e2       	ldi	r31, 0x2B	; 43
     cf2:	02 c0       	rjmp	.+4      	; 0xcf8 <__do_copy_data+0x10>
     cf4:	05 90       	lpm	r0, Z+
     cf6:	0d 92       	st	X+, r0
     cf8:	ae 31       	cpi	r26, 0x1E	; 30
     cfa:	b1 07       	cpc	r27, r17
     cfc:	d9 f7       	brne	.-10     	; 0xcf4 <__do_copy_data+0xc>

00000cfe <__do_clear_bss>:
     cfe:	11 e0       	ldi	r17, 0x01	; 1
     d00:	ae e1       	ldi	r26, 0x1E	; 30
     d02:	b1 e0       	ldi	r27, 0x01	; 1
     d04:	01 c0       	rjmp	.+2      	; 0xd08 <.do_clear_bss_start>

00000d06 <.do_clear_bss_loop>:
     d06:	1d 92       	st	X+, r1

00000d08 <.do_clear_bss_start>:
     d08:	a6 33       	cpi	r26, 0x36	; 54
     d0a:	b1 07       	cpc	r27, r17
     d0c:	e1 f7       	brne	.-8      	; 0xd06 <.do_clear_bss_loop>
     d0e:	0e 94 79 14 	call	0x28f2	; 0x28f2 <main>
     d12:	0c 94 ed 15 	jmp	0x2bda	; 0x2bda <_exit>

00000d16 <__bad_interrupt>:
     d16:	0c 94 00 00 	jmp	0	; 0x0 <__vectors>

00000d1a <delay_us>:

#include "delay.h"


void delay_us(unsigned int time)
 {     
     d1a:	df 93       	push	r29
     d1c:	cf 93       	push	r28
     d1e:	00 d0       	rcall	.+0      	; 0xd20 <delay_us+0x6>
     d20:	cd b7       	in	r28, 0x3d	; 61
     d22:	de b7       	in	r29, 0x3e	; 62
     d24:	9a 83       	std	Y+2, r25	; 0x02
     d26:	89 83       	std	Y+1, r24	; 0x01
   while (time--);
     d28:	00 00       	nop
     d2a:	21 e0       	ldi	r18, 0x01	; 1
     d2c:	89 81       	ldd	r24, Y+1	; 0x01
     d2e:	9a 81       	ldd	r25, Y+2	; 0x02
     d30:	00 97       	sbiw	r24, 0x00	; 0
     d32:	09 f4       	brne	.+2      	; 0xd36 <delay_us+0x1c>
     d34:	20 e0       	ldi	r18, 0x00	; 0
     d36:	89 81       	ldd	r24, Y+1	; 0x01
     d38:	9a 81       	ldd	r25, Y+2	; 0x02
     d3a:	01 97       	sbiw	r24, 0x01	; 1
     d3c:	9a 83       	std	Y+2, r25	; 0x02
     d3e:	89 83       	std	Y+1, r24	; 0x01
     d40:	22 23       	and	r18, r18
     d42:	99 f7       	brne	.-26     	; 0xd2a <delay_us+0x10>
 }		  
     d44:	0f 90       	pop	r0
     d46:	0f 90       	pop	r0
     d48:	cf 91       	pop	r28
     d4a:	df 91       	pop	r29
     d4c:	08 95       	ret

00000d4e <delay_ms>:

/*	    ∫¡√Îº∂—” ±∫Ø ˝	*/	 
void delay_ms(unsigned int time)
	 {
     d4e:	df 93       	push	r29
     d50:	cf 93       	push	r28
     d52:	00 d0       	rcall	.+0      	; 0xd54 <delay_ms+0x6>
     d54:	cd b7       	in	r28, 0x3d	; 61
     d56:	de b7       	in	r29, 0x3e	; 62
     d58:	9a 83       	std	Y+2, r25	; 0x02
     d5a:	89 83       	std	Y+1, r24	; 0x01
	  while(time--) delay_us(100);  		 
     d5c:	04 c0       	rjmp	.+8      	; 0xd66 <delay_ms+0x18>
     d5e:	84 e6       	ldi	r24, 0x64	; 100
     d60:	90 e0       	ldi	r25, 0x00	; 0
     d62:	0e 94 8d 06 	call	0xd1a	; 0xd1a <delay_us>
     d66:	21 e0       	ldi	r18, 0x01	; 1
     d68:	89 81       	ldd	r24, Y+1	; 0x01
     d6a:	9a 81       	ldd	r25, Y+2	; 0x02
     d6c:	00 97       	sbiw	r24, 0x00	; 0
     d6e:	09 f4       	brne	.+2      	; 0xd72 <delay_ms+0x24>
     d70:	20 e0       	ldi	r18, 0x00	; 0
     d72:	89 81       	ldd	r24, Y+1	; 0x01
     d74:	9a 81       	ldd	r25, Y+2	; 0x02
     d76:	01 97       	sbiw	r24, 0x01	; 1
     d78:	9a 83       	std	Y+2, r25	; 0x02
     d7a:	89 83       	std	Y+1, r24	; 0x01
     d7c:	22 23       	and	r18, r18
     d7e:	79 f7       	brne	.-34     	; 0xd5e <delay_ms+0x10>
	 }
     d80:	0f 90       	pop	r0
     d82:	0f 90       	pop	r0
     d84:	cf 91       	pop	r28
     d86:	df 91       	pop	r29
     d88:	08 95       	ret

00000d8a <wrOV7670Reg>:


//Write the OV7670 Registers

uchar wrOV7670Reg(uchar regID, uchar regDat)
{
     d8a:	df 93       	push	r29
     d8c:	cf 93       	push	r28
     d8e:	00 d0       	rcall	.+0      	; 0xd90 <wrOV7670Reg+0x6>
     d90:	cd b7       	in	r28, 0x3d	; 61
     d92:	de b7       	in	r29, 0x3e	; 62
     d94:	89 83       	std	Y+1, r24	; 0x01
     d96:	6a 83       	std	Y+2, r22	; 0x02
	startSCCB();
     d98:	0e 94 90 08 	call	0x1120	; 0x1120 <startSCCB>
	if(0==SCCBwriteByte(0x42))
     d9c:	82 e4       	ldi	r24, 0x42	; 66
     d9e:	0e 94 34 09 	call	0x1268	; 0x1268 <SCCBwriteByte>
     da2:	88 23       	and	r24, r24
     da4:	21 f4       	brne	.+8      	; 0xdae <wrOV7670Reg+0x24>
	{
		stopSCCB();
     da6:	0e 94 cb 08 	call	0x1196	; 0x1196 <stopSCCB>
		return(0);
     daa:	80 e0       	ldi	r24, 0x00	; 0
     dac:	1d c0       	rjmp	.+58     	; 0xde8 <wrOV7670Reg+0x5e>
	}
	delay_us(100);
     dae:	84 e6       	ldi	r24, 0x64	; 100
     db0:	90 e0       	ldi	r25, 0x00	; 0
     db2:	0e 94 8d 06 	call	0xd1a	; 0xd1a <delay_us>
  	if(0==SCCBwriteByte(regID))
     db6:	89 81       	ldd	r24, Y+1	; 0x01
     db8:	0e 94 34 09 	call	0x1268	; 0x1268 <SCCBwriteByte>
     dbc:	88 23       	and	r24, r24
     dbe:	21 f4       	brne	.+8      	; 0xdc8 <wrOV7670Reg+0x3e>
	{
		stopSCCB();
     dc0:	0e 94 cb 08 	call	0x1196	; 0x1196 <stopSCCB>
		return(0);
     dc4:	80 e0       	ldi	r24, 0x00	; 0
     dc6:	10 c0       	rjmp	.+32     	; 0xde8 <wrOV7670Reg+0x5e>
	}
	delay_us(100);
     dc8:	84 e6       	ldi	r24, 0x64	; 100
     dca:	90 e0       	ldi	r25, 0x00	; 0
     dcc:	0e 94 8d 06 	call	0xd1a	; 0xd1a <delay_us>
  	if(0==SCCBwriteByte(regDat))
     dd0:	8a 81       	ldd	r24, Y+2	; 0x02
     dd2:	0e 94 34 09 	call	0x1268	; 0x1268 <SCCBwriteByte>
     dd6:	88 23       	and	r24, r24
     dd8:	21 f4       	brne	.+8      	; 0xde2 <wrOV7670Reg+0x58>
	{
		stopSCCB();
     dda:	0e 94 cb 08 	call	0x1196	; 0x1196 <stopSCCB>
		return(0);
     dde:	80 e0       	ldi	r24, 0x00	; 0
     de0:	03 c0       	rjmp	.+6      	; 0xde8 <wrOV7670Reg+0x5e>
	}
  	stopSCCB();
     de2:	0e 94 cb 08 	call	0x1196	; 0x1196 <stopSCCB>
	
  	return(1);
     de6:	81 e0       	ldi	r24, 0x01	; 1
}
     de8:	0f 90       	pop	r0
     dea:	0f 90       	pop	r0
     dec:	cf 91       	pop	r28
     dee:	df 91       	pop	r29
     df0:	08 95       	ret

00000df2 <rdOV7670Reg>:

//Read the OV7670 Registers

uchar rdOV7670Reg(uchar regID, uchar *regDat)
{
     df2:	df 93       	push	r29
     df4:	cf 93       	push	r28
     df6:	00 d0       	rcall	.+0      	; 0xdf8 <rdOV7670Reg+0x6>
     df8:	0f 92       	push	r0
     dfa:	cd b7       	in	r28, 0x3d	; 61
     dfc:	de b7       	in	r29, 0x3e	; 62
     dfe:	89 83       	std	Y+1, r24	; 0x01
     e00:	7b 83       	std	Y+3, r23	; 0x03
     e02:	6a 83       	std	Y+2, r22	; 0x02
	//Using write operate to set the Register Address
	startSCCB();
     e04:	0e 94 90 08 	call	0x1120	; 0x1120 <startSCCB>
	if(0==SCCBwriteByte(0x42))
     e08:	82 e4       	ldi	r24, 0x42	; 66
     e0a:	0e 94 34 09 	call	0x1268	; 0x1268 <SCCBwriteByte>
     e0e:	88 23       	and	r24, r24
     e10:	21 f4       	brne	.+8      	; 0xe1a <rdOV7670Reg+0x28>
	{
		stopSCCB();
     e12:	0e 94 cb 08 	call	0x1196	; 0x1196 <stopSCCB>
		return(0);
     e16:	80 e0       	ldi	r24, 0x00	; 0
     e18:	2e c0       	rjmp	.+92     	; 0xe76 <rdOV7670Reg+0x84>
	}
	delay_us(100);
     e1a:	84 e6       	ldi	r24, 0x64	; 100
     e1c:	90 e0       	ldi	r25, 0x00	; 0
     e1e:	0e 94 8d 06 	call	0xd1a	; 0xd1a <delay_us>
  	if(0==SCCBwriteByte(regID))
     e22:	89 81       	ldd	r24, Y+1	; 0x01
     e24:	0e 94 34 09 	call	0x1268	; 0x1268 <SCCBwriteByte>
     e28:	88 23       	and	r24, r24
     e2a:	21 f4       	brne	.+8      	; 0xe34 <rdOV7670Reg+0x42>
	{
		stopSCCB();
     e2c:	0e 94 cb 08 	call	0x1196	; 0x1196 <stopSCCB>
		return(0);
     e30:	80 e0       	ldi	r24, 0x00	; 0
     e32:	21 c0       	rjmp	.+66     	; 0xe76 <rdOV7670Reg+0x84>
	}
	stopSCCB();
     e34:	0e 94 cb 08 	call	0x1196	; 0x1196 <stopSCCB>
	
	delay_us(100);
     e38:	84 e6       	ldi	r24, 0x64	; 100
     e3a:	90 e0       	ldi	r25, 0x00	; 0
     e3c:	0e 94 8d 06 	call	0xd1a	; 0xd1a <delay_us>
	
	//Begin to read
	startSCCB();
     e40:	0e 94 90 08 	call	0x1120	; 0x1120 <startSCCB>
	if(0==SCCBwriteByte(0x43))
     e44:	83 e4       	ldi	r24, 0x43	; 67
     e46:	0e 94 34 09 	call	0x1268	; 0x1268 <SCCBwriteByte>
     e4a:	88 23       	and	r24, r24
     e4c:	21 f4       	brne	.+8      	; 0xe56 <rdOV7670Reg+0x64>
	{
		stopSCCB();
     e4e:	0e 94 cb 08 	call	0x1196	; 0x1196 <stopSCCB>
		return(0);
     e52:	80 e0       	ldi	r24, 0x00	; 0
     e54:	10 c0       	rjmp	.+32     	; 0xe76 <rdOV7670Reg+0x84>
	}
	delay_us(100);
     e56:	84 e6       	ldi	r24, 0x64	; 100
     e58:	90 e0       	ldi	r25, 0x00	; 0
     e5a:	0e 94 8d 06 	call	0xd1a	; 0xd1a <delay_us>
  	*regDat=SCCBreadByte();
     e5e:	0e 94 ca 09 	call	0x1394	; 0x1394 <SCCBreadByte>
     e62:	28 2f       	mov	r18, r24
     e64:	8a 81       	ldd	r24, Y+2	; 0x02
     e66:	9b 81       	ldd	r25, Y+3	; 0x03
     e68:	fc 01       	movw	r30, r24
     e6a:	20 83       	st	Z, r18
  	noAck();
     e6c:	0e 94 f9 08 	call	0x11f2	; 0x11f2 <noAck>
  	stopSCCB();
     e70:	0e 94 cb 08 	call	0x1196	; 0x1196 <stopSCCB>
  	return(1);
     e74:	81 e0       	ldi	r24, 0x01	; 1
}
     e76:	0f 90       	pop	r0
     e78:	0f 90       	pop	r0
     e7a:	0f 90       	pop	r0
     e7c:	cf 91       	pop	r28
     e7e:	df 91       	pop	r29
     e80:	08 95       	ret

00000e82 <OV7670_init>:



// Initial OV7670
uchar OV7670_init(void)
{
     e82:	1f 93       	push	r17
     e84:	df 93       	push	r29
     e86:	cf 93       	push	r28
     e88:	cd b7       	in	r28, 0x3d	; 61
     e8a:	de b7       	in	r29, 0x3e	; 62
     e8c:	29 97       	sbiw	r28, 0x09	; 9
     e8e:	0f b6       	in	r0, 0x3f	; 63
     e90:	f8 94       	cli
     e92:	de bf       	out	0x3e, r29	; 62
     e94:	0f be       	out	0x3f, r0	; 63
     e96:	cd bf       	out	0x3d, r28	; 61
	uchar temp;
	
	uint i=0;
     e98:	1a 82       	std	Y+2, r1	; 0x02
     e9a:	19 82       	std	Y+1, r1	; 0x01

	
	InitSCCB();
     e9c:	0e 94 77 08 	call	0x10ee	; 0x10ee <InitSCCB>

	temp=0x80;
     ea0:	80 e8       	ldi	r24, 0x80	; 128
     ea2:	8b 83       	std	Y+3, r24	; 0x03
	if(0==wrOV7670Reg(0x12, temp)) //Reset SCCB
     ea4:	82 e1       	ldi	r24, 0x12	; 18
     ea6:	6b 81       	ldd	r22, Y+3	; 0x03
     ea8:	0e 94 c5 06 	call	0xd8a	; 0xd8a <wrOV7670Reg>
     eac:	88 23       	and	r24, r24
     eae:	11 f4       	brne	.+4      	; 0xeb4 <OV7670_init+0x32>
	{
		return 0 ;
     eb0:	80 e0       	ldi	r24, 0x00	; 0
     eb2:	3b c0       	rjmp	.+118    	; 0xf2a <OV7670_init+0xa8>
	}
	delay_ms(10);
     eb4:	8a e0       	ldi	r24, 0x0A	; 10
     eb6:	90 e0       	ldi	r25, 0x00	; 0
     eb8:	0e 94 a7 06 	call	0xd4e	; 0xd4e <delay_ms>

	for(i=0;i<CHANGE_REG_NUM;i++)
     ebc:	1a 82       	std	Y+2, r1	; 0x02
     ebe:	19 82       	std	Y+1, r1	; 0x01
     ec0:	2e c0       	rjmp	.+92     	; 0xf1e <OV7670_init+0x9c>
	{
		if( 0==wrOV7670Reg(pgm_read_byte( &change_reg[i][0]),pgm_read_byte( &change_reg[i][1]) ))
     ec2:	2c e7       	ldi	r18, 0x7C	; 124
     ec4:	30 e0       	ldi	r19, 0x00	; 0
     ec6:	89 81       	ldd	r24, Y+1	; 0x01
     ec8:	9a 81       	ldd	r25, Y+2	; 0x02
     eca:	88 0f       	add	r24, r24
     ecc:	99 1f       	adc	r25, r25
     ece:	82 0f       	add	r24, r18
     ed0:	93 1f       	adc	r25, r19
     ed2:	9d 83       	std	Y+5, r25	; 0x05
     ed4:	8c 83       	std	Y+4, r24	; 0x04
     ed6:	8c 81       	ldd	r24, Y+4	; 0x04
     ed8:	9d 81       	ldd	r25, Y+5	; 0x05
     eda:	fc 01       	movw	r30, r24
     edc:	14 91       	lpm	r17, Z+
     ede:	1e 83       	std	Y+6, r17	; 0x06
     ee0:	4e 81       	ldd	r20, Y+6	; 0x06
     ee2:	2c e7       	ldi	r18, 0x7C	; 124
     ee4:	30 e0       	ldi	r19, 0x00	; 0
     ee6:	89 81       	ldd	r24, Y+1	; 0x01
     ee8:	9a 81       	ldd	r25, Y+2	; 0x02
     eea:	88 0f       	add	r24, r24
     eec:	99 1f       	adc	r25, r25
     eee:	01 96       	adiw	r24, 0x01	; 1
     ef0:	82 0f       	add	r24, r18
     ef2:	93 1f       	adc	r25, r19
     ef4:	98 87       	std	Y+8, r25	; 0x08
     ef6:	8f 83       	std	Y+7, r24	; 0x07
     ef8:	8f 81       	ldd	r24, Y+7	; 0x07
     efa:	98 85       	ldd	r25, Y+8	; 0x08
     efc:	fc 01       	movw	r30, r24
     efe:	14 91       	lpm	r17, Z+
     f00:	19 87       	std	Y+9, r17	; 0x09
     f02:	99 85       	ldd	r25, Y+9	; 0x09
     f04:	84 2f       	mov	r24, r20
     f06:	69 2f       	mov	r22, r25
     f08:	0e 94 c5 06 	call	0xd8a	; 0xd8a <wrOV7670Reg>
     f0c:	88 23       	and	r24, r24
     f0e:	11 f4       	brne	.+4      	; 0xf14 <OV7670_init+0x92>
		{ 
			return 0;
     f10:	80 e0       	ldi	r24, 0x00	; 0
     f12:	0b c0       	rjmp	.+22     	; 0xf2a <OV7670_init+0xa8>
	{
		return 0 ;
	}
	delay_ms(10);

	for(i=0;i<CHANGE_REG_NUM;i++)
     f14:	89 81       	ldd	r24, Y+1	; 0x01
     f16:	9a 81       	ldd	r25, Y+2	; 0x02
     f18:	01 96       	adiw	r24, 0x01	; 1
     f1a:	9a 83       	std	Y+2, r25	; 0x02
     f1c:	89 83       	std	Y+1, r24	; 0x01
     f1e:	89 81       	ldd	r24, Y+1	; 0x01
     f20:	9a 81       	ldd	r25, Y+2	; 0x02
     f22:	80 3b       	cpi	r24, 0xB0	; 176
     f24:	91 05       	cpc	r25, r1
     f26:	68 f2       	brcs	.-102    	; 0xec2 <OV7670_init+0x40>
		{ 
			return 0;
		}
	}

	return 0x01; //ok
     f28:	81 e0       	ldi	r24, 0x01	; 1

	
} 
     f2a:	29 96       	adiw	r28, 0x09	; 9
     f2c:	0f b6       	in	r0, 0x3f	; 63
     f2e:	f8 94       	cli
     f30:	de bf       	out	0x3e, r29	; 62
     f32:	0f be       	out	0x3f, r0	; 63
     f34:	cd bf       	out	0x3d, r28	; 61
     f36:	cf 91       	pop	r28
     f38:	df 91       	pop	r29
     f3a:	1f 91       	pop	r17
     f3c:	08 95       	ret

00000f3e <FIFO_init>:
#define FIFO_nOE_CLR		{PORTC&=~(1<<FIFO_nOE);}


//Initial FIFO
uchar FIFO_init(void)
{
     f3e:	df 93       	push	r29
     f40:	cf 93       	push	r28
     f42:	cd b7       	in	r28, 0x3d	; 61
     f44:	de b7       	in	r29, 0x3e	; 62
	DDRD |=(1<<FIFO_WEN)|(1<<FIFO_nRRST)|(1<<FIFO_RCLK);
     f46:	8a e2       	ldi	r24, 0x2A	; 42
     f48:	90 e0       	ldi	r25, 0x00	; 0
     f4a:	2a e2       	ldi	r18, 0x2A	; 42
     f4c:	30 e0       	ldi	r19, 0x00	; 0
     f4e:	f9 01       	movw	r30, r18
     f50:	20 81       	ld	r18, Z
     f52:	20 6d       	ori	r18, 0xD0	; 208
     f54:	fc 01       	movw	r30, r24
     f56:	20 83       	st	Z, r18
	DDRC |=(1<<FIFO_nOE);
     f58:	87 e2       	ldi	r24, 0x27	; 39
     f5a:	90 e0       	ldi	r25, 0x00	; 0
     f5c:	27 e2       	ldi	r18, 0x27	; 39
     f5e:	30 e0       	ldi	r19, 0x00	; 0
     f60:	f9 01       	movw	r30, r18
     f62:	20 81       	ld	r18, Z
     f64:	20 62       	ori	r18, 0x20	; 32
     f66:	fc 01       	movw	r30, r24
     f68:	20 83       	st	Z, r18
	
	FIFO_RCLK_CLR;
     f6a:	8b e2       	ldi	r24, 0x2B	; 43
     f6c:	90 e0       	ldi	r25, 0x00	; 0
     f6e:	2b e2       	ldi	r18, 0x2B	; 43
     f70:	30 e0       	ldi	r19, 0x00	; 0
     f72:	f9 01       	movw	r30, r18
     f74:	20 81       	ld	r18, Z
     f76:	2f 7e       	andi	r18, 0xEF	; 239
     f78:	fc 01       	movw	r30, r24
     f7a:	20 83       	st	Z, r18
	FIFO_nOE_CLR;
     f7c:	88 e2       	ldi	r24, 0x28	; 40
     f7e:	90 e0       	ldi	r25, 0x00	; 0
     f80:	28 e2       	ldi	r18, 0x28	; 40
     f82:	30 e0       	ldi	r19, 0x00	; 0
     f84:	f9 01       	movw	r30, r18
     f86:	20 81       	ld	r18, Z
     f88:	2f 7d       	andi	r18, 0xDF	; 223
     f8a:	fc 01       	movw	r30, r24
     f8c:	20 83       	st	Z, r18
	FIFO_nRRST_SET;
     f8e:	8b e2       	ldi	r24, 0x2B	; 43
     f90:	90 e0       	ldi	r25, 0x00	; 0
     f92:	2b e2       	ldi	r18, 0x2B	; 43
     f94:	30 e0       	ldi	r19, 0x00	; 0
     f96:	f9 01       	movw	r30, r18
     f98:	20 81       	ld	r18, Z
     f9a:	20 68       	ori	r18, 0x80	; 128
     f9c:	fc 01       	movw	r30, r24
     f9e:	20 83       	st	Z, r18
	FIFO_WEN_CLR;
     fa0:	8b e2       	ldi	r24, 0x2B	; 43
     fa2:	90 e0       	ldi	r25, 0x00	; 0
     fa4:	2b e2       	ldi	r18, 0x2B	; 43
     fa6:	30 e0       	ldi	r19, 0x00	; 0
     fa8:	f9 01       	movw	r30, r18
     faa:	20 81       	ld	r18, Z
     fac:	2f 7b       	andi	r18, 0xBF	; 191
     fae:	fc 01       	movw	r30, r24
     fb0:	20 83       	st	Z, r18
	delay_us(10);
     fb2:	8a e0       	ldi	r24, 0x0A	; 10
     fb4:	90 e0       	ldi	r25, 0x00	; 0
     fb6:	0e 94 8d 06 	call	0xd1a	; 0xd1a <delay_us>
	FIFO_RCLK_SET;
     fba:	8b e2       	ldi	r24, 0x2B	; 43
     fbc:	90 e0       	ldi	r25, 0x00	; 0
     fbe:	2b e2       	ldi	r18, 0x2B	; 43
     fc0:	30 e0       	ldi	r19, 0x00	; 0
     fc2:	f9 01       	movw	r30, r18
     fc4:	20 81       	ld	r18, Z
     fc6:	20 61       	ori	r18, 0x10	; 16
     fc8:	fc 01       	movw	r30, r24
     fca:	20 83       	st	Z, r18
	delay_us(10);
     fcc:	8a e0       	ldi	r24, 0x0A	; 10
     fce:	90 e0       	ldi	r25, 0x00	; 0
     fd0:	0e 94 8d 06 	call	0xd1a	; 0xd1a <delay_us>
	FIFO_RCLK_CLR;
     fd4:	8b e2       	ldi	r24, 0x2B	; 43
     fd6:	90 e0       	ldi	r25, 0x00	; 0
     fd8:	2b e2       	ldi	r18, 0x2B	; 43
     fda:	30 e0       	ldi	r19, 0x00	; 0
     fdc:	f9 01       	movw	r30, r18
     fde:	20 81       	ld	r18, Z
     fe0:	2f 7e       	andi	r18, 0xEF	; 239
     fe2:	fc 01       	movw	r30, r24
     fe4:	20 83       	st	Z, r18
	FIFO_nRRST_CLR;
     fe6:	8b e2       	ldi	r24, 0x2B	; 43
     fe8:	90 e0       	ldi	r25, 0x00	; 0
     fea:	2b e2       	ldi	r18, 0x2B	; 43
     fec:	30 e0       	ldi	r19, 0x00	; 0
     fee:	f9 01       	movw	r30, r18
     ff0:	20 81       	ld	r18, Z
     ff2:	2f 77       	andi	r18, 0x7F	; 127
     ff4:	fc 01       	movw	r30, r24
     ff6:	20 83       	st	Z, r18
	delay_us(10);
     ff8:	8a e0       	ldi	r24, 0x0A	; 10
     ffa:	90 e0       	ldi	r25, 0x00	; 0
     ffc:	0e 94 8d 06 	call	0xd1a	; 0xd1a <delay_us>
	FIFO_RCLK_SET;
    1000:	8b e2       	ldi	r24, 0x2B	; 43
    1002:	90 e0       	ldi	r25, 0x00	; 0
    1004:	2b e2       	ldi	r18, 0x2B	; 43
    1006:	30 e0       	ldi	r19, 0x00	; 0
    1008:	f9 01       	movw	r30, r18
    100a:	20 81       	ld	r18, Z
    100c:	20 61       	ori	r18, 0x10	; 16
    100e:	fc 01       	movw	r30, r24
    1010:	20 83       	st	Z, r18
	delay_us(1);
    1012:	81 e0       	ldi	r24, 0x01	; 1
    1014:	90 e0       	ldi	r25, 0x00	; 0
    1016:	0e 94 8d 06 	call	0xd1a	; 0xd1a <delay_us>
	FIFO_RCLK_CLR;
    101a:	8b e2       	ldi	r24, 0x2B	; 43
    101c:	90 e0       	ldi	r25, 0x00	; 0
    101e:	2b e2       	ldi	r18, 0x2B	; 43
    1020:	30 e0       	ldi	r19, 0x00	; 0
    1022:	f9 01       	movw	r30, r18
    1024:	20 81       	ld	r18, Z
    1026:	2f 7e       	andi	r18, 0xEF	; 239
    1028:	fc 01       	movw	r30, r24
    102a:	20 83       	st	Z, r18
	FIFO_nRRST_SET;
    102c:	8b e2       	ldi	r24, 0x2B	; 43
    102e:	90 e0       	ldi	r25, 0x00	; 0
    1030:	2b e2       	ldi	r18, 0x2B	; 43
    1032:	30 e0       	ldi	r19, 0x00	; 0
    1034:	f9 01       	movw	r30, r18
    1036:	20 81       	ld	r18, Z
    1038:	20 68       	ori	r18, 0x80	; 128
    103a:	fc 01       	movw	r30, r24
    103c:	20 83       	st	Z, r18
	delay_us(10);
    103e:	8a e0       	ldi	r24, 0x0A	; 10
    1040:	90 e0       	ldi	r25, 0x00	; 0
    1042:	0e 94 8d 06 	call	0xd1a	; 0xd1a <delay_us>

	return 0x01; //ok
    1046:	81 e0       	ldi	r24, 0x01	; 1
}	
    1048:	cf 91       	pop	r28
    104a:	df 91       	pop	r29
    104c:	08 95       	ret

0000104e <FIFO_TO_AVR>:

//Write one pixel in AVR
unsigned short FIFO_TO_AVR(void)
{
    104e:	df 93       	push	r29
    1050:	cf 93       	push	r28
    1052:	00 d0       	rcall	.+0      	; 0x1054 <FIFO_TO_AVR+0x6>
    1054:	cd b7       	in	r28, 0x3d	; 61
    1056:	de b7       	in	r29, 0x3e	; 62
	unsigned short data = 0;
    1058:	1a 82       	std	Y+2, r1	; 0x02
    105a:	19 82       	std	Y+1, r1	; 0x01
	
	FIFO_AVR_DPRT=0;
    105c:	81 e2       	ldi	r24, 0x21	; 33
    105e:	90 e0       	ldi	r25, 0x00	; 0
    1060:	fc 01       	movw	r30, r24
    1062:	10 82       	st	Z, r1
	
	FIFO_RCLK_SET;
    1064:	8b e2       	ldi	r24, 0x2B	; 43
    1066:	90 e0       	ldi	r25, 0x00	; 0
    1068:	2b e2       	ldi	r18, 0x2B	; 43
    106a:	30 e0       	ldi	r19, 0x00	; 0
    106c:	f9 01       	movw	r30, r18
    106e:	20 81       	ld	r18, Z
    1070:	20 61       	ori	r18, 0x10	; 16
    1072:	fc 01       	movw	r30, r24
    1074:	20 83       	st	Z, r18
	data = FIFO_AVR_PINP;
    1076:	80 e2       	ldi	r24, 0x20	; 32
    1078:	90 e0       	ldi	r25, 0x00	; 0
    107a:	fc 01       	movw	r30, r24
    107c:	80 81       	ld	r24, Z
    107e:	88 2f       	mov	r24, r24
    1080:	90 e0       	ldi	r25, 0x00	; 0
    1082:	9a 83       	std	Y+2, r25	; 0x02
    1084:	89 83       	std	Y+1, r24	; 0x01
	FIFO_RCLK_CLR;
    1086:	8b e2       	ldi	r24, 0x2B	; 43
    1088:	90 e0       	ldi	r25, 0x00	; 0
    108a:	2b e2       	ldi	r18, 0x2B	; 43
    108c:	30 e0       	ldi	r19, 0x00	; 0
    108e:	f9 01       	movw	r30, r18
    1090:	20 81       	ld	r18, Z
    1092:	2f 7e       	andi	r18, 0xEF	; 239
    1094:	fc 01       	movw	r30, r24
    1096:	20 83       	st	Z, r18

	data <<= 8;
    1098:	89 81       	ldd	r24, Y+1	; 0x01
    109a:	9a 81       	ldd	r25, Y+2	; 0x02
    109c:	98 2f       	mov	r25, r24
    109e:	88 27       	eor	r24, r24
    10a0:	9a 83       	std	Y+2, r25	; 0x02
    10a2:	89 83       	std	Y+1, r24	; 0x01
	
	FIFO_RCLK_SET;
    10a4:	8b e2       	ldi	r24, 0x2B	; 43
    10a6:	90 e0       	ldi	r25, 0x00	; 0
    10a8:	2b e2       	ldi	r18, 0x2B	; 43
    10aa:	30 e0       	ldi	r19, 0x00	; 0
    10ac:	f9 01       	movw	r30, r18
    10ae:	20 81       	ld	r18, Z
    10b0:	20 61       	ori	r18, 0x10	; 16
    10b2:	fc 01       	movw	r30, r24
    10b4:	20 83       	st	Z, r18
	data |= FIFO_AVR_PINP;
    10b6:	80 e2       	ldi	r24, 0x20	; 32
    10b8:	90 e0       	ldi	r25, 0x00	; 0
    10ba:	fc 01       	movw	r30, r24
    10bc:	80 81       	ld	r24, Z
    10be:	88 2f       	mov	r24, r24
    10c0:	90 e0       	ldi	r25, 0x00	; 0
    10c2:	29 81       	ldd	r18, Y+1	; 0x01
    10c4:	3a 81       	ldd	r19, Y+2	; 0x02
    10c6:	82 2b       	or	r24, r18
    10c8:	93 2b       	or	r25, r19
    10ca:	9a 83       	std	Y+2, r25	; 0x02
    10cc:	89 83       	std	Y+1, r24	; 0x01
	FIFO_RCLK_CLR;
    10ce:	8b e2       	ldi	r24, 0x2B	; 43
    10d0:	90 e0       	ldi	r25, 0x00	; 0
    10d2:	2b e2       	ldi	r18, 0x2B	; 43
    10d4:	30 e0       	ldi	r19, 0x00	; 0
    10d6:	f9 01       	movw	r30, r18
    10d8:	20 81       	ld	r18, Z
    10da:	2f 7e       	andi	r18, 0xEF	; 239
    10dc:	fc 01       	movw	r30, r24
    10de:	20 83       	st	Z, r18
//	FIFO_RCLK_SET;
//	FIFO_RCLK_CLR;
//	FIFO_RCLK_SET;
//	FIFO_RCLK_CLR;
	
	return(data);
    10e0:	89 81       	ldd	r24, Y+1	; 0x01
    10e2:	9a 81       	ldd	r25, Y+2	; 0x02
}	
    10e4:	0f 90       	pop	r0
    10e6:	0f 90       	pop	r0
    10e8:	cf 91       	pop	r28
    10ea:	df 91       	pop	r29
    10ec:	08 95       	ret

000010ee <InitSCCB>:
-----------------------------------------------
Function: Initial the SCCB port in AVR
-----------------------------------------------
*/
void InitSCCB(void)
{
    10ee:	df 93       	push	r29
    10f0:	cf 93       	push	r28
    10f2:	cd b7       	in	r28, 0x3d	; 61
    10f4:	de b7       	in	r29, 0x3e	; 62
	SCCB_DDR|=(1<<SCCB_SIO_C)|(1<<SCCB_SIO_D);  //|(1<<FIFO_WEN)|(1<<FIFO_nRRST)|(1<<FIFO_RCLK);
    10f6:	87 e2       	ldi	r24, 0x27	; 39
    10f8:	90 e0       	ldi	r25, 0x00	; 0
    10fa:	27 e2       	ldi	r18, 0x27	; 39
    10fc:	30 e0       	ldi	r19, 0x00	; 0
    10fe:	f9 01       	movw	r30, r18
    1100:	20 81       	ld	r18, Z
    1102:	20 6c       	ori	r18, 0xC0	; 192
    1104:	fc 01       	movw	r30, r24
    1106:	20 83       	st	Z, r18
	SCCB_PORT|=(1<<SCCB_SIO_C)|(1<<SCCB_SIO_D);
    1108:	88 e2       	ldi	r24, 0x28	; 40
    110a:	90 e0       	ldi	r25, 0x00	; 0
    110c:	28 e2       	ldi	r18, 0x28	; 40
    110e:	30 e0       	ldi	r19, 0x00	; 0
    1110:	f9 01       	movw	r30, r18
    1112:	20 81       	ld	r18, Z
    1114:	20 6c       	ori	r18, 0xC0	; 192
    1116:	fc 01       	movw	r30, r24
    1118:	20 83       	st	Z, r18
}
    111a:	cf 91       	pop	r28
    111c:	df 91       	pop	r29
    111e:	08 95       	ret

00001120 <startSCCB>:
-----------------------------------------------
Function: Generate the start phase for SCCB following the datasheet
-----------------------------------------------
*/
void startSCCB(void)
{
    1120:	df 93       	push	r29
    1122:	cf 93       	push	r28
    1124:	cd b7       	in	r28, 0x3d	; 61
    1126:	de b7       	in	r29, 0x3e	; 62
	SIO_D_SET;     
    1128:	88 e2       	ldi	r24, 0x28	; 40
    112a:	90 e0       	ldi	r25, 0x00	; 0
    112c:	28 e2       	ldi	r18, 0x28	; 40
    112e:	30 e0       	ldi	r19, 0x00	; 0
    1130:	f9 01       	movw	r30, r18
    1132:	20 81       	ld	r18, Z
    1134:	20 68       	ori	r18, 0x80	; 128
    1136:	fc 01       	movw	r30, r24
    1138:	20 83       	st	Z, r18
    delay_us(100);
    113a:	84 e6       	ldi	r24, 0x64	; 100
    113c:	90 e0       	ldi	r25, 0x00	; 0
    113e:	0e 94 8d 06 	call	0xd1a	; 0xd1a <delay_us>

    SIO_C_SET;
    1142:	88 e2       	ldi	r24, 0x28	; 40
    1144:	90 e0       	ldi	r25, 0x00	; 0
    1146:	28 e2       	ldi	r18, 0x28	; 40
    1148:	30 e0       	ldi	r19, 0x00	; 0
    114a:	f9 01       	movw	r30, r18
    114c:	20 81       	ld	r18, Z
    114e:	20 64       	ori	r18, 0x40	; 64
    1150:	fc 01       	movw	r30, r24
    1152:	20 83       	st	Z, r18
    delay_us(100);
    1154:	84 e6       	ldi	r24, 0x64	; 100
    1156:	90 e0       	ldi	r25, 0x00	; 0
    1158:	0e 94 8d 06 	call	0xd1a	; 0xd1a <delay_us>
 
    SIO_D_CLR;
    115c:	88 e2       	ldi	r24, 0x28	; 40
    115e:	90 e0       	ldi	r25, 0x00	; 0
    1160:	28 e2       	ldi	r18, 0x28	; 40
    1162:	30 e0       	ldi	r19, 0x00	; 0
    1164:	f9 01       	movw	r30, r18
    1166:	20 81       	ld	r18, Z
    1168:	2f 77       	andi	r18, 0x7F	; 127
    116a:	fc 01       	movw	r30, r24
    116c:	20 83       	st	Z, r18
    delay_us(100);
    116e:	84 e6       	ldi	r24, 0x64	; 100
    1170:	90 e0       	ldi	r25, 0x00	; 0
    1172:	0e 94 8d 06 	call	0xd1a	; 0xd1a <delay_us>

    SIO_C_CLR;
    1176:	88 e2       	ldi	r24, 0x28	; 40
    1178:	90 e0       	ldi	r25, 0x00	; 0
    117a:	28 e2       	ldi	r18, 0x28	; 40
    117c:	30 e0       	ldi	r19, 0x00	; 0
    117e:	f9 01       	movw	r30, r18
    1180:	20 81       	ld	r18, Z
    1182:	2f 7b       	andi	r18, 0xBF	; 191
    1184:	fc 01       	movw	r30, r24
    1186:	20 83       	st	Z, r18
    delay_us(100);
    1188:	84 e6       	ldi	r24, 0x64	; 100
    118a:	90 e0       	ldi	r25, 0x00	; 0
    118c:	0e 94 8d 06 	call	0xd1a	; 0xd1a <delay_us>


}
    1190:	cf 91       	pop	r28
    1192:	df 91       	pop	r29
    1194:	08 95       	ret

00001196 <stopSCCB>:
-----------------------------------------------
Function: Generate the stop phase of SCCB following the datasheet
-----------------------------------------------
*/
void stopSCCB(void)
{
    1196:	df 93       	push	r29
    1198:	cf 93       	push	r28
    119a:	cd b7       	in	r28, 0x3d	; 61
    119c:	de b7       	in	r29, 0x3e	; 62
	SIO_D_CLR;
    119e:	88 e2       	ldi	r24, 0x28	; 40
    11a0:	90 e0       	ldi	r25, 0x00	; 0
    11a2:	28 e2       	ldi	r18, 0x28	; 40
    11a4:	30 e0       	ldi	r19, 0x00	; 0
    11a6:	f9 01       	movw	r30, r18
    11a8:	20 81       	ld	r18, Z
    11aa:	2f 77       	andi	r18, 0x7F	; 127
    11ac:	fc 01       	movw	r30, r24
    11ae:	20 83       	st	Z, r18
    delay_us(100);
    11b0:	84 e6       	ldi	r24, 0x64	; 100
    11b2:	90 e0       	ldi	r25, 0x00	; 0
    11b4:	0e 94 8d 06 	call	0xd1a	; 0xd1a <delay_us>
 
    SIO_C_SET;
    11b8:	88 e2       	ldi	r24, 0x28	; 40
    11ba:	90 e0       	ldi	r25, 0x00	; 0
    11bc:	28 e2       	ldi	r18, 0x28	; 40
    11be:	30 e0       	ldi	r19, 0x00	; 0
    11c0:	f9 01       	movw	r30, r18
    11c2:	20 81       	ld	r18, Z
    11c4:	20 64       	ori	r18, 0x40	; 64
    11c6:	fc 01       	movw	r30, r24
    11c8:	20 83       	st	Z, r18
    delay_us(100);
    11ca:	84 e6       	ldi	r24, 0x64	; 100
    11cc:	90 e0       	ldi	r25, 0x00	; 0
    11ce:	0e 94 8d 06 	call	0xd1a	; 0xd1a <delay_us>
  

    SIO_D_SET;
    11d2:	88 e2       	ldi	r24, 0x28	; 40
    11d4:	90 e0       	ldi	r25, 0x00	; 0
    11d6:	28 e2       	ldi	r18, 0x28	; 40
    11d8:	30 e0       	ldi	r19, 0x00	; 0
    11da:	f9 01       	movw	r30, r18
    11dc:	20 81       	ld	r18, Z
    11de:	20 68       	ori	r18, 0x80	; 128
    11e0:	fc 01       	movw	r30, r24
    11e2:	20 83       	st	Z, r18
    delay_us(100);
    11e4:	84 e6       	ldi	r24, 0x64	; 100
    11e6:	90 e0       	ldi	r25, 0x00	; 0
    11e8:	0e 94 8d 06 	call	0xd1a	; 0xd1a <delay_us>
 //   SCCB_DDR&= ~(SCCB_SIO_D);

}
    11ec:	cf 91       	pop	r28
    11ee:	df 91       	pop	r29
    11f0:	08 95       	ret

000011f2 <noAck>:
-----------------------------------------------
Function: noACK
-----------------------------------------------
*/
void noAck(void)
{
    11f2:	df 93       	push	r29
    11f4:	cf 93       	push	r28
    11f6:	cd b7       	in	r28, 0x3d	; 61
    11f8:	de b7       	in	r29, 0x3e	; 62
	
	SIO_D_SET;
    11fa:	88 e2       	ldi	r24, 0x28	; 40
    11fc:	90 e0       	ldi	r25, 0x00	; 0
    11fe:	28 e2       	ldi	r18, 0x28	; 40
    1200:	30 e0       	ldi	r19, 0x00	; 0
    1202:	f9 01       	movw	r30, r18
    1204:	20 81       	ld	r18, Z
    1206:	20 68       	ori	r18, 0x80	; 128
    1208:	fc 01       	movw	r30, r24
    120a:	20 83       	st	Z, r18
	delay_us(100);
    120c:	84 e6       	ldi	r24, 0x64	; 100
    120e:	90 e0       	ldi	r25, 0x00	; 0
    1210:	0e 94 8d 06 	call	0xd1a	; 0xd1a <delay_us>
	
	SIO_C_SET;
    1214:	88 e2       	ldi	r24, 0x28	; 40
    1216:	90 e0       	ldi	r25, 0x00	; 0
    1218:	28 e2       	ldi	r18, 0x28	; 40
    121a:	30 e0       	ldi	r19, 0x00	; 0
    121c:	f9 01       	movw	r30, r18
    121e:	20 81       	ld	r18, Z
    1220:	20 64       	ori	r18, 0x40	; 64
    1222:	fc 01       	movw	r30, r24
    1224:	20 83       	st	Z, r18
	delay_us(100);
    1226:	84 e6       	ldi	r24, 0x64	; 100
    1228:	90 e0       	ldi	r25, 0x00	; 0
    122a:	0e 94 8d 06 	call	0xd1a	; 0xd1a <delay_us>
	
	SIO_C_CLR;
    122e:	88 e2       	ldi	r24, 0x28	; 40
    1230:	90 e0       	ldi	r25, 0x00	; 0
    1232:	28 e2       	ldi	r18, 0x28	; 40
    1234:	30 e0       	ldi	r19, 0x00	; 0
    1236:	f9 01       	movw	r30, r18
    1238:	20 81       	ld	r18, Z
    123a:	2f 7b       	andi	r18, 0xBF	; 191
    123c:	fc 01       	movw	r30, r24
    123e:	20 83       	st	Z, r18
	delay_us(100);
    1240:	84 e6       	ldi	r24, 0x64	; 100
    1242:	90 e0       	ldi	r25, 0x00	; 0
    1244:	0e 94 8d 06 	call	0xd1a	; 0xd1a <delay_us>
	
	SIO_D_CLR;
    1248:	88 e2       	ldi	r24, 0x28	; 40
    124a:	90 e0       	ldi	r25, 0x00	; 0
    124c:	28 e2       	ldi	r18, 0x28	; 40
    124e:	30 e0       	ldi	r19, 0x00	; 0
    1250:	f9 01       	movw	r30, r18
    1252:	20 81       	ld	r18, Z
    1254:	2f 77       	andi	r18, 0x7F	; 127
    1256:	fc 01       	movw	r30, r24
    1258:	20 83       	st	Z, r18
	delay_us(100);
    125a:	84 e6       	ldi	r24, 0x64	; 100
    125c:	90 e0       	ldi	r25, 0x00	; 0
    125e:	0e 94 8d 06 	call	0xd1a	; 0xd1a <delay_us>

}
    1262:	cf 91       	pop	r28
    1264:	df 91       	pop	r29
    1266:	08 95       	ret

00001268 <SCCBwriteByte>:
-----------------------------------------------
Function: Write one Byte data through SCCB
-----------------------------------------------
*/
uchar SCCBwriteByte(uchar m_data)
{
    1268:	df 93       	push	r29
    126a:	cf 93       	push	r28
    126c:	00 d0       	rcall	.+0      	; 0x126e <SCCBwriteByte+0x6>
    126e:	0f 92       	push	r0
    1270:	cd b7       	in	r28, 0x3d	; 61
    1272:	de b7       	in	r29, 0x3e	; 62
    1274:	8b 83       	std	Y+3, r24	; 0x03
	unsigned char j,tem;

	for(j=0;j<8;j++)
    1276:	19 82       	std	Y+1, r1	; 0x01
    1278:	44 c0       	rjmp	.+136    	; 0x1302 <SCCBwriteByte+0x9a>
	{
		if((m_data<<j)&0x80)
    127a:	8b 81       	ldd	r24, Y+3	; 0x03
    127c:	88 2f       	mov	r24, r24
    127e:	90 e0       	ldi	r25, 0x00	; 0
    1280:	29 81       	ldd	r18, Y+1	; 0x01
    1282:	22 2f       	mov	r18, r18
    1284:	30 e0       	ldi	r19, 0x00	; 0
    1286:	02 2e       	mov	r0, r18
    1288:	02 c0       	rjmp	.+4      	; 0x128e <SCCBwriteByte+0x26>
    128a:	88 0f       	add	r24, r24
    128c:	99 1f       	adc	r25, r25
    128e:	0a 94       	dec	r0
    1290:	e2 f7       	brpl	.-8      	; 0x128a <SCCBwriteByte+0x22>
    1292:	80 78       	andi	r24, 0x80	; 128
    1294:	90 70       	andi	r25, 0x00	; 0
    1296:	00 97       	sbiw	r24, 0x00	; 0
    1298:	51 f0       	breq	.+20     	; 0x12ae <SCCBwriteByte+0x46>
		{
			SIO_D_SET;
    129a:	88 e2       	ldi	r24, 0x28	; 40
    129c:	90 e0       	ldi	r25, 0x00	; 0
    129e:	28 e2       	ldi	r18, 0x28	; 40
    12a0:	30 e0       	ldi	r19, 0x00	; 0
    12a2:	f9 01       	movw	r30, r18
    12a4:	20 81       	ld	r18, Z
    12a6:	20 68       	ori	r18, 0x80	; 128
    12a8:	fc 01       	movw	r30, r24
    12aa:	20 83       	st	Z, r18
    12ac:	09 c0       	rjmp	.+18     	; 0x12c0 <SCCBwriteByte+0x58>
		}
		else
		{
			SIO_D_CLR;
    12ae:	88 e2       	ldi	r24, 0x28	; 40
    12b0:	90 e0       	ldi	r25, 0x00	; 0
    12b2:	28 e2       	ldi	r18, 0x28	; 40
    12b4:	30 e0       	ldi	r19, 0x00	; 0
    12b6:	f9 01       	movw	r30, r18
    12b8:	20 81       	ld	r18, Z
    12ba:	2f 77       	andi	r18, 0x7F	; 127
    12bc:	fc 01       	movw	r30, r24
    12be:	20 83       	st	Z, r18
		}
		delay_us(100);
    12c0:	84 e6       	ldi	r24, 0x64	; 100
    12c2:	90 e0       	ldi	r25, 0x00	; 0
    12c4:	0e 94 8d 06 	call	0xd1a	; 0xd1a <delay_us>
		SIO_C_SET;
    12c8:	88 e2       	ldi	r24, 0x28	; 40
    12ca:	90 e0       	ldi	r25, 0x00	; 0
    12cc:	28 e2       	ldi	r18, 0x28	; 40
    12ce:	30 e0       	ldi	r19, 0x00	; 0
    12d0:	f9 01       	movw	r30, r18
    12d2:	20 81       	ld	r18, Z
    12d4:	20 64       	ori	r18, 0x40	; 64
    12d6:	fc 01       	movw	r30, r24
    12d8:	20 83       	st	Z, r18
		delay_us(100);
    12da:	84 e6       	ldi	r24, 0x64	; 100
    12dc:	90 e0       	ldi	r25, 0x00	; 0
    12de:	0e 94 8d 06 	call	0xd1a	; 0xd1a <delay_us>
		SIO_C_CLR;
    12e2:	88 e2       	ldi	r24, 0x28	; 40
    12e4:	90 e0       	ldi	r25, 0x00	; 0
    12e6:	28 e2       	ldi	r18, 0x28	; 40
    12e8:	30 e0       	ldi	r19, 0x00	; 0
    12ea:	f9 01       	movw	r30, r18
    12ec:	20 81       	ld	r18, Z
    12ee:	2f 7b       	andi	r18, 0xBF	; 191
    12f0:	fc 01       	movw	r30, r24
    12f2:	20 83       	st	Z, r18
		delay_us(100);
    12f4:	84 e6       	ldi	r24, 0x64	; 100
    12f6:	90 e0       	ldi	r25, 0x00	; 0
    12f8:	0e 94 8d 06 	call	0xd1a	; 0xd1a <delay_us>
*/
uchar SCCBwriteByte(uchar m_data)
{
	unsigned char j,tem;

	for(j=0;j<8;j++)
    12fc:	89 81       	ldd	r24, Y+1	; 0x01
    12fe:	8f 5f       	subi	r24, 0xFF	; 255
    1300:	89 83       	std	Y+1, r24	; 0x01
    1302:	89 81       	ldd	r24, Y+1	; 0x01
    1304:	88 30       	cpi	r24, 0x08	; 8
    1306:	08 f4       	brcc	.+2      	; 0x130a <SCCBwriteByte+0xa2>
    1308:	b8 cf       	rjmp	.-144    	; 0x127a <SCCBwriteByte+0x12>
		delay_us(100);
		SIO_C_CLR;
		delay_us(100);

	}
	delay_us(100);
    130a:	84 e6       	ldi	r24, 0x64	; 100
    130c:	90 e0       	ldi	r25, 0x00	; 0
    130e:	0e 94 8d 06 	call	0xd1a	; 0xd1a <delay_us>
	
	SIO_D_IN;	//Set SDA as input
    1312:	87 e2       	ldi	r24, 0x27	; 39
    1314:	90 e0       	ldi	r25, 0x00	; 0
    1316:	27 e2       	ldi	r18, 0x27	; 39
    1318:	30 e0       	ldi	r19, 0x00	; 0
    131a:	f9 01       	movw	r30, r18
    131c:	20 81       	ld	r18, Z
    131e:	2f 77       	andi	r18, 0x7F	; 127
    1320:	fc 01       	movw	r30, r24
    1322:	20 83       	st	Z, r18
	delay_us(100);
    1324:	84 e6       	ldi	r24, 0x64	; 100
    1326:	90 e0       	ldi	r25, 0x00	; 0
    1328:	0e 94 8d 06 	call	0xd1a	; 0xd1a <delay_us>
	SIO_C_SET;
    132c:	88 e2       	ldi	r24, 0x28	; 40
    132e:	90 e0       	ldi	r25, 0x00	; 0
    1330:	28 e2       	ldi	r18, 0x28	; 40
    1332:	30 e0       	ldi	r19, 0x00	; 0
    1334:	f9 01       	movw	r30, r18
    1336:	20 81       	ld	r18, Z
    1338:	20 64       	ori	r18, 0x40	; 64
    133a:	fc 01       	movw	r30, r24
    133c:	20 83       	st	Z, r18
	delay_us(1000);
    133e:	88 ee       	ldi	r24, 0xE8	; 232
    1340:	93 e0       	ldi	r25, 0x03	; 3
    1342:	0e 94 8d 06 	call	0xd1a	; 0xd1a <delay_us>
	if(SIO_D_STATE)
    1346:	86 e2       	ldi	r24, 0x26	; 38
    1348:	90 e0       	ldi	r25, 0x00	; 0
    134a:	fc 01       	movw	r30, r24
    134c:	80 81       	ld	r24, Z
    134e:	88 23       	and	r24, r24
    1350:	14 f4       	brge	.+4      	; 0x1356 <SCCBwriteByte+0xee>
	{
		tem=0;   //SDA=1 send fail, return 0
    1352:	1a 82       	std	Y+2, r1	; 0x02
    1354:	02 c0       	rjmp	.+4      	; 0x135a <SCCBwriteByte+0xf2>
	}
	else
	{
		tem=1;   //SDA=0 send succeed, reture 1
    1356:	81 e0       	ldi	r24, 0x01	; 1
    1358:	8a 83       	std	Y+2, r24	; 0x02
	}
	SIO_C_CLR;
    135a:	88 e2       	ldi	r24, 0x28	; 40
    135c:	90 e0       	ldi	r25, 0x00	; 0
    135e:	28 e2       	ldi	r18, 0x28	; 40
    1360:	30 e0       	ldi	r19, 0x00	; 0
    1362:	f9 01       	movw	r30, r18
    1364:	20 81       	ld	r18, Z
    1366:	2f 7b       	andi	r18, 0xBF	; 191
    1368:	fc 01       	movw	r30, r24
    136a:	20 83       	st	Z, r18
	delay_us(100);	
    136c:	84 e6       	ldi	r24, 0x64	; 100
    136e:	90 e0       	ldi	r25, 0x00	; 0
    1370:	0e 94 8d 06 	call	0xd1a	; 0xd1a <delay_us>
    SIO_D_OUT;	//Set SDA as output
    1374:	87 e2       	ldi	r24, 0x27	; 39
    1376:	90 e0       	ldi	r25, 0x00	; 0
    1378:	27 e2       	ldi	r18, 0x27	; 39
    137a:	30 e0       	ldi	r19, 0x00	; 0
    137c:	f9 01       	movw	r30, r18
    137e:	20 81       	ld	r18, Z
    1380:	20 68       	ori	r18, 0x80	; 128
    1382:	fc 01       	movw	r30, r24
    1384:	20 83       	st	Z, r18

	return(tem);  
    1386:	8a 81       	ldd	r24, Y+2	; 0x02
}
    1388:	0f 90       	pop	r0
    138a:	0f 90       	pop	r0
    138c:	0f 90       	pop	r0
    138e:	cf 91       	pop	r28
    1390:	df 91       	pop	r29
    1392:	08 95       	ret

00001394 <SCCBreadByte>:
-----------------------------------------------
Function: Read one byte data through SCCB
-----------------------------------------------
*/
uchar SCCBreadByte(void)
{
    1394:	df 93       	push	r29
    1396:	cf 93       	push	r28
    1398:	00 d0       	rcall	.+0      	; 0x139a <SCCBreadByte+0x6>
    139a:	cd b7       	in	r28, 0x3d	; 61
    139c:	de b7       	in	r29, 0x3e	; 62
	unsigned char read,j;
	read=0x00;
    139e:	19 82       	std	Y+1, r1	; 0x01
	
	SIO_D_IN;/*…Ë÷√SDAŒ™ ‰»Î*/
    13a0:	87 e2       	ldi	r24, 0x27	; 39
    13a2:	90 e0       	ldi	r25, 0x00	; 0
    13a4:	27 e2       	ldi	r18, 0x27	; 39
    13a6:	30 e0       	ldi	r19, 0x00	; 0
    13a8:	f9 01       	movw	r30, r18
    13aa:	20 81       	ld	r18, Z
    13ac:	2f 77       	andi	r18, 0x7F	; 127
    13ae:	fc 01       	movw	r30, r24
    13b0:	20 83       	st	Z, r18
	delay_us(100);
    13b2:	84 e6       	ldi	r24, 0x64	; 100
    13b4:	90 e0       	ldi	r25, 0x00	; 0
    13b6:	0e 94 8d 06 	call	0xd1a	; 0xd1a <delay_us>
	for(j=8;j>0;j--) //—≠ª∑8¥ŒΩ” ’ ˝æ›
    13ba:	88 e0       	ldi	r24, 0x08	; 8
    13bc:	8a 83       	std	Y+2, r24	; 0x02
    13be:	2d c0       	rjmp	.+90     	; 0x141a <SCCBreadByte+0x86>
	{		     
		delay_us(100);
    13c0:	84 e6       	ldi	r24, 0x64	; 100
    13c2:	90 e0       	ldi	r25, 0x00	; 0
    13c4:	0e 94 8d 06 	call	0xd1a	; 0xd1a <delay_us>
		SIO_C_SET;
    13c8:	88 e2       	ldi	r24, 0x28	; 40
    13ca:	90 e0       	ldi	r25, 0x00	; 0
    13cc:	28 e2       	ldi	r18, 0x28	; 40
    13ce:	30 e0       	ldi	r19, 0x00	; 0
    13d0:	f9 01       	movw	r30, r18
    13d2:	20 81       	ld	r18, Z
    13d4:	20 64       	ori	r18, 0x40	; 64
    13d6:	fc 01       	movw	r30, r24
    13d8:	20 83       	st	Z, r18
		delay_us(100);
    13da:	84 e6       	ldi	r24, 0x64	; 100
    13dc:	90 e0       	ldi	r25, 0x00	; 0
    13de:	0e 94 8d 06 	call	0xd1a	; 0xd1a <delay_us>
		read=read<<1;
    13e2:	89 81       	ldd	r24, Y+1	; 0x01
    13e4:	88 0f       	add	r24, r24
    13e6:	89 83       	std	Y+1, r24	; 0x01
		if(SIO_D_STATE) 
    13e8:	86 e2       	ldi	r24, 0x26	; 38
    13ea:	90 e0       	ldi	r25, 0x00	; 0
    13ec:	fc 01       	movw	r30, r24
    13ee:	80 81       	ld	r24, Z
    13f0:	88 23       	and	r24, r24
    13f2:	1c f4       	brge	.+6      	; 0x13fa <SCCBreadByte+0x66>
		{
			read=read+1;
    13f4:	89 81       	ldd	r24, Y+1	; 0x01
    13f6:	8f 5f       	subi	r24, 0xFF	; 255
    13f8:	89 83       	std	Y+1, r24	; 0x01
		}
		SIO_C_CLR;
    13fa:	88 e2       	ldi	r24, 0x28	; 40
    13fc:	90 e0       	ldi	r25, 0x00	; 0
    13fe:	28 e2       	ldi	r18, 0x28	; 40
    1400:	30 e0       	ldi	r19, 0x00	; 0
    1402:	f9 01       	movw	r30, r18
    1404:	20 81       	ld	r18, Z
    1406:	2f 7b       	andi	r18, 0xBF	; 191
    1408:	fc 01       	movw	r30, r24
    140a:	20 83       	st	Z, r18
		delay_us(100);
    140c:	84 e6       	ldi	r24, 0x64	; 100
    140e:	90 e0       	ldi	r25, 0x00	; 0
    1410:	0e 94 8d 06 	call	0xd1a	; 0xd1a <delay_us>
	unsigned char read,j;
	read=0x00;
	
	SIO_D_IN;/*…Ë÷√SDAŒ™ ‰»Î*/
	delay_us(100);
	for(j=8;j>0;j--) //—≠ª∑8¥ŒΩ” ’ ˝æ›
    1414:	8a 81       	ldd	r24, Y+2	; 0x02
    1416:	81 50       	subi	r24, 0x01	; 1
    1418:	8a 83       	std	Y+2, r24	; 0x02
    141a:	8a 81       	ldd	r24, Y+2	; 0x02
    141c:	88 23       	and	r24, r24
    141e:	81 f6       	brne	.-96     	; 0x13c0 <SCCBreadByte+0x2c>
			read=read+1;
		}
		SIO_C_CLR;
		delay_us(100);
	}	
	return(read);
    1420:	89 81       	ldd	r24, Y+1	; 0x01
}
    1422:	0f 90       	pop	r0
    1424:	0f 90       	pop	r0
    1426:	cf 91       	pop	r28
    1428:	df 91       	pop	r29
    142a:	08 95       	ret

0000142c <FBufferStore>:

#include "avr.h"
#include "font.h"

void FBufferStore(unsigned char character)
{
    142c:	1f 93       	push	r17
    142e:	df 93       	push	r29
    1430:	cf 93       	push	r28
    1432:	cd b7       	in	r28, 0x3d	; 61
    1434:	de b7       	in	r29, 0x3e	; 62
    1436:	28 97       	sbiw	r28, 0x08	; 8
    1438:	0f b6       	in	r0, 0x3f	; 63
    143a:	f8 94       	cli
    143c:	de bf       	out	0x3e, r29	; 62
    143e:	0f be       	out	0x3f, r0	; 63
    1440:	cd bf       	out	0x3d, r28	; 61
    1442:	88 87       	std	Y+8, r24	; 0x08
	unsigned char i,j;
	int char_p = character*FONT_SIZE;
    1444:	88 85       	ldd	r24, Y+8	; 0x08
    1446:	88 2f       	mov	r24, r24
    1448:	90 e0       	ldi	r25, 0x00	; 0
    144a:	82 95       	swap	r24
    144c:	92 95       	swap	r25
    144e:	90 7f       	andi	r25, 0xF0	; 240
    1450:	98 27       	eor	r25, r24
    1452:	80 7f       	andi	r24, 0xF0	; 240
    1454:	98 27       	eor	r25, r24
    1456:	9c 83       	std	Y+4, r25	; 0x04
    1458:	8b 83       	std	Y+3, r24	; 0x03

	for (i=0; i<FONT_BIT_WIDTH; i++)
    145a:	19 82       	std	Y+1, r1	; 0x01
    145c:	2a c0       	rjmp	.+84     	; 0x14b2 <FBufferStore+0x86>
		for (j=0; j<FONT_BYTE_HIGHT; j++)
    145e:	1a 82       	std	Y+2, r1	; 0x02
    1460:	22 c0       	rjmp	.+68     	; 0x14a6 <FBufferStore+0x7a>
		{
			char_buf[i][j] = pgm_read_byte(&font[char_p]);
    1462:	89 81       	ldd	r24, Y+1	; 0x01
    1464:	28 2f       	mov	r18, r24
    1466:	30 e0       	ldi	r19, 0x00	; 0
    1468:	8a 81       	ldd	r24, Y+2	; 0x02
    146a:	88 2f       	mov	r24, r24
    146c:	90 e0       	ldi	r25, 0x00	; 0
    146e:	4b 81       	ldd	r20, Y+3	; 0x03
    1470:	5c 81       	ldd	r21, Y+4	; 0x04
    1472:	44 52       	subi	r20, 0x24	; 36
    1474:	5e 4f       	sbci	r21, 0xFE	; 254
    1476:	5e 83       	std	Y+6, r21	; 0x06
    1478:	4d 83       	std	Y+5, r20	; 0x05
    147a:	4d 81       	ldd	r20, Y+5	; 0x05
    147c:	5e 81       	ldd	r21, Y+6	; 0x06
    147e:	fa 01       	movw	r30, r20
    1480:	14 91       	lpm	r17, Z+
    1482:	1f 83       	std	Y+7, r17	; 0x07
    1484:	4f 81       	ldd	r20, Y+7	; 0x07
    1486:	22 0f       	add	r18, r18
    1488:	33 1f       	adc	r19, r19
    148a:	82 0f       	add	r24, r18
    148c:	93 1f       	adc	r25, r19
    148e:	80 5e       	subi	r24, 0xE0	; 224
    1490:	9e 4f       	sbci	r25, 0xFE	; 254
    1492:	fc 01       	movw	r30, r24
    1494:	40 83       	st	Z, r20
			char_p++;
    1496:	8b 81       	ldd	r24, Y+3	; 0x03
    1498:	9c 81       	ldd	r25, Y+4	; 0x04
    149a:	01 96       	adiw	r24, 0x01	; 1
    149c:	9c 83       	std	Y+4, r25	; 0x04
    149e:	8b 83       	std	Y+3, r24	; 0x03
{
	unsigned char i,j;
	int char_p = character*FONT_SIZE;

	for (i=0; i<FONT_BIT_WIDTH; i++)
		for (j=0; j<FONT_BYTE_HIGHT; j++)
    14a0:	8a 81       	ldd	r24, Y+2	; 0x02
    14a2:	8f 5f       	subi	r24, 0xFF	; 255
    14a4:	8a 83       	std	Y+2, r24	; 0x02
    14a6:	8a 81       	ldd	r24, Y+2	; 0x02
    14a8:	82 30       	cpi	r24, 0x02	; 2
    14aa:	d8 f2       	brcs	.-74     	; 0x1462 <FBufferStore+0x36>
void FBufferStore(unsigned char character)
{
	unsigned char i,j;
	int char_p = character*FONT_SIZE;

	for (i=0; i<FONT_BIT_WIDTH; i++)
    14ac:	89 81       	ldd	r24, Y+1	; 0x01
    14ae:	8f 5f       	subi	r24, 0xFF	; 255
    14b0:	89 83       	std	Y+1, r24	; 0x01
    14b2:	89 81       	ldd	r24, Y+1	; 0x01
    14b4:	88 30       	cpi	r24, 0x08	; 8
    14b6:	98 f2       	brcs	.-90     	; 0x145e <FBufferStore+0x32>
		for (j=0; j<FONT_BYTE_HIGHT; j++)
		{
			char_buf[i][j] = pgm_read_byte(&font[char_p]);
			char_p++;
		}
}
    14b8:	28 96       	adiw	r28, 0x08	; 8
    14ba:	0f b6       	in	r0, 0x3f	; 63
    14bc:	f8 94       	cli
    14be:	de bf       	out	0x3e, r29	; 62
    14c0:	0f be       	out	0x3f, r0	; 63
    14c2:	cd bf       	out	0x3d, r28	; 61
    14c4:	cf 91       	pop	r28
    14c6:	df 91       	pop	r29
    14c8:	1f 91       	pop	r17
    14ca:	08 95       	ret

000014cc <FBufferRead>:

unsigned char FBufferRead(unsigned char column,unsigned char row)
{
    14cc:	df 93       	push	r29
    14ce:	cf 93       	push	r28
    14d0:	00 d0       	rcall	.+0      	; 0x14d2 <FBufferRead+0x6>
    14d2:	0f 92       	push	r0
    14d4:	cd b7       	in	r28, 0x3d	; 61
    14d6:	de b7       	in	r29, 0x3e	; 62
    14d8:	8a 83       	std	Y+2, r24	; 0x02
    14da:	6b 83       	std	Y+3, r22	; 0x03
	unsigned char read_pixel;

	if (row < 8)
    14dc:	8b 81       	ldd	r24, Y+3	; 0x03
    14de:	88 30       	cpi	r24, 0x08	; 8
    14e0:	e8 f4       	brcc	.+58     	; 0x151c <FBufferRead+0x50>
	{
		read_pixel = (char_buf[column][0] >> (7-row)) & 0x01;
    14e2:	8a 81       	ldd	r24, Y+2	; 0x02
    14e4:	88 2f       	mov	r24, r24
    14e6:	90 e0       	ldi	r25, 0x00	; 0
    14e8:	88 0f       	add	r24, r24
    14ea:	99 1f       	adc	r25, r25
    14ec:	80 5e       	subi	r24, 0xE0	; 224
    14ee:	9e 4f       	sbci	r25, 0xFE	; 254
    14f0:	fc 01       	movw	r30, r24
    14f2:	80 81       	ld	r24, Z
    14f4:	88 2f       	mov	r24, r24
    14f6:	90 e0       	ldi	r25, 0x00	; 0
    14f8:	2b 81       	ldd	r18, Y+3	; 0x03
    14fa:	22 2f       	mov	r18, r18
    14fc:	30 e0       	ldi	r19, 0x00	; 0
    14fe:	47 e0       	ldi	r20, 0x07	; 7
    1500:	50 e0       	ldi	r21, 0x00	; 0
    1502:	ba 01       	movw	r22, r20
    1504:	62 1b       	sub	r22, r18
    1506:	73 0b       	sbc	r23, r19
    1508:	9b 01       	movw	r18, r22
    150a:	02 2e       	mov	r0, r18
    150c:	02 c0       	rjmp	.+4      	; 0x1512 <FBufferRead+0x46>
    150e:	95 95       	asr	r25
    1510:	87 95       	ror	r24
    1512:	0a 94       	dec	r0
    1514:	e2 f7       	brpl	.-8      	; 0x150e <FBufferRead+0x42>
    1516:	81 70       	andi	r24, 0x01	; 1
    1518:	89 83       	std	Y+1, r24	; 0x01
    151a:	1f c0       	rjmp	.+62     	; 0x155a <FBufferRead+0x8e>
	}
	else
	{
		row = row - 8;
    151c:	8b 81       	ldd	r24, Y+3	; 0x03
    151e:	88 50       	subi	r24, 0x08	; 8
    1520:	8b 83       	std	Y+3, r24	; 0x03
		read_pixel = (char_buf[column][1] >> (7-row)) & 0x01;
    1522:	8a 81       	ldd	r24, Y+2	; 0x02
    1524:	88 2f       	mov	r24, r24
    1526:	90 e0       	ldi	r25, 0x00	; 0
    1528:	88 0f       	add	r24, r24
    152a:	99 1f       	adc	r25, r25
    152c:	8f 5d       	subi	r24, 0xDF	; 223
    152e:	9e 4f       	sbci	r25, 0xFE	; 254
    1530:	fc 01       	movw	r30, r24
    1532:	80 81       	ld	r24, Z
    1534:	88 2f       	mov	r24, r24
    1536:	90 e0       	ldi	r25, 0x00	; 0
    1538:	2b 81       	ldd	r18, Y+3	; 0x03
    153a:	22 2f       	mov	r18, r18
    153c:	30 e0       	ldi	r19, 0x00	; 0
    153e:	47 e0       	ldi	r20, 0x07	; 7
    1540:	50 e0       	ldi	r21, 0x00	; 0
    1542:	ba 01       	movw	r22, r20
    1544:	62 1b       	sub	r22, r18
    1546:	73 0b       	sbc	r23, r19
    1548:	9b 01       	movw	r18, r22
    154a:	02 2e       	mov	r0, r18
    154c:	02 c0       	rjmp	.+4      	; 0x1552 <FBufferRead+0x86>
    154e:	95 95       	asr	r25
    1550:	87 95       	ror	r24
    1552:	0a 94       	dec	r0
    1554:	e2 f7       	brpl	.-8      	; 0x154e <FBufferRead+0x82>
    1556:	81 70       	andi	r24, 0x01	; 1
    1558:	89 83       	std	Y+1, r24	; 0x01
	}
	return (read_pixel);
    155a:	89 81       	ldd	r24, Y+1	; 0x01
}
    155c:	0f 90       	pop	r0
    155e:	0f 90       	pop	r0
    1560:	0f 90       	pop	r0
    1562:	cf 91       	pop	r28
    1564:	df 91       	pop	r29
    1566:	08 95       	ret

00001568 <TSLCDSetWindow>:
#include "lcd.h"
#include "font.c"


void TSLCDSetWindow(int sx,int ex,int sy,int ey)
{
    1568:	df 93       	push	r29
    156a:	cf 93       	push	r28
    156c:	cd b7       	in	r28, 0x3d	; 61
    156e:	de b7       	in	r29, 0x3e	; 62
    1570:	28 97       	sbiw	r28, 0x08	; 8
    1572:	0f b6       	in	r0, 0x3f	; 63
    1574:	f8 94       	cli
    1576:	de bf       	out	0x3e, r29	; 62
    1578:	0f be       	out	0x3f, r0	; 63
    157a:	cd bf       	out	0x3d, r28	; 61
    157c:	9a 83       	std	Y+2, r25	; 0x02
    157e:	89 83       	std	Y+1, r24	; 0x01
    1580:	7c 83       	std	Y+4, r23	; 0x04
    1582:	6b 83       	std	Y+3, r22	; 0x03
    1584:	5e 83       	std	Y+6, r21	; 0x06
    1586:	4d 83       	std	Y+5, r20	; 0x05
    1588:	38 87       	std	Y+8, r19	; 0x08
    158a:	2f 83       	std	Y+7, r18	; 0x07
	// *** Y needs to be set before X ***
	TSLCDOutIns(LCD_START_ADY);
    158c:	87 e4       	ldi	r24, 0x47	; 71
    158e:	90 e0       	ldi	r25, 0x00	; 0
    1590:	0e 94 82 0b 	call	0x1704	; 0x1704 <TSLCDOutIns>
	TSLCDOutDat(sy);
    1594:	8d 81       	ldd	r24, Y+5	; 0x05
    1596:	9e 81       	ldd	r25, Y+6	; 0x06
    1598:	0e 94 18 0b 	call	0x1630	; 0x1630 <TSLCDOutDat>
	TSLCDOutIns(LCD_END_ADY);
    159c:	86 e4       	ldi	r24, 0x46	; 70
    159e:	90 e0       	ldi	r25, 0x00	; 0
    15a0:	0e 94 82 0b 	call	0x1704	; 0x1704 <TSLCDOutIns>
	TSLCDOutDat(ey);
    15a4:	8f 81       	ldd	r24, Y+7	; 0x07
    15a6:	98 85       	ldd	r25, Y+8	; 0x08
    15a8:	0e 94 18 0b 	call	0x1630	; 0x1630 <TSLCDOutDat>
	TSLCDOutIns(LCD_GRAM_ADY);
    15ac:	80 e2       	ldi	r24, 0x20	; 32
    15ae:	90 e0       	ldi	r25, 0x00	; 0
    15b0:	0e 94 82 0b 	call	0x1704	; 0x1704 <TSLCDOutIns>
	TSLCDOutDat(sy);
    15b4:	8d 81       	ldd	r24, Y+5	; 0x05
    15b6:	9e 81       	ldd	r25, Y+6	; 0x06
    15b8:	0e 94 18 0b 	call	0x1630	; 0x1630 <TSLCDOutDat>
	TSLCDOutIns(LCD_START_ADX);
    15bc:	85 e4       	ldi	r24, 0x45	; 69
    15be:	90 e0       	ldi	r25, 0x00	; 0
    15c0:	0e 94 82 0b 	call	0x1704	; 0x1704 <TSLCDOutIns>
	TSLCDOutDat(sx);
    15c4:	89 81       	ldd	r24, Y+1	; 0x01
    15c6:	9a 81       	ldd	r25, Y+2	; 0x02
    15c8:	0e 94 18 0b 	call	0x1630	; 0x1630 <TSLCDOutDat>
	TSLCDOutIns(LCD_END_ADX);
    15cc:	84 e4       	ldi	r24, 0x44	; 68
    15ce:	90 e0       	ldi	r25, 0x00	; 0
    15d0:	0e 94 82 0b 	call	0x1704	; 0x1704 <TSLCDOutIns>
	TSLCDOutDat(ex);
    15d4:	8b 81       	ldd	r24, Y+3	; 0x03
    15d6:	9c 81       	ldd	r25, Y+4	; 0x04
    15d8:	0e 94 18 0b 	call	0x1630	; 0x1630 <TSLCDOutDat>
	TSLCDOutIns(LCD_GRAM_ADX);
    15dc:	81 e2       	ldi	r24, 0x21	; 33
    15de:	90 e0       	ldi	r25, 0x00	; 0
    15e0:	0e 94 82 0b 	call	0x1704	; 0x1704 <TSLCDOutIns>
	TSLCDOutDat(sx);
    15e4:	89 81       	ldd	r24, Y+1	; 0x01
    15e6:	9a 81       	ldd	r25, Y+2	; 0x02
    15e8:	0e 94 18 0b 	call	0x1630	; 0x1630 <TSLCDOutDat>
}
    15ec:	28 96       	adiw	r28, 0x08	; 8
    15ee:	0f b6       	in	r0, 0x3f	; 63
    15f0:	f8 94       	cli
    15f2:	de bf       	out	0x3e, r29	; 62
    15f4:	0f be       	out	0x3f, r0	; 63
    15f6:	cd bf       	out	0x3d, r28	; 61
    15f8:	cf 91       	pop	r28
    15fa:	df 91       	pop	r29
    15fc:	08 95       	ret

000015fe <TSLCDOutInsDat>:
	TSLCDOutIns(LCD_GRAM_ADX);
	TSLCDOutDat(sx);
}
*/
void TSLCDOutInsDat(unsigned short ins, unsigned short dat) 
{
    15fe:	df 93       	push	r29
    1600:	cf 93       	push	r28
    1602:	00 d0       	rcall	.+0      	; 0x1604 <TSLCDOutInsDat+0x6>
    1604:	00 d0       	rcall	.+0      	; 0x1606 <TSLCDOutInsDat+0x8>
    1606:	cd b7       	in	r28, 0x3d	; 61
    1608:	de b7       	in	r29, 0x3e	; 62
    160a:	9a 83       	std	Y+2, r25	; 0x02
    160c:	89 83       	std	Y+1, r24	; 0x01
    160e:	7c 83       	std	Y+4, r23	; 0x04
    1610:	6b 83       	std	Y+3, r22	; 0x03
	TSLCDOutIns(ins); 
    1612:	89 81       	ldd	r24, Y+1	; 0x01
    1614:	9a 81       	ldd	r25, Y+2	; 0x02
    1616:	0e 94 82 0b 	call	0x1704	; 0x1704 <TSLCDOutIns>
	TSLCDOutDat(dat);
    161a:	8b 81       	ldd	r24, Y+3	; 0x03
    161c:	9c 81       	ldd	r25, Y+4	; 0x04
    161e:	0e 94 18 0b 	call	0x1630	; 0x1630 <TSLCDOutDat>
} 
    1622:	0f 90       	pop	r0
    1624:	0f 90       	pop	r0
    1626:	0f 90       	pop	r0
    1628:	0f 90       	pop	r0
    162a:	cf 91       	pop	r28
    162c:	df 91       	pop	r29
    162e:	08 95       	ret

00001630 <TSLCDOutDat>:

void TSLCDOutDat(unsigned short dat) 
{
    1630:	df 93       	push	r29
    1632:	cf 93       	push	r28
    1634:	00 d0       	rcall	.+0      	; 0x1636 <TSLCDOutDat+0x6>
    1636:	cd b7       	in	r28, 0x3d	; 61
    1638:	de b7       	in	r29, 0x3e	; 62
    163a:	9a 83       	std	Y+2, r25	; 0x02
    163c:	89 83       	std	Y+1, r24	; 0x01
	Setb(LCD_RS_PORT,LCD_RS_PIN);
    163e:	88 e2       	ldi	r24, 0x28	; 40
    1640:	90 e0       	ldi	r25, 0x00	; 0
    1642:	28 e2       	ldi	r18, 0x28	; 40
    1644:	30 e0       	ldi	r19, 0x00	; 0
    1646:	f9 01       	movw	r30, r18
    1648:	20 81       	ld	r18, Z
    164a:	22 60       	ori	r18, 0x02	; 2
    164c:	fc 01       	movw	r30, r24
    164e:	20 83       	st	Z, r18
	Setb(LCD_RD_PORT,LCD_RD_PIN);
    1650:	88 e2       	ldi	r24, 0x28	; 40
    1652:	90 e0       	ldi	r25, 0x00	; 0
    1654:	28 e2       	ldi	r18, 0x28	; 40
    1656:	30 e0       	ldi	r19, 0x00	; 0
    1658:	f9 01       	movw	r30, r18
    165a:	20 81       	ld	r18, Z
    165c:	28 60       	ori	r18, 0x08	; 8
    165e:	fc 01       	movw	r30, r24
    1660:	20 83       	st	Z, r18
	Clrb(LCD_WR_PORT,LCD_WR_PIN);
    1662:	88 e2       	ldi	r24, 0x28	; 40
    1664:	90 e0       	ldi	r25, 0x00	; 0
    1666:	28 e2       	ldi	r18, 0x28	; 40
    1668:	30 e0       	ldi	r19, 0x00	; 0
    166a:	f9 01       	movw	r30, r18
    166c:	20 81       	ld	r18, Z
    166e:	2f 7e       	andi	r18, 0xEF	; 239
    1670:	fc 01       	movw	r30, r24
    1672:	20 83       	st	Z, r18

	LCD_DB_DPRT = 0xFF;
    1674:	81 e2       	ldi	r24, 0x21	; 33
    1676:	90 e0       	ldi	r25, 0x00	; 0
    1678:	2f ef       	ldi	r18, 0xFF	; 255
    167a:	fc 01       	movw	r30, r24
    167c:	20 83       	st	Z, r18
	LCD_DB_PORT = dat >> 8;
    167e:	82 e2       	ldi	r24, 0x22	; 34
    1680:	90 e0       	ldi	r25, 0x00	; 0
    1682:	29 81       	ldd	r18, Y+1	; 0x01
    1684:	3a 81       	ldd	r19, Y+2	; 0x02
    1686:	23 2f       	mov	r18, r19
    1688:	33 27       	eor	r19, r19
    168a:	fc 01       	movw	r30, r24
    168c:	20 83       	st	Z, r18

	Clrb(LCD_CS_PORT,LCD_CS_PIN);
    168e:	88 e2       	ldi	r24, 0x28	; 40
    1690:	90 e0       	ldi	r25, 0x00	; 0
    1692:	28 e2       	ldi	r18, 0x28	; 40
    1694:	30 e0       	ldi	r19, 0x00	; 0
    1696:	f9 01       	movw	r30, r18
    1698:	20 81       	ld	r18, Z
    169a:	2b 7f       	andi	r18, 0xFB	; 251
    169c:	fc 01       	movw	r30, r24
    169e:	20 83       	st	Z, r18
	Setb(LCD_CS_PORT,LCD_CS_PIN);
    16a0:	88 e2       	ldi	r24, 0x28	; 40
    16a2:	90 e0       	ldi	r25, 0x00	; 0
    16a4:	28 e2       	ldi	r18, 0x28	; 40
    16a6:	30 e0       	ldi	r19, 0x00	; 0
    16a8:	f9 01       	movw	r30, r18
    16aa:	20 81       	ld	r18, Z
    16ac:	24 60       	ori	r18, 0x04	; 4
    16ae:	fc 01       	movw	r30, r24
    16b0:	20 83       	st	Z, r18

	LCD_DB_PORT = dat;
    16b2:	82 e2       	ldi	r24, 0x22	; 34
    16b4:	90 e0       	ldi	r25, 0x00	; 0
    16b6:	29 81       	ldd	r18, Y+1	; 0x01
    16b8:	fc 01       	movw	r30, r24
    16ba:	20 83       	st	Z, r18

	Clrb(LCD_CS_PORT,LCD_CS_PIN);
    16bc:	88 e2       	ldi	r24, 0x28	; 40
    16be:	90 e0       	ldi	r25, 0x00	; 0
    16c0:	28 e2       	ldi	r18, 0x28	; 40
    16c2:	30 e0       	ldi	r19, 0x00	; 0
    16c4:	f9 01       	movw	r30, r18
    16c6:	20 81       	ld	r18, Z
    16c8:	2b 7f       	andi	r18, 0xFB	; 251
    16ca:	fc 01       	movw	r30, r24
    16cc:	20 83       	st	Z, r18
	Setb(LCD_CS_PORT,LCD_CS_PIN);
    16ce:	88 e2       	ldi	r24, 0x28	; 40
    16d0:	90 e0       	ldi	r25, 0x00	; 0
    16d2:	28 e2       	ldi	r18, 0x28	; 40
    16d4:	30 e0       	ldi	r19, 0x00	; 0
    16d6:	f9 01       	movw	r30, r18
    16d8:	20 81       	ld	r18, Z
    16da:	24 60       	ori	r18, 0x04	; 4
    16dc:	fc 01       	movw	r30, r24
    16de:	20 83       	st	Z, r18
	Setb(LCD_WR_PORT,LCD_WR_PIN);
    16e0:	88 e2       	ldi	r24, 0x28	; 40
    16e2:	90 e0       	ldi	r25, 0x00	; 0
    16e4:	28 e2       	ldi	r18, 0x28	; 40
    16e6:	30 e0       	ldi	r19, 0x00	; 0
    16e8:	f9 01       	movw	r30, r18
    16ea:	20 81       	ld	r18, Z
    16ec:	20 61       	ori	r18, 0x10	; 16
    16ee:	fc 01       	movw	r30, r24
    16f0:	20 83       	st	Z, r18

	LCD_DB_DPRT = 0;
    16f2:	81 e2       	ldi	r24, 0x21	; 33
    16f4:	90 e0       	ldi	r25, 0x00	; 0
    16f6:	fc 01       	movw	r30, r24
    16f8:	10 82       	st	Z, r1
}
    16fa:	0f 90       	pop	r0
    16fc:	0f 90       	pop	r0
    16fe:	cf 91       	pop	r28
    1700:	df 91       	pop	r29
    1702:	08 95       	ret

00001704 <TSLCDOutIns>:


void TSLCDOutIns(unsigned short ins) 
{
    1704:	df 93       	push	r29
    1706:	cf 93       	push	r28
    1708:	00 d0       	rcall	.+0      	; 0x170a <TSLCDOutIns+0x6>
    170a:	cd b7       	in	r28, 0x3d	; 61
    170c:	de b7       	in	r29, 0x3e	; 62
    170e:	9a 83       	std	Y+2, r25	; 0x02
    1710:	89 83       	std	Y+1, r24	; 0x01
	Clrb(LCD_RS_PORT,LCD_RS_PIN);
    1712:	88 e2       	ldi	r24, 0x28	; 40
    1714:	90 e0       	ldi	r25, 0x00	; 0
    1716:	28 e2       	ldi	r18, 0x28	; 40
    1718:	30 e0       	ldi	r19, 0x00	; 0
    171a:	f9 01       	movw	r30, r18
    171c:	20 81       	ld	r18, Z
    171e:	2d 7f       	andi	r18, 0xFD	; 253
    1720:	fc 01       	movw	r30, r24
    1722:	20 83       	st	Z, r18
	Setb(LCD_RD_PORT,LCD_RD_PIN);
    1724:	88 e2       	ldi	r24, 0x28	; 40
    1726:	90 e0       	ldi	r25, 0x00	; 0
    1728:	28 e2       	ldi	r18, 0x28	; 40
    172a:	30 e0       	ldi	r19, 0x00	; 0
    172c:	f9 01       	movw	r30, r18
    172e:	20 81       	ld	r18, Z
    1730:	28 60       	ori	r18, 0x08	; 8
    1732:	fc 01       	movw	r30, r24
    1734:	20 83       	st	Z, r18
	Clrb(LCD_WR_PORT,LCD_WR_PIN);
    1736:	88 e2       	ldi	r24, 0x28	; 40
    1738:	90 e0       	ldi	r25, 0x00	; 0
    173a:	28 e2       	ldi	r18, 0x28	; 40
    173c:	30 e0       	ldi	r19, 0x00	; 0
    173e:	f9 01       	movw	r30, r18
    1740:	20 81       	ld	r18, Z
    1742:	2f 7e       	andi	r18, 0xEF	; 239
    1744:	fc 01       	movw	r30, r24
    1746:	20 83       	st	Z, r18

	LCD_DB_DPRT = 0xFF;
    1748:	81 e2       	ldi	r24, 0x21	; 33
    174a:	90 e0       	ldi	r25, 0x00	; 0
    174c:	2f ef       	ldi	r18, 0xFF	; 255
    174e:	fc 01       	movw	r30, r24
    1750:	20 83       	st	Z, r18
	LCD_DB_PORT = ins >> 8;
    1752:	82 e2       	ldi	r24, 0x22	; 34
    1754:	90 e0       	ldi	r25, 0x00	; 0
    1756:	29 81       	ldd	r18, Y+1	; 0x01
    1758:	3a 81       	ldd	r19, Y+2	; 0x02
    175a:	23 2f       	mov	r18, r19
    175c:	33 27       	eor	r19, r19
    175e:	fc 01       	movw	r30, r24
    1760:	20 83       	st	Z, r18

	Clrb(LCD_CS_PORT,LCD_CS_PIN);
    1762:	88 e2       	ldi	r24, 0x28	; 40
    1764:	90 e0       	ldi	r25, 0x00	; 0
    1766:	28 e2       	ldi	r18, 0x28	; 40
    1768:	30 e0       	ldi	r19, 0x00	; 0
    176a:	f9 01       	movw	r30, r18
    176c:	20 81       	ld	r18, Z
    176e:	2b 7f       	andi	r18, 0xFB	; 251
    1770:	fc 01       	movw	r30, r24
    1772:	20 83       	st	Z, r18
	Setb(LCD_CS_PORT,LCD_CS_PIN);
    1774:	88 e2       	ldi	r24, 0x28	; 40
    1776:	90 e0       	ldi	r25, 0x00	; 0
    1778:	28 e2       	ldi	r18, 0x28	; 40
    177a:	30 e0       	ldi	r19, 0x00	; 0
    177c:	f9 01       	movw	r30, r18
    177e:	20 81       	ld	r18, Z
    1780:	24 60       	ori	r18, 0x04	; 4
    1782:	fc 01       	movw	r30, r24
    1784:	20 83       	st	Z, r18

	LCD_DB_PORT = ins;
    1786:	82 e2       	ldi	r24, 0x22	; 34
    1788:	90 e0       	ldi	r25, 0x00	; 0
    178a:	29 81       	ldd	r18, Y+1	; 0x01
    178c:	fc 01       	movw	r30, r24
    178e:	20 83       	st	Z, r18

	Clrb(LCD_CS_PORT,LCD_CS_PIN);
    1790:	88 e2       	ldi	r24, 0x28	; 40
    1792:	90 e0       	ldi	r25, 0x00	; 0
    1794:	28 e2       	ldi	r18, 0x28	; 40
    1796:	30 e0       	ldi	r19, 0x00	; 0
    1798:	f9 01       	movw	r30, r18
    179a:	20 81       	ld	r18, Z
    179c:	2b 7f       	andi	r18, 0xFB	; 251
    179e:	fc 01       	movw	r30, r24
    17a0:	20 83       	st	Z, r18
	Setb(LCD_CS_PORT,LCD_CS_PIN);
    17a2:	88 e2       	ldi	r24, 0x28	; 40
    17a4:	90 e0       	ldi	r25, 0x00	; 0
    17a6:	28 e2       	ldi	r18, 0x28	; 40
    17a8:	30 e0       	ldi	r19, 0x00	; 0
    17aa:	f9 01       	movw	r30, r18
    17ac:	20 81       	ld	r18, Z
    17ae:	24 60       	ori	r18, 0x04	; 4
    17b0:	fc 01       	movw	r30, r24
    17b2:	20 83       	st	Z, r18
	Setb(LCD_WR_PORT,LCD_WR_PIN);
    17b4:	88 e2       	ldi	r24, 0x28	; 40
    17b6:	90 e0       	ldi	r25, 0x00	; 0
    17b8:	28 e2       	ldi	r18, 0x28	; 40
    17ba:	30 e0       	ldi	r19, 0x00	; 0
    17bc:	f9 01       	movw	r30, r18
    17be:	20 81       	ld	r18, Z
    17c0:	20 61       	ori	r18, 0x10	; 16
    17c2:	fc 01       	movw	r30, r24
    17c4:	20 83       	st	Z, r18

	LCD_DB_DPRT = 0;
    17c6:	81 e2       	ldi	r24, 0x21	; 33
    17c8:	90 e0       	ldi	r25, 0x00	; 0
    17ca:	fc 01       	movw	r30, r24
    17cc:	10 82       	st	Z, r1
}
    17ce:	0f 90       	pop	r0
    17d0:	0f 90       	pop	r0
    17d2:	cf 91       	pop	r28
    17d4:	df 91       	pop	r29
    17d6:	08 95       	ret

000017d8 <TSLCDInDat>:

unsigned short TSLCDInDat(void) 
{
    17d8:	df 93       	push	r29
    17da:	cf 93       	push	r28
    17dc:	00 d0       	rcall	.+0      	; 0x17de <TSLCDInDat+0x6>
    17de:	cd b7       	in	r28, 0x3d	; 61
    17e0:	de b7       	in	r29, 0x3e	; 62
	unsigned short dat = 0;
    17e2:	1a 82       	std	Y+2, r1	; 0x02
    17e4:	19 82       	std	Y+1, r1	; 0x01

	LCD_DB_DPRT = 0;
    17e6:	81 e2       	ldi	r24, 0x21	; 33
    17e8:	90 e0       	ldi	r25, 0x00	; 0
    17ea:	fc 01       	movw	r30, r24
    17ec:	10 82       	st	Z, r1

	Setb(LCD_RS_PORT,LCD_RS_PIN);
    17ee:	88 e2       	ldi	r24, 0x28	; 40
    17f0:	90 e0       	ldi	r25, 0x00	; 0
    17f2:	28 e2       	ldi	r18, 0x28	; 40
    17f4:	30 e0       	ldi	r19, 0x00	; 0
    17f6:	f9 01       	movw	r30, r18
    17f8:	20 81       	ld	r18, Z
    17fa:	22 60       	ori	r18, 0x02	; 2
    17fc:	fc 01       	movw	r30, r24
    17fe:	20 83       	st	Z, r18
	Setb(LCD_WR_PORT,LCD_WR_PIN);
    1800:	88 e2       	ldi	r24, 0x28	; 40
    1802:	90 e0       	ldi	r25, 0x00	; 0
    1804:	28 e2       	ldi	r18, 0x28	; 40
    1806:	30 e0       	ldi	r19, 0x00	; 0
    1808:	f9 01       	movw	r30, r18
    180a:	20 81       	ld	r18, Z
    180c:	20 61       	ori	r18, 0x10	; 16
    180e:	fc 01       	movw	r30, r24
    1810:	20 83       	st	Z, r18
	Clrb(LCD_RD_PORT,LCD_RD_PIN);
    1812:	88 e2       	ldi	r24, 0x28	; 40
    1814:	90 e0       	ldi	r25, 0x00	; 0
    1816:	28 e2       	ldi	r18, 0x28	; 40
    1818:	30 e0       	ldi	r19, 0x00	; 0
    181a:	f9 01       	movw	r30, r18
    181c:	20 81       	ld	r18, Z
    181e:	27 7f       	andi	r18, 0xF7	; 247
    1820:	fc 01       	movw	r30, r24
    1822:	20 83       	st	Z, r18
	Clrb(LCD_CS_PORT,LCD_CS_PIN);
    1824:	88 e2       	ldi	r24, 0x28	; 40
    1826:	90 e0       	ldi	r25, 0x00	; 0
    1828:	28 e2       	ldi	r18, 0x28	; 40
    182a:	30 e0       	ldi	r19, 0x00	; 0
    182c:	f9 01       	movw	r30, r18
    182e:	20 81       	ld	r18, Z
    1830:	2b 7f       	andi	r18, 0xFB	; 251
    1832:	fc 01       	movw	r30, r24
    1834:	20 83       	st	Z, r18

	dat = LCD_DB_PINP;
    1836:	80 e2       	ldi	r24, 0x20	; 32
    1838:	90 e0       	ldi	r25, 0x00	; 0
    183a:	fc 01       	movw	r30, r24
    183c:	80 81       	ld	r24, Z
    183e:	88 2f       	mov	r24, r24
    1840:	90 e0       	ldi	r25, 0x00	; 0
    1842:	9a 83       	std	Y+2, r25	; 0x02
    1844:	89 83       	std	Y+1, r24	; 0x01

	Setb(LCD_CS_PORT,LCD_CS_PIN);
    1846:	88 e2       	ldi	r24, 0x28	; 40
    1848:	90 e0       	ldi	r25, 0x00	; 0
    184a:	28 e2       	ldi	r18, 0x28	; 40
    184c:	30 e0       	ldi	r19, 0x00	; 0
    184e:	f9 01       	movw	r30, r18
    1850:	20 81       	ld	r18, Z
    1852:	24 60       	ori	r18, 0x04	; 4
    1854:	fc 01       	movw	r30, r24
    1856:	20 83       	st	Z, r18

	dat <<= 8;
    1858:	89 81       	ldd	r24, Y+1	; 0x01
    185a:	9a 81       	ldd	r25, Y+2	; 0x02
    185c:	98 2f       	mov	r25, r24
    185e:	88 27       	eor	r24, r24
    1860:	9a 83       	std	Y+2, r25	; 0x02
    1862:	89 83       	std	Y+1, r24	; 0x01

	Clrb(LCD_CS_PORT,LCD_CS_PIN);
    1864:	88 e2       	ldi	r24, 0x28	; 40
    1866:	90 e0       	ldi	r25, 0x00	; 0
    1868:	28 e2       	ldi	r18, 0x28	; 40
    186a:	30 e0       	ldi	r19, 0x00	; 0
    186c:	f9 01       	movw	r30, r18
    186e:	20 81       	ld	r18, Z
    1870:	2b 7f       	andi	r18, 0xFB	; 251
    1872:	fc 01       	movw	r30, r24
    1874:	20 83       	st	Z, r18

	dat |= LCD_DB_PINP;
    1876:	80 e2       	ldi	r24, 0x20	; 32
    1878:	90 e0       	ldi	r25, 0x00	; 0
    187a:	fc 01       	movw	r30, r24
    187c:	80 81       	ld	r24, Z
    187e:	88 2f       	mov	r24, r24
    1880:	90 e0       	ldi	r25, 0x00	; 0
    1882:	29 81       	ldd	r18, Y+1	; 0x01
    1884:	3a 81       	ldd	r19, Y+2	; 0x02
    1886:	82 2b       	or	r24, r18
    1888:	93 2b       	or	r25, r19
    188a:	9a 83       	std	Y+2, r25	; 0x02
    188c:	89 83       	std	Y+1, r24	; 0x01

	Setb(LCD_CS_PORT,LCD_CS_PIN);
    188e:	88 e2       	ldi	r24, 0x28	; 40
    1890:	90 e0       	ldi	r25, 0x00	; 0
    1892:	28 e2       	ldi	r18, 0x28	; 40
    1894:	30 e0       	ldi	r19, 0x00	; 0
    1896:	f9 01       	movw	r30, r18
    1898:	20 81       	ld	r18, Z
    189a:	24 60       	ori	r18, 0x04	; 4
    189c:	fc 01       	movw	r30, r24
    189e:	20 83       	st	Z, r18
	Setb(LCD_RD_PORT,LCD_RD_PIN);
    18a0:	88 e2       	ldi	r24, 0x28	; 40
    18a2:	90 e0       	ldi	r25, 0x00	; 0
    18a4:	28 e2       	ldi	r18, 0x28	; 40
    18a6:	30 e0       	ldi	r19, 0x00	; 0
    18a8:	f9 01       	movw	r30, r18
    18aa:	20 81       	ld	r18, Z
    18ac:	28 60       	ori	r18, 0x08	; 8
    18ae:	fc 01       	movw	r30, r24
    18b0:	20 83       	st	Z, r18

	return (dat);
    18b2:	89 81       	ldd	r24, Y+1	; 0x01
    18b4:	9a 81       	ldd	r25, Y+2	; 0x02
}
    18b6:	0f 90       	pop	r0
    18b8:	0f 90       	pop	r0
    18ba:	cf 91       	pop	r28
    18bc:	df 91       	pop	r29
    18be:	08 95       	ret

000018c0 <TSLCDInIns>:


unsigned short TSLCDInIns(void) 
{
    18c0:	df 93       	push	r29
    18c2:	cf 93       	push	r28
    18c4:	00 d0       	rcall	.+0      	; 0x18c6 <TSLCDInIns+0x6>
    18c6:	cd b7       	in	r28, 0x3d	; 61
    18c8:	de b7       	in	r29, 0x3e	; 62
	unsigned short ins = 0;
    18ca:	1a 82       	std	Y+2, r1	; 0x02
    18cc:	19 82       	std	Y+1, r1	; 0x01

	LCD_DB_DPRT = 0;
    18ce:	81 e2       	ldi	r24, 0x21	; 33
    18d0:	90 e0       	ldi	r25, 0x00	; 0
    18d2:	fc 01       	movw	r30, r24
    18d4:	10 82       	st	Z, r1

	Clrb(LCD_RS_PORT,LCD_RS_PIN);
    18d6:	88 e2       	ldi	r24, 0x28	; 40
    18d8:	90 e0       	ldi	r25, 0x00	; 0
    18da:	28 e2       	ldi	r18, 0x28	; 40
    18dc:	30 e0       	ldi	r19, 0x00	; 0
    18de:	f9 01       	movw	r30, r18
    18e0:	20 81       	ld	r18, Z
    18e2:	2d 7f       	andi	r18, 0xFD	; 253
    18e4:	fc 01       	movw	r30, r24
    18e6:	20 83       	st	Z, r18
	Setb(LCD_WR_PORT,LCD_WR_PIN);
    18e8:	88 e2       	ldi	r24, 0x28	; 40
    18ea:	90 e0       	ldi	r25, 0x00	; 0
    18ec:	28 e2       	ldi	r18, 0x28	; 40
    18ee:	30 e0       	ldi	r19, 0x00	; 0
    18f0:	f9 01       	movw	r30, r18
    18f2:	20 81       	ld	r18, Z
    18f4:	20 61       	ori	r18, 0x10	; 16
    18f6:	fc 01       	movw	r30, r24
    18f8:	20 83       	st	Z, r18
	Clrb(LCD_RD_PORT,LCD_RD_PIN);
    18fa:	88 e2       	ldi	r24, 0x28	; 40
    18fc:	90 e0       	ldi	r25, 0x00	; 0
    18fe:	28 e2       	ldi	r18, 0x28	; 40
    1900:	30 e0       	ldi	r19, 0x00	; 0
    1902:	f9 01       	movw	r30, r18
    1904:	20 81       	ld	r18, Z
    1906:	27 7f       	andi	r18, 0xF7	; 247
    1908:	fc 01       	movw	r30, r24
    190a:	20 83       	st	Z, r18
	Clrb(LCD_CS_PORT,LCD_CS_PIN);
    190c:	88 e2       	ldi	r24, 0x28	; 40
    190e:	90 e0       	ldi	r25, 0x00	; 0
    1910:	28 e2       	ldi	r18, 0x28	; 40
    1912:	30 e0       	ldi	r19, 0x00	; 0
    1914:	f9 01       	movw	r30, r18
    1916:	20 81       	ld	r18, Z
    1918:	2b 7f       	andi	r18, 0xFB	; 251
    191a:	fc 01       	movw	r30, r24
    191c:	20 83       	st	Z, r18

	ins = LCD_DB_PINP;
    191e:	80 e2       	ldi	r24, 0x20	; 32
    1920:	90 e0       	ldi	r25, 0x00	; 0
    1922:	fc 01       	movw	r30, r24
    1924:	80 81       	ld	r24, Z
    1926:	88 2f       	mov	r24, r24
    1928:	90 e0       	ldi	r25, 0x00	; 0
    192a:	9a 83       	std	Y+2, r25	; 0x02
    192c:	89 83       	std	Y+1, r24	; 0x01

	Setb(LCD_CS_PORT,LCD_CS_PIN);
    192e:	88 e2       	ldi	r24, 0x28	; 40
    1930:	90 e0       	ldi	r25, 0x00	; 0
    1932:	28 e2       	ldi	r18, 0x28	; 40
    1934:	30 e0       	ldi	r19, 0x00	; 0
    1936:	f9 01       	movw	r30, r18
    1938:	20 81       	ld	r18, Z
    193a:	24 60       	ori	r18, 0x04	; 4
    193c:	fc 01       	movw	r30, r24
    193e:	20 83       	st	Z, r18

	ins <<= 8;
    1940:	89 81       	ldd	r24, Y+1	; 0x01
    1942:	9a 81       	ldd	r25, Y+2	; 0x02
    1944:	98 2f       	mov	r25, r24
    1946:	88 27       	eor	r24, r24
    1948:	9a 83       	std	Y+2, r25	; 0x02
    194a:	89 83       	std	Y+1, r24	; 0x01

	Clrb(LCD_CS_PORT,LCD_CS_PIN);
    194c:	88 e2       	ldi	r24, 0x28	; 40
    194e:	90 e0       	ldi	r25, 0x00	; 0
    1950:	28 e2       	ldi	r18, 0x28	; 40
    1952:	30 e0       	ldi	r19, 0x00	; 0
    1954:	f9 01       	movw	r30, r18
    1956:	20 81       	ld	r18, Z
    1958:	2b 7f       	andi	r18, 0xFB	; 251
    195a:	fc 01       	movw	r30, r24
    195c:	20 83       	st	Z, r18

	ins |= LCD_DB_PINP;
    195e:	80 e2       	ldi	r24, 0x20	; 32
    1960:	90 e0       	ldi	r25, 0x00	; 0
    1962:	fc 01       	movw	r30, r24
    1964:	80 81       	ld	r24, Z
    1966:	88 2f       	mov	r24, r24
    1968:	90 e0       	ldi	r25, 0x00	; 0
    196a:	29 81       	ldd	r18, Y+1	; 0x01
    196c:	3a 81       	ldd	r19, Y+2	; 0x02
    196e:	82 2b       	or	r24, r18
    1970:	93 2b       	or	r25, r19
    1972:	9a 83       	std	Y+2, r25	; 0x02
    1974:	89 83       	std	Y+1, r24	; 0x01

	Setb(LCD_CS_PORT,LCD_CS_PIN);
    1976:	88 e2       	ldi	r24, 0x28	; 40
    1978:	90 e0       	ldi	r25, 0x00	; 0
    197a:	28 e2       	ldi	r18, 0x28	; 40
    197c:	30 e0       	ldi	r19, 0x00	; 0
    197e:	f9 01       	movw	r30, r18
    1980:	20 81       	ld	r18, Z
    1982:	24 60       	ori	r18, 0x04	; 4
    1984:	fc 01       	movw	r30, r24
    1986:	20 83       	st	Z, r18
	Setb(LCD_RD_PORT,LCD_RD_PIN);
    1988:	88 e2       	ldi	r24, 0x28	; 40
    198a:	90 e0       	ldi	r25, 0x00	; 0
    198c:	28 e2       	ldi	r18, 0x28	; 40
    198e:	30 e0       	ldi	r19, 0x00	; 0
    1990:	f9 01       	movw	r30, r18
    1992:	20 81       	ld	r18, Z
    1994:	28 60       	ori	r18, 0x08	; 8
    1996:	fc 01       	movw	r30, r24
    1998:	20 83       	st	Z, r18

	return (ins);
    199a:	89 81       	ldd	r24, Y+1	; 0x01
    199c:	9a 81       	ldd	r25, Y+2	; 0x02
}
    199e:	0f 90       	pop	r0
    19a0:	0f 90       	pop	r0
    19a2:	cf 91       	pop	r28
    19a4:	df 91       	pop	r29
    19a6:	08 95       	ret

000019a8 <TSLCDReset>:

void TSLCDReset(void) 
{
    19a8:	df 93       	push	r29
    19aa:	cf 93       	push	r28
    19ac:	cd b7       	in	r28, 0x3d	; 61
    19ae:	de b7       	in	r29, 0x3e	; 62
	Orb(LCD_RST_DPRT,LCD_RST_PIN);
    19b0:	87 e2       	ldi	r24, 0x27	; 39
    19b2:	90 e0       	ldi	r25, 0x00	; 0
    19b4:	27 e2       	ldi	r18, 0x27	; 39
    19b6:	30 e0       	ldi	r19, 0x00	; 0
    19b8:	f9 01       	movw	r30, r18
    19ba:	20 81       	ld	r18, Z
    19bc:	21 60       	ori	r18, 0x01	; 1
    19be:	fc 01       	movw	r30, r24
    19c0:	20 83       	st	Z, r18
	Orb(LCD_RS_DPRT,LCD_RS_PIN);
    19c2:	87 e2       	ldi	r24, 0x27	; 39
    19c4:	90 e0       	ldi	r25, 0x00	; 0
    19c6:	27 e2       	ldi	r18, 0x27	; 39
    19c8:	30 e0       	ldi	r19, 0x00	; 0
    19ca:	f9 01       	movw	r30, r18
    19cc:	20 81       	ld	r18, Z
    19ce:	22 60       	ori	r18, 0x02	; 2
    19d0:	fc 01       	movw	r30, r24
    19d2:	20 83       	st	Z, r18
	Orb(LCD_CS_DPRT,LCD_CS_PIN);
    19d4:	87 e2       	ldi	r24, 0x27	; 39
    19d6:	90 e0       	ldi	r25, 0x00	; 0
    19d8:	27 e2       	ldi	r18, 0x27	; 39
    19da:	30 e0       	ldi	r19, 0x00	; 0
    19dc:	f9 01       	movw	r30, r18
    19de:	20 81       	ld	r18, Z
    19e0:	24 60       	ori	r18, 0x04	; 4
    19e2:	fc 01       	movw	r30, r24
    19e4:	20 83       	st	Z, r18
	Orb(LCD_RD_DPRT,LCD_RD_PIN);
    19e6:	87 e2       	ldi	r24, 0x27	; 39
    19e8:	90 e0       	ldi	r25, 0x00	; 0
    19ea:	27 e2       	ldi	r18, 0x27	; 39
    19ec:	30 e0       	ldi	r19, 0x00	; 0
    19ee:	f9 01       	movw	r30, r18
    19f0:	20 81       	ld	r18, Z
    19f2:	28 60       	ori	r18, 0x08	; 8
    19f4:	fc 01       	movw	r30, r24
    19f6:	20 83       	st	Z, r18
	Orb(LCD_WR_DPRT,LCD_WR_PIN);
    19f8:	87 e2       	ldi	r24, 0x27	; 39
    19fa:	90 e0       	ldi	r25, 0x00	; 0
    19fc:	27 e2       	ldi	r18, 0x27	; 39
    19fe:	30 e0       	ldi	r19, 0x00	; 0
    1a00:	f9 01       	movw	r30, r18
    1a02:	20 81       	ld	r18, Z
    1a04:	20 61       	ori	r18, 0x10	; 16
    1a06:	fc 01       	movw	r30, r24
    1a08:	20 83       	st	Z, r18
	Clrb(LCD_RST_PORT,LCD_RST_PIN);
    1a0a:	88 e2       	ldi	r24, 0x28	; 40
    1a0c:	90 e0       	ldi	r25, 0x00	; 0
    1a0e:	28 e2       	ldi	r18, 0x28	; 40
    1a10:	30 e0       	ldi	r19, 0x00	; 0
    1a12:	f9 01       	movw	r30, r18
    1a14:	20 81       	ld	r18, Z
    1a16:	2e 7f       	andi	r18, 0xFE	; 254
    1a18:	fc 01       	movw	r30, r24
    1a1a:	20 83       	st	Z, r18
	delay_ms(50);
    1a1c:	82 e3       	ldi	r24, 0x32	; 50
    1a1e:	90 e0       	ldi	r25, 0x00	; 0
    1a20:	0e 94 a7 06 	call	0xd4e	; 0xd4e <delay_ms>
	Setb(LCD_RST_PORT,LCD_RST_PIN);
    1a24:	88 e2       	ldi	r24, 0x28	; 40
    1a26:	90 e0       	ldi	r25, 0x00	; 0
    1a28:	28 e2       	ldi	r18, 0x28	; 40
    1a2a:	30 e0       	ldi	r19, 0x00	; 0
    1a2c:	f9 01       	movw	r30, r18
    1a2e:	20 81       	ld	r18, Z
    1a30:	21 60       	ori	r18, 0x01	; 1
    1a32:	fc 01       	movw	r30, r24
    1a34:	20 83       	st	Z, r18
	Setb(LCD_CS_PORT,LCD_CS_PIN);
    1a36:	88 e2       	ldi	r24, 0x28	; 40
    1a38:	90 e0       	ldi	r25, 0x00	; 0
    1a3a:	28 e2       	ldi	r18, 0x28	; 40
    1a3c:	30 e0       	ldi	r19, 0x00	; 0
    1a3e:	f9 01       	movw	r30, r18
    1a40:	20 81       	ld	r18, Z
    1a42:	24 60       	ori	r18, 0x04	; 4
    1a44:	fc 01       	movw	r30, r24
    1a46:	20 83       	st	Z, r18
	delay_ms(100);
    1a48:	84 e6       	ldi	r24, 0x64	; 100
    1a4a:	90 e0       	ldi	r25, 0x00	; 0
    1a4c:	0e 94 a7 06 	call	0xd4e	; 0xd4e <delay_ms>
}
    1a50:	cf 91       	pop	r28
    1a52:	df 91       	pop	r29
    1a54:	08 95       	ret

00001a56 <TSLCDInit>:




void TSLCDInit(void) 
{
    1a56:	df 93       	push	r29
    1a58:	cf 93       	push	r28
    1a5a:	cd b7       	in	r28, 0x3d	; 61
    1a5c:	de b7       	in	r29, 0x3e	; 62
	// Driver Code for D51E5TA7601

// 	TSLCDOutInsDat(LCD_START_OSCILLATOR, 		0x0001);
	delay_ms(50);
    1a5e:	82 e3       	ldi	r24, 0x32	; 50
    1a60:	90 e0       	ldi	r25, 0x00	; 0
    1a62:	0e 94 a7 06 	call	0xd4e	; 0xd4e <delay_ms>

	// Display Control
	TSLCDOutInsDat(LCD_DRIVER_OUTPUT_CTRL, 		0x003C);
    1a66:	81 e0       	ldi	r24, 0x01	; 1
    1a68:	90 e0       	ldi	r25, 0x00	; 0
    1a6a:	6c e3       	ldi	r22, 0x3C	; 60
    1a6c:	70 e0       	ldi	r23, 0x00	; 0
    1a6e:	0e 94 ff 0a 	call	0x15fe	; 0x15fe <TSLCDOutInsDat>
	TSLCDOutInsDat(LCD_DRIVING_WAVEFORM_CTRL, 	0x0100);
    1a72:	82 e0       	ldi	r24, 0x02	; 2
    1a74:	90 e0       	ldi	r25, 0x00	; 0
    1a76:	60 e0       	ldi	r22, 0x00	; 0
    1a78:	71 e0       	ldi	r23, 0x01	; 1
    1a7a:	0e 94 ff 0a 	call	0x15fe	; 0x15fe <TSLCDOutInsDat>
	TSLCDOutInsDat(LCD_ENTRY_MODE, 				0x1030);
    1a7e:	83 e0       	ldi	r24, 0x03	; 3
    1a80:	90 e0       	ldi	r25, 0x00	; 0
    1a82:	60 e3       	ldi	r22, 0x30	; 48
    1a84:	70 e1       	ldi	r23, 0x10	; 16
    1a86:	0e 94 ff 0a 	call	0x15fe	; 0x15fe <TSLCDOutInsDat>
	TSLCDOutInsDat(LCD_BLANK_PERIOD_CTRL, 		0x0000);
    1a8a:	88 e0       	ldi	r24, 0x08	; 8
    1a8c:	90 e0       	ldi	r25, 0x00	; 0
    1a8e:	60 e0       	ldi	r22, 0x00	; 0
    1a90:	70 e0       	ldi	r23, 0x00	; 0
    1a92:	0e 94 ff 0a 	call	0x15fe	; 0x15fe <TSLCDOutInsDat>
	TSLCDOutInsDat(LCD_FRAME_CYCLE_CTRL, 		0x0500);
    1a96:	8a e0       	ldi	r24, 0x0A	; 10
    1a98:	90 e0       	ldi	r25, 0x00	; 0
    1a9a:	60 e0       	ldi	r22, 0x00	; 0
    1a9c:	75 e0       	ldi	r23, 0x05	; 5
    1a9e:	0e 94 ff 0a 	call	0x15fe	; 0x15fe <TSLCDOutInsDat>
	TSLCDOutInsDat(LCD_EXT_DISPLAY_INT_CTRL, 	0x0000);
    1aa2:	8b e0       	ldi	r24, 0x0B	; 11
    1aa4:	90 e0       	ldi	r25, 0x00	; 0
    1aa6:	60 e0       	ldi	r22, 0x00	; 0
    1aa8:	70 e0       	ldi	r23, 0x00	; 0
    1aaa:	0e 94 ff 0a 	call	0x15fe	; 0x15fe <TSLCDOutInsDat>
	TSLCDOutInsDat(LCD_INTERFACE_CTRL, 			0x0770);
    1aae:	8c e0       	ldi	r24, 0x0C	; 12
    1ab0:	90 e0       	ldi	r25, 0x00	; 0
    1ab2:	60 e7       	ldi	r22, 0x70	; 112
    1ab4:	77 e0       	ldi	r23, 0x07	; 7
    1ab6:	0e 94 ff 0a 	call	0x15fe	; 0x15fe <TSLCDOutInsDat>
	TSLCDOutInsDat(LCD_GATE_SCAN_POS_CTRL, 		0x0000);
    1aba:	8d e0       	ldi	r24, 0x0D	; 13
    1abc:	90 e0       	ldi	r25, 0x00	; 0
    1abe:	60 e0       	ldi	r22, 0x00	; 0
    1ac0:	70 e0       	ldi	r23, 0x00	; 0
    1ac2:	0e 94 ff 0a 	call	0x15fe	; 0x15fe <TSLCDOutInsDat>
	TSLCDOutInsDat(LCD_FRAME_MARKER_POS, 		0x0001);
    1ac6:	8e e0       	ldi	r24, 0x0E	; 14
    1ac8:	90 e0       	ldi	r25, 0x00	; 0
    1aca:	61 e0       	ldi	r22, 0x01	; 1
    1acc:	70 e0       	ldi	r23, 0x00	; 0
    1ace:	0e 94 ff 0a 	call	0x15fe	; 0x15fe <TSLCDOutInsDat>

	// Power Control
	TSLCDOutInsDat(LCD_POWER_CTRL2,				0x0406);
    1ad2:	81 e1       	ldi	r24, 0x11	; 17
    1ad4:	90 e0       	ldi	r25, 0x00	; 0
    1ad6:	66 e0       	ldi	r22, 0x06	; 6
    1ad8:	74 e0       	ldi	r23, 0x04	; 4
    1ada:	0e 94 ff 0a 	call	0x15fe	; 0x15fe <TSLCDOutInsDat>
	TSLCDOutInsDat(LCD_POWER_CTRL3,				0x000E);
    1ade:	82 e1       	ldi	r24, 0x12	; 18
    1ae0:	90 e0       	ldi	r25, 0x00	; 0
    1ae2:	6e e0       	ldi	r22, 0x0E	; 14
    1ae4:	70 e0       	ldi	r23, 0x00	; 0
    1ae6:	0e 94 ff 0a 	call	0x15fe	; 0x15fe <TSLCDOutInsDat>
	TSLCDOutInsDat(LCD_POWER_CTRL4,				0x0222);
    1aea:	83 e1       	ldi	r24, 0x13	; 19
    1aec:	90 e0       	ldi	r25, 0x00	; 0
    1aee:	62 e2       	ldi	r22, 0x22	; 34
    1af0:	72 e0       	ldi	r23, 0x02	; 2
    1af2:	0e 94 ff 0a 	call	0x15fe	; 0x15fe <TSLCDOutInsDat>
	TSLCDOutInsDat(LCD_POWER_CTRL5,				0x0015);
    1af6:	84 e1       	ldi	r24, 0x14	; 20
    1af8:	90 e0       	ldi	r25, 0x00	; 0
    1afa:	65 e1       	ldi	r22, 0x15	; 21
    1afc:	70 e0       	ldi	r23, 0x00	; 0
    1afe:	0e 94 ff 0a 	call	0x15fe	; 0x15fe <TSLCDOutInsDat>
	TSLCDOutInsDat(LCD_POWER_CTRL6,				0x4277);
    1b02:	85 e1       	ldi	r24, 0x15	; 21
    1b04:	90 e0       	ldi	r25, 0x00	; 0
    1b06:	67 e7       	ldi	r22, 0x77	; 119
    1b08:	72 e4       	ldi	r23, 0x42	; 66
    1b0a:	0e 94 ff 0a 	call	0x15fe	; 0x15fe <TSLCDOutInsDat>
	TSLCDOutInsDat(LCD_POWER_CTRL7,				0x0000);
    1b0e:	86 e1       	ldi	r24, 0x16	; 22
    1b10:	90 e0       	ldi	r25, 0x00	; 0
    1b12:	60 e0       	ldi	r22, 0x00	; 0
    1b14:	70 e0       	ldi	r23, 0x00	; 0
    1b16:	0e 94 ff 0a 	call	0x15fe	; 0x15fe <TSLCDOutInsDat>

	// Gamma Control
	TSLCDOutInsDat(LCD_GAMMA_CTRL9,				0x6A50);
    1b1a:	80 e3       	ldi	r24, 0x30	; 48
    1b1c:	90 e0       	ldi	r25, 0x00	; 0
    1b1e:	60 e5       	ldi	r22, 0x50	; 80
    1b20:	7a e6       	ldi	r23, 0x6A	; 106
    1b22:	0e 94 ff 0a 	call	0x15fe	; 0x15fe <TSLCDOutInsDat>
	TSLCDOutInsDat(LCD_GAMMA_CTRL10,			0x00C9);
    1b26:	81 e3       	ldi	r24, 0x31	; 49
    1b28:	90 e0       	ldi	r25, 0x00	; 0
    1b2a:	69 ec       	ldi	r22, 0xC9	; 201
    1b2c:	70 e0       	ldi	r23, 0x00	; 0
    1b2e:	0e 94 ff 0a 	call	0x15fe	; 0x15fe <TSLCDOutInsDat>
	TSLCDOutInsDat(LCD_GAMMA_CTRL11,			0xC7BE);
    1b32:	82 e3       	ldi	r24, 0x32	; 50
    1b34:	90 e0       	ldi	r25, 0x00	; 0
    1b36:	6e eb       	ldi	r22, 0xBE	; 190
    1b38:	77 ec       	ldi	r23, 0xC7	; 199
    1b3a:	0e 94 ff 0a 	call	0x15fe	; 0x15fe <TSLCDOutInsDat>
	TSLCDOutInsDat(LCD_GAMMA_CTRL12,			0x0003);
    1b3e:	83 e3       	ldi	r24, 0x33	; 51
    1b40:	90 e0       	ldi	r25, 0x00	; 0
    1b42:	63 e0       	ldi	r22, 0x03	; 3
    1b44:	70 e0       	ldi	r23, 0x00	; 0
    1b46:	0e 94 ff 0a 	call	0x15fe	; 0x15fe <TSLCDOutInsDat>
	TSLCDOutInsDat(LCD_GAMMA_CTRL15,			0x3443);
    1b4a:	86 e3       	ldi	r24, 0x36	; 54
    1b4c:	90 e0       	ldi	r25, 0x00	; 0
    1b4e:	63 e4       	ldi	r22, 0x43	; 67
    1b50:	74 e3       	ldi	r23, 0x34	; 52
    1b52:	0e 94 ff 0a 	call	0x15fe	; 0x15fe <TSLCDOutInsDat>
	TSLCDOutInsDat(LCD_GAMMA_CTRL20,			0x0000);
    1b56:	8b e3       	ldi	r24, 0x3B	; 59
    1b58:	90 e0       	ldi	r25, 0x00	; 0
    1b5a:	60 e0       	ldi	r22, 0x00	; 0
    1b5c:	70 e0       	ldi	r23, 0x00	; 0
    1b5e:	0e 94 ff 0a 	call	0x15fe	; 0x15fe <TSLCDOutInsDat>
	TSLCDOutInsDat(LCD_GAMMA_CTRL21,			0x0000);
    1b62:	8c e3       	ldi	r24, 0x3C	; 60
    1b64:	90 e0       	ldi	r25, 0x00	; 0
    1b66:	60 e0       	ldi	r22, 0x00	; 0
    1b68:	70 e0       	ldi	r23, 0x00	; 0
    1b6a:	0e 94 ff 0a 	call	0x15fe	; 0x15fe <TSLCDOutInsDat>
	TSLCDOutInsDat(LCD_GAMMA_CTRL5,				0x6A50);
    1b6e:	8c e2       	ldi	r24, 0x2C	; 44
    1b70:	90 e0       	ldi	r25, 0x00	; 0
    1b72:	60 e5       	ldi	r22, 0x50	; 80
    1b74:	7a e6       	ldi	r23, 0x6A	; 106
    1b76:	0e 94 ff 0a 	call	0x15fe	; 0x15fe <TSLCDOutInsDat>
	TSLCDOutInsDat(LCD_GAMMA_CTRL6,				0x00C9);
    1b7a:	8d e2       	ldi	r24, 0x2D	; 45
    1b7c:	90 e0       	ldi	r25, 0x00	; 0
    1b7e:	69 ec       	ldi	r22, 0xC9	; 201
    1b80:	70 e0       	ldi	r23, 0x00	; 0
    1b82:	0e 94 ff 0a 	call	0x15fe	; 0x15fe <TSLCDOutInsDat>
	TSLCDOutInsDat(LCD_GAMMA_CTRL7,				0xC7BE);
    1b86:	8e e2       	ldi	r24, 0x2E	; 46
    1b88:	90 e0       	ldi	r25, 0x00	; 0
    1b8a:	6e eb       	ldi	r22, 0xBE	; 190
    1b8c:	77 ec       	ldi	r23, 0xC7	; 199
    1b8e:	0e 94 ff 0a 	call	0x15fe	; 0x15fe <TSLCDOutInsDat>
	TSLCDOutInsDat(LCD_GAMMA_CTRL8,				0x0003);
    1b92:	8f e2       	ldi	r24, 0x2F	; 47
    1b94:	90 e0       	ldi	r25, 0x00	; 0
    1b96:	63 e0       	ldi	r22, 0x03	; 3
    1b98:	70 e0       	ldi	r23, 0x00	; 0
    1b9a:	0e 94 ff 0a 	call	0x15fe	; 0x15fe <TSLCDOutInsDat>
	TSLCDOutInsDat(LCD_GAMMA_CTRL14,			0x3443);
    1b9e:	85 e3       	ldi	r24, 0x35	; 53
    1ba0:	90 e0       	ldi	r25, 0x00	; 0
    1ba2:	63 e4       	ldi	r22, 0x43	; 67
    1ba4:	74 e3       	ldi	r23, 0x34	; 52
    1ba6:	0e 94 ff 0a 	call	0x15fe	; 0x15fe <TSLCDOutInsDat>
	TSLCDOutInsDat(LCD_GAMMA_CTRL18,			0x0000);
    1baa:	89 e3       	ldi	r24, 0x39	; 57
    1bac:	90 e0       	ldi	r25, 0x00	; 0
    1bae:	60 e0       	ldi	r22, 0x00	; 0
    1bb0:	70 e0       	ldi	r23, 0x00	; 0
    1bb2:	0e 94 ff 0a 	call	0x15fe	; 0x15fe <TSLCDOutInsDat>
	TSLCDOutInsDat(LCD_GAMMA_CTRL19,			0x0000);
    1bb6:	8a e3       	ldi	r24, 0x3A	; 58
    1bb8:	90 e0       	ldi	r25, 0x00	; 0
    1bba:	60 e0       	ldi	r22, 0x00	; 0
    1bbc:	70 e0       	ldi	r23, 0x00	; 0
    1bbe:	0e 94 ff 0a 	call	0x15fe	; 0x15fe <TSLCDOutInsDat>
	TSLCDOutInsDat(LCD_GAMMA_CTRL1,				0x6A50);
    1bc2:	88 e2       	ldi	r24, 0x28	; 40
    1bc4:	90 e0       	ldi	r25, 0x00	; 0
    1bc6:	60 e5       	ldi	r22, 0x50	; 80
    1bc8:	7a e6       	ldi	r23, 0x6A	; 106
    1bca:	0e 94 ff 0a 	call	0x15fe	; 0x15fe <TSLCDOutInsDat>
	TSLCDOutInsDat(LCD_GAMMA_CTRL2,				0x00C9);
    1bce:	89 e2       	ldi	r24, 0x29	; 41
    1bd0:	90 e0       	ldi	r25, 0x00	; 0
    1bd2:	69 ec       	ldi	r22, 0xC9	; 201
    1bd4:	70 e0       	ldi	r23, 0x00	; 0
    1bd6:	0e 94 ff 0a 	call	0x15fe	; 0x15fe <TSLCDOutInsDat>
	TSLCDOutInsDat(LCD_GAMMA_CTRL3,				0xC7BE);
    1bda:	8a e2       	ldi	r24, 0x2A	; 42
    1bdc:	90 e0       	ldi	r25, 0x00	; 0
    1bde:	6e eb       	ldi	r22, 0xBE	; 190
    1be0:	77 ec       	ldi	r23, 0xC7	; 199
    1be2:	0e 94 ff 0a 	call	0x15fe	; 0x15fe <TSLCDOutInsDat>
	TSLCDOutInsDat(LCD_GAMMA_CTRL4,				0x0003);
    1be6:	8b e2       	ldi	r24, 0x2B	; 43
    1be8:	90 e0       	ldi	r25, 0x00	; 0
    1bea:	63 e0       	ldi	r22, 0x03	; 3
    1bec:	70 e0       	ldi	r23, 0x00	; 0
    1bee:	0e 94 ff 0a 	call	0x15fe	; 0x15fe <TSLCDOutInsDat>
	TSLCDOutInsDat(LCD_GAMMA_CTRL13,			0x3443);
    1bf2:	84 e3       	ldi	r24, 0x34	; 52
    1bf4:	90 e0       	ldi	r25, 0x00	; 0
    1bf6:	63 e4       	ldi	r22, 0x43	; 67
    1bf8:	74 e3       	ldi	r23, 0x34	; 52
    1bfa:	0e 94 ff 0a 	call	0x15fe	; 0x15fe <TSLCDOutInsDat>
	TSLCDOutInsDat(LCD_GAMMA_CTRL16,			0x0000);
    1bfe:	87 e3       	ldi	r24, 0x37	; 55
    1c00:	90 e0       	ldi	r25, 0x00	; 0
    1c02:	60 e0       	ldi	r22, 0x00	; 0
    1c04:	70 e0       	ldi	r23, 0x00	; 0
    1c06:	0e 94 ff 0a 	call	0x15fe	; 0x15fe <TSLCDOutInsDat>
	TSLCDOutInsDat(LCD_GAMMA_CTRL17,			0x0000);
    1c0a:	88 e3       	ldi	r24, 0x38	; 56
    1c0c:	90 e0       	ldi	r25, 0x00	; 0
    1c0e:	60 e0       	ldi	r22, 0x00	; 0
    1c10:	70 e0       	ldi	r23, 0x00	; 0
    1c12:	0e 94 ff 0a 	call	0x15fe	; 0x15fe <TSLCDOutInsDat>
	delay_ms(20);
    1c16:	84 e1       	ldi	r24, 0x14	; 20
    1c18:	90 e0       	ldi	r25, 0x00	; 0
    1c1a:	0e 94 a7 06 	call	0xd4e	; 0xd4e <delay_ms>

	// Power Control 
	TSLCDOutInsDat(LCD_POWER_CTRL3,				0x200E);
    1c1e:	82 e1       	ldi	r24, 0x12	; 18
    1c20:	90 e0       	ldi	r25, 0x00	; 0
    1c22:	6e e0       	ldi	r22, 0x0E	; 14
    1c24:	70 e2       	ldi	r23, 0x20	; 32
    1c26:	0e 94 ff 0a 	call	0x15fe	; 0x15fe <TSLCDOutInsDat>
	delay_ms(160);
    1c2a:	80 ea       	ldi	r24, 0xA0	; 160
    1c2c:	90 e0       	ldi	r25, 0x00	; 0
    1c2e:	0e 94 a7 06 	call	0xd4e	; 0xd4e <delay_ms>
	TSLCDOutInsDat(LCD_POWER_CTRL3,				0x2003);
    1c32:	82 e1       	ldi	r24, 0x12	; 18
    1c34:	90 e0       	ldi	r25, 0x00	; 0
    1c36:	63 e0       	ldi	r22, 0x03	; 3
    1c38:	70 e2       	ldi	r23, 0x20	; 32
    1c3a:	0e 94 ff 0a 	call	0x15fe	; 0x15fe <TSLCDOutInsDat>
	delay_ms(40);
    1c3e:	88 e2       	ldi	r24, 0x28	; 40
    1c40:	90 e0       	ldi	r25, 0x00	; 0
    1c42:	0e 94 a7 06 	call	0xd4e	; 0xd4e <delay_ms>
	//Partial Screen1
//	TSLCDOutInsDat(LCD_PART_IMG1_START_AD,		0x0000);
//	TSLCDOutInsDat(LCD_PART_IMG1_END_AD,		0x00F0);

	// RAM Adddress Position
	TSLCDOutInsDat(LCD_HOR_END_AD,				0x013F);
    1c46:	84 e4       	ldi	r24, 0x44	; 68
    1c48:	90 e0       	ldi	r25, 0x00	; 0
    1c4a:	6f e3       	ldi	r22, 0x3F	; 63
    1c4c:	71 e0       	ldi	r23, 0x01	; 1
    1c4e:	0e 94 ff 0a 	call	0x15fe	; 0x15fe <TSLCDOutInsDat>
	TSLCDOutInsDat(LCD_HOR_START_AD,			0x0000);
    1c52:	85 e4       	ldi	r24, 0x45	; 69
    1c54:	90 e0       	ldi	r25, 0x00	; 0
    1c56:	60 e0       	ldi	r22, 0x00	; 0
    1c58:	70 e0       	ldi	r23, 0x00	; 0
    1c5a:	0e 94 ff 0a 	call	0x15fe	; 0x15fe <TSLCDOutInsDat>
	TSLCDOutInsDat(LCD_VER_END_AD,				0x01DF);
    1c5e:	86 e4       	ldi	r24, 0x46	; 70
    1c60:	90 e0       	ldi	r25, 0x00	; 0
    1c62:	6f ed       	ldi	r22, 0xDF	; 223
    1c64:	71 e0       	ldi	r23, 0x01	; 1
    1c66:	0e 94 ff 0a 	call	0x15fe	; 0x15fe <TSLCDOutInsDat>
	TSLCDOutInsDat(LCD_VER_START_AD,			0x0000);
    1c6a:	87 e4       	ldi	r24, 0x47	; 71
    1c6c:	90 e0       	ldi	r25, 0x00	; 0
    1c6e:	60 e0       	ldi	r22, 0x00	; 0
    1c70:	70 e0       	ldi	r23, 0x00	; 0
    1c72:	0e 94 ff 0a 	call	0x15fe	; 0x15fe <TSLCDOutInsDat>
	TSLCDOutInsDat(LCD_GRAM_VER_AD,				0x0000);
    1c76:	80 e2       	ldi	r24, 0x20	; 32
    1c78:	90 e0       	ldi	r25, 0x00	; 0
    1c7a:	60 e0       	ldi	r22, 0x00	; 0
    1c7c:	70 e0       	ldi	r23, 0x00	; 0
    1c7e:	0e 94 ff 0a 	call	0x15fe	; 0x15fe <TSLCDOutInsDat>
	TSLCDOutInsDat(LCD_GRAM_HOR_AD,				0x013F);
    1c82:	81 e2       	ldi	r24, 0x21	; 33
    1c84:	90 e0       	ldi	r25, 0x00	; 0
    1c86:	6f e3       	ldi	r22, 0x3F	; 63
    1c88:	71 e0       	ldi	r23, 0x01	; 1
    1c8a:	0e 94 ff 0a 	call	0x15fe	; 0x15fe <TSLCDOutInsDat>

	// Back Light Control
	TSLCDOutInsDat(LCD_OTP_CABC_CTRL,			0x0200); 
    1c8e:	87 e6       	ldi	r24, 0x67	; 103
    1c90:	90 e0       	ldi	r25, 0x00	; 0
    1c92:	60 e0       	ldi	r22, 0x00	; 0
    1c94:	72 e0       	ldi	r23, 0x02	; 2
    1c96:	0e 94 ff 0a 	call	0x15fe	; 0x15fe <TSLCDOutInsDat>
	// For still image, choose the code below
	TSLCDOutInsDat(LCD_DISPLAY_CTRL1,			0x7000); 
    1c9a:	84 e0       	ldi	r24, 0x04	; 4
    1c9c:	90 e0       	ldi	r25, 0x00	; 0
    1c9e:	60 e0       	ldi	r22, 0x00	; 0
    1ca0:	70 e7       	ldi	r23, 0x70	; 112
    1ca2:	0e 94 ff 0a 	call	0x15fe	; 0x15fe <TSLCDOutInsDat>
	TSLCDOutInsDat(LCD_DISPLAY_CTRL2,			0x0002); 
    1ca6:	85 e0       	ldi	r24, 0x05	; 5
    1ca8:	90 e0       	ldi	r25, 0x00	; 0
    1caa:	62 e0       	ldi	r22, 0x02	; 2
    1cac:	70 e0       	ldi	r23, 0x00	; 0
    1cae:	0e 94 ff 0a 	call	0x15fe	; 0x15fe <TSLCDOutInsDat>
	TSLCDOutInsDat(LCD_SMLC_IMG_BR_LEVEL1,		0x4B90); 
    1cb2:	88 e4       	ldi	r24, 0x48	; 72
    1cb4:	90 e0       	ldi	r25, 0x00	; 0
    1cb6:	60 e9       	ldi	r22, 0x90	; 144
    1cb8:	7b e4       	ldi	r23, 0x4B	; 75
    1cba:	0e 94 ff 0a 	call	0x15fe	; 0x15fe <TSLCDOutInsDat>
	TSLCDOutInsDat(LCD_SMLC_IMG_BR_LEVEL2,		0x95A0);
    1cbe:	89 e4       	ldi	r24, 0x49	; 73
    1cc0:	90 e0       	ldi	r25, 0x00	; 0
    1cc2:	60 ea       	ldi	r22, 0xA0	; 160
    1cc4:	75 e9       	ldi	r23, 0x95	; 149
    1cc6:	0e 94 ff 0a 	call	0x15fe	; 0x15fe <TSLCDOutInsDat>
	TSLCDOutInsDat(LCD_SMLC_IMG_BR_LEVEL3,		0xA0AC);
    1cca:	8a e4       	ldi	r24, 0x4A	; 74
    1ccc:	90 e0       	ldi	r25, 0x00	; 0
    1cce:	6c ea       	ldi	r22, 0xAC	; 172
    1cd0:	70 ea       	ldi	r23, 0xA0	; 160
    1cd2:	0e 94 ff 0a 	call	0x15fe	; 0x15fe <TSLCDOutInsDat>
	TSLCDOutInsDat(LCD_SMLC_IMG_BR_LEVEL4,		0xB5CE);
    1cd6:	8b e4       	ldi	r24, 0x4B	; 75
    1cd8:	90 e0       	ldi	r25, 0x00	; 0
    1cda:	6e ec       	ldi	r22, 0xCE	; 206
    1cdc:	75 eb       	ldi	r23, 0xB5	; 181
    1cde:	0e 94 ff 0a 	call	0x15fe	; 0x15fe <TSLCDOutInsDat>
	// For motion picture, choose the line below
//	TSLCDOutInsDat(LCD_DISPLAY_CTRL1,			0x40FF);

	// Display Control
	TSLCDOutInsDat(LCD_DISPLAY_CTRL4,			0x0012);
    1ce2:	87 e0       	ldi	r24, 0x07	; 7
    1ce4:	90 e0       	ldi	r25, 0x00	; 0
    1ce6:	62 e1       	ldi	r22, 0x12	; 18
    1ce8:	70 e0       	ldi	r23, 0x00	; 0
    1cea:	0e 94 ff 0a 	call	0x15fe	; 0x15fe <TSLCDOutInsDat>
	delay_ms(40);
    1cee:	88 e2       	ldi	r24, 0x28	; 40
    1cf0:	90 e0       	ldi	r25, 0x00	; 0
    1cf2:	0e 94 a7 06 	call	0xd4e	; 0xd4e <delay_ms>
	TSLCDOutInsDat(LCD_DISPLAY_CTRL4,			0x0017);
    1cf6:	87 e0       	ldi	r24, 0x07	; 7
    1cf8:	90 e0       	ldi	r25, 0x00	; 0
    1cfa:	67 e1       	ldi	r22, 0x17	; 23
    1cfc:	70 e0       	ldi	r23, 0x00	; 0
    1cfe:	0e 94 ff 0a 	call	0x15fe	; 0x15fe <TSLCDOutInsDat>
}
    1d02:	cf 91       	pop	r28
    1d04:	df 91       	pop	r29
    1d06:	08 95       	ret

00001d08 <TSLCDSetOffset>:

void TSLCDSetOffset(int x, int y)
{
    1d08:	df 93       	push	r29
    1d0a:	cf 93       	push	r28
    1d0c:	00 d0       	rcall	.+0      	; 0x1d0e <TSLCDSetOffset+0x6>
    1d0e:	00 d0       	rcall	.+0      	; 0x1d10 <TSLCDSetOffset+0x8>
    1d10:	cd b7       	in	r28, 0x3d	; 61
    1d12:	de b7       	in	r29, 0x3e	; 62
    1d14:	9a 83       	std	Y+2, r25	; 0x02
    1d16:	89 83       	std	Y+1, r24	; 0x01
    1d18:	7c 83       	std	Y+4, r23	; 0x04
    1d1a:	6b 83       	std	Y+3, r22	; 0x03
	offsetx = x;
    1d1c:	89 81       	ldd	r24, Y+1	; 0x01
    1d1e:	9a 81       	ldd	r25, Y+2	; 0x02
    1d20:	90 93 33 01 	sts	0x0133, r25
    1d24:	80 93 32 01 	sts	0x0132, r24
	offsety = y;
    1d28:	8b 81       	ldd	r24, Y+3	; 0x03
    1d2a:	9c 81       	ldd	r25, Y+4	; 0x04
    1d2c:	90 93 1f 01 	sts	0x011F, r25
    1d30:	80 93 1e 01 	sts	0x011E, r24
}
    1d34:	0f 90       	pop	r0
    1d36:	0f 90       	pop	r0
    1d38:	0f 90       	pop	r0
    1d3a:	0f 90       	pop	r0
    1d3c:	cf 91       	pop	r28
    1d3e:	df 91       	pop	r29
    1d40:	08 95       	ret

00001d42 <TSLCDSetForeColor>:


void TSLCDSetForeColor(unsigned short color) 
{
    1d42:	df 93       	push	r29
    1d44:	cf 93       	push	r28
    1d46:	00 d0       	rcall	.+0      	; 0x1d48 <TSLCDSetForeColor+0x6>
    1d48:	cd b7       	in	r28, 0x3d	; 61
    1d4a:	de b7       	in	r29, 0x3e	; 62
    1d4c:	9a 83       	std	Y+2, r25	; 0x02
    1d4e:	89 83       	std	Y+1, r24	; 0x01
	fore_color = color;
    1d50:	89 81       	ldd	r24, Y+1	; 0x01
    1d52:	9a 81       	ldd	r25, Y+2	; 0x02
    1d54:	90 93 35 01 	sts	0x0135, r25
    1d58:	80 93 34 01 	sts	0x0134, r24
}
    1d5c:	0f 90       	pop	r0
    1d5e:	0f 90       	pop	r0
    1d60:	cf 91       	pop	r28
    1d62:	df 91       	pop	r29
    1d64:	08 95       	ret

00001d66 <TSLCDSetBackColor>:


void TSLCDSetBackColor(unsigned short color) 
{
    1d66:	df 93       	push	r29
    1d68:	cf 93       	push	r28
    1d6a:	00 d0       	rcall	.+0      	; 0x1d6c <TSLCDSetBackColor+0x6>
    1d6c:	cd b7       	in	r28, 0x3d	; 61
    1d6e:	de b7       	in	r29, 0x3e	; 62
    1d70:	9a 83       	std	Y+2, r25	; 0x02
    1d72:	89 83       	std	Y+1, r24	; 0x01
	back_color = color;
    1d74:	89 81       	ldd	r24, Y+1	; 0x01
    1d76:	9a 81       	ldd	r25, Y+2	; 0x02
    1d78:	90 93 31 01 	sts	0x0131, r25
    1d7c:	80 93 30 01 	sts	0x0130, r24
}
    1d80:	0f 90       	pop	r0
    1d82:	0f 90       	pop	r0
    1d84:	cf 91       	pop	r28
    1d86:	df 91       	pop	r29
    1d88:	08 95       	ret

00001d8a <TSLCDShowPic>:

void TSLCDShowPic(int sx,int ex,int sy,int ey,const unsigned short *pic,ts_mode_t mode)
//show picture from code memory with specific size
{
    1d8a:	ef 92       	push	r14
    1d8c:	ff 92       	push	r15
    1d8e:	0f 93       	push	r16
    1d90:	1f 93       	push	r17
    1d92:	df 93       	push	r29
    1d94:	cf 93       	push	r28
    1d96:	cd b7       	in	r28, 0x3d	; 61
    1d98:	de b7       	in	r29, 0x3e	; 62
    1d9a:	a1 97       	sbiw	r28, 0x21	; 33
    1d9c:	0f b6       	in	r0, 0x3f	; 63
    1d9e:	f8 94       	cli
    1da0:	de bf       	out	0x3e, r29	; 62
    1da2:	0f be       	out	0x3f, r0	; 63
    1da4:	cd bf       	out	0x3d, r28	; 61
    1da6:	98 8f       	std	Y+24, r25	; 0x18
    1da8:	8f 8b       	std	Y+23, r24	; 0x17
    1daa:	7a 8f       	std	Y+26, r23	; 0x1a
    1dac:	69 8f       	std	Y+25, r22	; 0x19
    1dae:	5c 8f       	std	Y+28, r21	; 0x1c
    1db0:	4b 8f       	std	Y+27, r20	; 0x1b
    1db2:	3e 8f       	std	Y+30, r19	; 0x1e
    1db4:	2d 8f       	std	Y+29, r18	; 0x1d
    1db6:	18 a3       	std	Y+32, r17	; 0x20
    1db8:	0f 8f       	std	Y+31, r16	; 0x1f
    1dba:	e9 a2       	std	Y+33, r14	; 0x21
	unsigned long k = 0;
    1dbc:	19 82       	std	Y+1, r1	; 0x01
    1dbe:	1a 82       	std	Y+2, r1	; 0x02
    1dc0:	1b 82       	std	Y+3, r1	; 0x03
    1dc2:	1c 82       	std	Y+4, r1	; 0x04
	unsigned short color;
	unsigned int i,j;

    TSLCDSetWindow(sx, ex, sy, ey);
    1dc4:	8f 89       	ldd	r24, Y+23	; 0x17
    1dc6:	98 8d       	ldd	r25, Y+24	; 0x18
    1dc8:	69 8d       	ldd	r22, Y+25	; 0x19
    1dca:	7a 8d       	ldd	r23, Y+26	; 0x1a
    1dcc:	4b 8d       	ldd	r20, Y+27	; 0x1b
    1dce:	5c 8d       	ldd	r21, Y+28	; 0x1c
    1dd0:	2d 8d       	ldd	r18, Y+29	; 0x1d
    1dd2:	3e 8d       	ldd	r19, Y+30	; 0x1e
    1dd4:	0e 94 b4 0a 	call	0x1568	; 0x1568 <TSLCDSetWindow>
	TSLCDOutIns(LCD_RW_GRAM);
    1dd8:	82 e2       	ldi	r24, 0x22	; 34
    1dda:	90 e0       	ldi	r25, 0x00	; 0
    1ddc:	0e 94 82 0b 	call	0x1704	; 0x1704 <TSLCDOutIns>

	switch(mode)
    1de0:	89 a1       	ldd	r24, Y+33	; 0x21
    1de2:	88 2f       	mov	r24, r24
    1de4:	90 e0       	ldi	r25, 0x00	; 0
    1de6:	81 30       	cpi	r24, 0x01	; 1
    1de8:	91 05       	cpc	r25, r1
    1dea:	09 f4       	brne	.+2      	; 0x1dee <TSLCDShowPic+0x64>
    1dec:	d8 c0       	rjmp	.+432    	; 0x1f9e <TSLCDShowPic+0x214>
    1dee:	82 30       	cpi	r24, 0x02	; 2
    1df0:	91 05       	cpc	r25, r1
    1df2:	21 f0       	breq	.+8      	; 0x1dfc <TSLCDShowPic+0x72>
    1df4:	00 97       	sbiw	r24, 0x00	; 0
    1df6:	09 f4       	brne	.+2      	; 0x1dfa <TSLCDShowPic+0x70>
    1df8:	55 c0       	rjmp	.+170    	; 0x1ea4 <TSLCDShowPic+0x11a>
    1dfa:	d2 c0       	rjmp	.+420    	; 0x1fa0 <TSLCDShowPic+0x216>
	{
		case TS_MODE_FULL:
			for (j=0; j < ey - sy + 1; j++)
    1dfc:	18 86       	std	Y+8, r1	; 0x08
    1dfe:	1f 82       	std	Y+7, r1	; 0x07
    1e00:	40 c0       	rjmp	.+128    	; 0x1e82 <TSLCDShowPic+0xf8>
				for (i=0; i < ex - sx + 1; i++)
    1e02:	1e 82       	std	Y+6, r1	; 0x06
    1e04:	1d 82       	std	Y+5, r1	; 0x05
    1e06:	29 c0       	rjmp	.+82     	; 0x1e5a <TSLCDShowPic+0xd0>
				{
					TSLCDOutDat(pgm_read_word(&pic[k]));
    1e08:	89 81       	ldd	r24, Y+1	; 0x01
    1e0a:	9a 81       	ldd	r25, Y+2	; 0x02
    1e0c:	88 0f       	add	r24, r24
    1e0e:	99 1f       	adc	r25, r25
    1e10:	2f 8d       	ldd	r18, Y+31	; 0x1f
    1e12:	38 a1       	ldd	r19, Y+32	; 0x20
    1e14:	82 0f       	add	r24, r18
    1e16:	93 1f       	adc	r25, r19
    1e18:	9a 87       	std	Y+10, r25	; 0x0a
    1e1a:	89 87       	std	Y+9, r24	; 0x09
    1e1c:	89 85       	ldd	r24, Y+9	; 0x09
    1e1e:	9a 85       	ldd	r25, Y+10	; 0x0a
    1e20:	8c 01       	movw	r16, r24
    1e22:	f8 01       	movw	r30, r16
    1e24:	e5 90       	lpm	r14, Z+
    1e26:	f4 90       	lpm	r15, Z+
    1e28:	8f 01       	movw	r16, r30
    1e2a:	fc 86       	std	Y+12, r15	; 0x0c
    1e2c:	eb 86       	std	Y+11, r14	; 0x0b
    1e2e:	1a 87       	std	Y+10, r17	; 0x0a
    1e30:	09 87       	std	Y+9, r16	; 0x09
    1e32:	8b 85       	ldd	r24, Y+11	; 0x0b
    1e34:	9c 85       	ldd	r25, Y+12	; 0x0c
    1e36:	0e 94 18 0b 	call	0x1630	; 0x1630 <TSLCDOutDat>
					k++;
    1e3a:	89 81       	ldd	r24, Y+1	; 0x01
    1e3c:	9a 81       	ldd	r25, Y+2	; 0x02
    1e3e:	ab 81       	ldd	r26, Y+3	; 0x03
    1e40:	bc 81       	ldd	r27, Y+4	; 0x04
    1e42:	01 96       	adiw	r24, 0x01	; 1
    1e44:	a1 1d       	adc	r26, r1
    1e46:	b1 1d       	adc	r27, r1
    1e48:	89 83       	std	Y+1, r24	; 0x01
    1e4a:	9a 83       	std	Y+2, r25	; 0x02
    1e4c:	ab 83       	std	Y+3, r26	; 0x03
    1e4e:	bc 83       	std	Y+4, r27	; 0x04

	switch(mode)
	{
		case TS_MODE_FULL:
			for (j=0; j < ey - sy + 1; j++)
				for (i=0; i < ex - sx + 1; i++)
    1e50:	8d 81       	ldd	r24, Y+5	; 0x05
    1e52:	9e 81       	ldd	r25, Y+6	; 0x06
    1e54:	01 96       	adiw	r24, 0x01	; 1
    1e56:	9e 83       	std	Y+6, r25	; 0x06
    1e58:	8d 83       	std	Y+5, r24	; 0x05
    1e5a:	29 8d       	ldd	r18, Y+25	; 0x19
    1e5c:	3a 8d       	ldd	r19, Y+26	; 0x1a
    1e5e:	8f 89       	ldd	r24, Y+23	; 0x17
    1e60:	98 8d       	ldd	r25, Y+24	; 0x18
    1e62:	a9 01       	movw	r20, r18
    1e64:	48 1b       	sub	r20, r24
    1e66:	59 0b       	sbc	r21, r25
    1e68:	ca 01       	movw	r24, r20
    1e6a:	01 96       	adiw	r24, 0x01	; 1
    1e6c:	9c 01       	movw	r18, r24
    1e6e:	8d 81       	ldd	r24, Y+5	; 0x05
    1e70:	9e 81       	ldd	r25, Y+6	; 0x06
    1e72:	82 17       	cp	r24, r18
    1e74:	93 07       	cpc	r25, r19
    1e76:	40 f2       	brcs	.-112    	; 0x1e08 <TSLCDShowPic+0x7e>
	TSLCDOutIns(LCD_RW_GRAM);

	switch(mode)
	{
		case TS_MODE_FULL:
			for (j=0; j < ey - sy + 1; j++)
    1e78:	8f 81       	ldd	r24, Y+7	; 0x07
    1e7a:	98 85       	ldd	r25, Y+8	; 0x08
    1e7c:	01 96       	adiw	r24, 0x01	; 1
    1e7e:	98 87       	std	Y+8, r25	; 0x08
    1e80:	8f 83       	std	Y+7, r24	; 0x07
    1e82:	2d 8d       	ldd	r18, Y+29	; 0x1d
    1e84:	3e 8d       	ldd	r19, Y+30	; 0x1e
    1e86:	8b 8d       	ldd	r24, Y+27	; 0x1b
    1e88:	9c 8d       	ldd	r25, Y+28	; 0x1c
    1e8a:	f9 01       	movw	r30, r18
    1e8c:	e8 1b       	sub	r30, r24
    1e8e:	f9 0b       	sbc	r31, r25
    1e90:	cf 01       	movw	r24, r30
    1e92:	01 96       	adiw	r24, 0x01	; 1
    1e94:	9c 01       	movw	r18, r24
    1e96:	8f 81       	ldd	r24, Y+7	; 0x07
    1e98:	98 85       	ldd	r25, Y+8	; 0x08
    1e9a:	82 17       	cp	r24, r18
    1e9c:	93 07       	cpc	r25, r19
    1e9e:	08 f4       	brcc	.+2      	; 0x1ea2 <TSLCDShowPic+0x118>
    1ea0:	b0 cf       	rjmp	.-160    	; 0x1e02 <TSLCDShowPic+0x78>
				for (i=0; i < ex - sx + 1; i++)
				{
					TSLCDOutDat(pgm_read_word(&pic[k]));
					k++;
				}
			break;
    1ea2:	7e c0       	rjmp	.+252    	; 0x1fa0 <TSLCDShowPic+0x216>
		case TS_MODE_NORMAL:
			for (j=0; j < ey - sy + 1; j++)
    1ea4:	18 86       	std	Y+8, r1	; 0x08
    1ea6:	1f 82       	std	Y+7, r1	; 0x07
    1ea8:	69 c0       	rjmp	.+210    	; 0x1f7c <TSLCDShowPic+0x1f2>
				for (i=0; i < ex - sx + 1; i++)
    1eaa:	1e 82       	std	Y+6, r1	; 0x06
    1eac:	1d 82       	std	Y+5, r1	; 0x05
    1eae:	51 c0       	rjmp	.+162    	; 0x1f52 <TSLCDShowPic+0x1c8>
				{
					if (pgm_read_word(&pic[k]) == TS_COL_WHITE)
    1eb0:	89 81       	ldd	r24, Y+1	; 0x01
    1eb2:	9a 81       	ldd	r25, Y+2	; 0x02
    1eb4:	88 0f       	add	r24, r24
    1eb6:	99 1f       	adc	r25, r25
    1eb8:	2f 8d       	ldd	r18, Y+31	; 0x1f
    1eba:	38 a1       	ldd	r19, Y+32	; 0x20
    1ebc:	82 0f       	add	r24, r18
    1ebe:	93 1f       	adc	r25, r19
    1ec0:	9e 87       	std	Y+14, r25	; 0x0e
    1ec2:	8d 87       	std	Y+13, r24	; 0x0d
    1ec4:	8d 85       	ldd	r24, Y+13	; 0x0d
    1ec6:	9e 85       	ldd	r25, Y+14	; 0x0e
    1ec8:	8c 01       	movw	r16, r24
    1eca:	f8 01       	movw	r30, r16
    1ecc:	e5 90       	lpm	r14, Z+
    1ece:	f4 90       	lpm	r15, Z+
    1ed0:	8f 01       	movw	r16, r30
    1ed2:	f8 8a       	std	Y+16, r15	; 0x10
    1ed4:	ef 86       	std	Y+15, r14	; 0x0f
    1ed6:	1e 87       	std	Y+14, r17	; 0x0e
    1ed8:	0d 87       	std	Y+13, r16	; 0x0d
    1eda:	8f 85       	ldd	r24, Y+15	; 0x0f
    1edc:	98 89       	ldd	r25, Y+16	; 0x10
    1ede:	ff ef       	ldi	r31, 0xFF	; 255
    1ee0:	8f 3f       	cpi	r24, 0xFF	; 255
    1ee2:	9f 07       	cpc	r25, r31
    1ee4:	69 f4       	brne	.+26     	; 0x1f00 <TSLCDShowPic+0x176>
					{
						color = TSLCDInDat(); 		// ignore invalid data
    1ee6:	0e 94 ec 0b 	call	0x17d8	; 0x17d8 <TSLCDInDat>
    1eea:	9a 8b       	std	Y+18, r25	; 0x12
    1eec:	89 8b       	std	Y+17, r24	; 0x11
						color = TSLCDInDat();
    1eee:	0e 94 ec 0b 	call	0x17d8	; 0x17d8 <TSLCDInDat>
    1ef2:	9a 8b       	std	Y+18, r25	; 0x12
    1ef4:	89 8b       	std	Y+17, r24	; 0x11
						TSLCDOutDat(color);
    1ef6:	89 89       	ldd	r24, Y+17	; 0x11
    1ef8:	9a 89       	ldd	r25, Y+18	; 0x12
    1efa:	0e 94 18 0b 	call	0x1630	; 0x1630 <TSLCDOutDat>
    1efe:	19 c0       	rjmp	.+50     	; 0x1f32 <TSLCDShowPic+0x1a8>
					}
					else
					{
						TSLCDOutDat(pgm_read_word(&pic[k]));
    1f00:	89 81       	ldd	r24, Y+1	; 0x01
    1f02:	9a 81       	ldd	r25, Y+2	; 0x02
    1f04:	88 0f       	add	r24, r24
    1f06:	99 1f       	adc	r25, r25
    1f08:	2f 8d       	ldd	r18, Y+31	; 0x1f
    1f0a:	38 a1       	ldd	r19, Y+32	; 0x20
    1f0c:	82 0f       	add	r24, r18
    1f0e:	93 1f       	adc	r25, r19
    1f10:	9c 8b       	std	Y+20, r25	; 0x14
    1f12:	8b 8b       	std	Y+19, r24	; 0x13
    1f14:	8b 89       	ldd	r24, Y+19	; 0x13
    1f16:	9c 89       	ldd	r25, Y+20	; 0x14
    1f18:	8c 01       	movw	r16, r24
    1f1a:	f8 01       	movw	r30, r16
    1f1c:	e5 90       	lpm	r14, Z+
    1f1e:	f4 90       	lpm	r15, Z+
    1f20:	8f 01       	movw	r16, r30
    1f22:	fe 8a       	std	Y+22, r15	; 0x16
    1f24:	ed 8a       	std	Y+21, r14	; 0x15
    1f26:	1c 8b       	std	Y+20, r17	; 0x14
    1f28:	0b 8b       	std	Y+19, r16	; 0x13
    1f2a:	8d 89       	ldd	r24, Y+21	; 0x15
    1f2c:	9e 89       	ldd	r25, Y+22	; 0x16
    1f2e:	0e 94 18 0b 	call	0x1630	; 0x1630 <TSLCDOutDat>
					}
					k++;
    1f32:	89 81       	ldd	r24, Y+1	; 0x01
    1f34:	9a 81       	ldd	r25, Y+2	; 0x02
    1f36:	ab 81       	ldd	r26, Y+3	; 0x03
    1f38:	bc 81       	ldd	r27, Y+4	; 0x04
    1f3a:	01 96       	adiw	r24, 0x01	; 1
    1f3c:	a1 1d       	adc	r26, r1
    1f3e:	b1 1d       	adc	r27, r1
    1f40:	89 83       	std	Y+1, r24	; 0x01
    1f42:	9a 83       	std	Y+2, r25	; 0x02
    1f44:	ab 83       	std	Y+3, r26	; 0x03
    1f46:	bc 83       	std	Y+4, r27	; 0x04
					k++;
				}
			break;
		case TS_MODE_NORMAL:
			for (j=0; j < ey - sy + 1; j++)
				for (i=0; i < ex - sx + 1; i++)
    1f48:	8d 81       	ldd	r24, Y+5	; 0x05
    1f4a:	9e 81       	ldd	r25, Y+6	; 0x06
    1f4c:	01 96       	adiw	r24, 0x01	; 1
    1f4e:	9e 83       	std	Y+6, r25	; 0x06
    1f50:	8d 83       	std	Y+5, r24	; 0x05
    1f52:	29 8d       	ldd	r18, Y+25	; 0x19
    1f54:	3a 8d       	ldd	r19, Y+26	; 0x1a
    1f56:	8f 89       	ldd	r24, Y+23	; 0x17
    1f58:	98 8d       	ldd	r25, Y+24	; 0x18
    1f5a:	a9 01       	movw	r20, r18
    1f5c:	48 1b       	sub	r20, r24
    1f5e:	59 0b       	sbc	r21, r25
    1f60:	ca 01       	movw	r24, r20
    1f62:	01 96       	adiw	r24, 0x01	; 1
    1f64:	9c 01       	movw	r18, r24
    1f66:	8d 81       	ldd	r24, Y+5	; 0x05
    1f68:	9e 81       	ldd	r25, Y+6	; 0x06
    1f6a:	82 17       	cp	r24, r18
    1f6c:	93 07       	cpc	r25, r19
    1f6e:	08 f4       	brcc	.+2      	; 0x1f72 <TSLCDShowPic+0x1e8>
    1f70:	9f cf       	rjmp	.-194    	; 0x1eb0 <TSLCDShowPic+0x126>
					TSLCDOutDat(pgm_read_word(&pic[k]));
					k++;
				}
			break;
		case TS_MODE_NORMAL:
			for (j=0; j < ey - sy + 1; j++)
    1f72:	8f 81       	ldd	r24, Y+7	; 0x07
    1f74:	98 85       	ldd	r25, Y+8	; 0x08
    1f76:	01 96       	adiw	r24, 0x01	; 1
    1f78:	98 87       	std	Y+8, r25	; 0x08
    1f7a:	8f 83       	std	Y+7, r24	; 0x07
    1f7c:	2d 8d       	ldd	r18, Y+29	; 0x1d
    1f7e:	3e 8d       	ldd	r19, Y+30	; 0x1e
    1f80:	8b 8d       	ldd	r24, Y+27	; 0x1b
    1f82:	9c 8d       	ldd	r25, Y+28	; 0x1c
    1f84:	f9 01       	movw	r30, r18
    1f86:	e8 1b       	sub	r30, r24
    1f88:	f9 0b       	sbc	r31, r25
    1f8a:	cf 01       	movw	r24, r30
    1f8c:	01 96       	adiw	r24, 0x01	; 1
    1f8e:	9c 01       	movw	r18, r24
    1f90:	8f 81       	ldd	r24, Y+7	; 0x07
    1f92:	98 85       	ldd	r25, Y+8	; 0x08
    1f94:	82 17       	cp	r24, r18
    1f96:	93 07       	cpc	r25, r19
    1f98:	08 f4       	brcc	.+2      	; 0x1f9c <TSLCDShowPic+0x212>
    1f9a:	87 cf       	rjmp	.-242    	; 0x1eaa <TSLCDShowPic+0x120>
					{
						TSLCDOutDat(pgm_read_word(&pic[k]));
					}
					k++;
				}
			break;
    1f9c:	01 c0       	rjmp	.+2      	; 0x1fa0 <TSLCDShowPic+0x216>
		case TS_MODE_INVERSE:
			break;
    1f9e:	00 00       	nop
	}
}
    1fa0:	a1 96       	adiw	r28, 0x21	; 33
    1fa2:	0f b6       	in	r0, 0x3f	; 63
    1fa4:	f8 94       	cli
    1fa6:	de bf       	out	0x3e, r29	; 62
    1fa8:	0f be       	out	0x3f, r0	; 63
    1faa:	cd bf       	out	0x3d, r28	; 61
    1fac:	cf 91       	pop	r28
    1fae:	df 91       	pop	r29
    1fb0:	1f 91       	pop	r17
    1fb2:	0f 91       	pop	r16
    1fb4:	ff 90       	pop	r15
    1fb6:	ef 90       	pop	r14
    1fb8:	08 95       	ret

00001fba <TSLCDFillRect>:

void TSLCDFillRect(int sx,int ex,int sy,int ey,unsigned short color,ts_mode_t mode) //draw a rectangular
{
    1fba:	ef 92       	push	r14
    1fbc:	0f 93       	push	r16
    1fbe:	1f 93       	push	r17
    1fc0:	df 93       	push	r29
    1fc2:	cf 93       	push	r28
    1fc4:	cd b7       	in	r28, 0x3d	; 61
    1fc6:	de b7       	in	r29, 0x3e	; 62
    1fc8:	2f 97       	sbiw	r28, 0x0f	; 15
    1fca:	0f b6       	in	r0, 0x3f	; 63
    1fcc:	f8 94       	cli
    1fce:	de bf       	out	0x3e, r29	; 62
    1fd0:	0f be       	out	0x3f, r0	; 63
    1fd2:	cd bf       	out	0x3d, r28	; 61
    1fd4:	9e 83       	std	Y+6, r25	; 0x06
    1fd6:	8d 83       	std	Y+5, r24	; 0x05
    1fd8:	78 87       	std	Y+8, r23	; 0x08
    1fda:	6f 83       	std	Y+7, r22	; 0x07
    1fdc:	5a 87       	std	Y+10, r21	; 0x0a
    1fde:	49 87       	std	Y+9, r20	; 0x09
    1fe0:	3c 87       	std	Y+12, r19	; 0x0c
    1fe2:	2b 87       	std	Y+11, r18	; 0x0b
    1fe4:	1e 87       	std	Y+14, r17	; 0x0e
    1fe6:	0d 87       	std	Y+13, r16	; 0x0d
    1fe8:	ef 86       	std	Y+15, r14	; 0x0f
	unsigned int i,j;

    TSLCDSetWindow(sx, ex, sy, ey);
    1fea:	8d 81       	ldd	r24, Y+5	; 0x05
    1fec:	9e 81       	ldd	r25, Y+6	; 0x06
    1fee:	6f 81       	ldd	r22, Y+7	; 0x07
    1ff0:	78 85       	ldd	r23, Y+8	; 0x08
    1ff2:	49 85       	ldd	r20, Y+9	; 0x09
    1ff4:	5a 85       	ldd	r21, Y+10	; 0x0a
    1ff6:	2b 85       	ldd	r18, Y+11	; 0x0b
    1ff8:	3c 85       	ldd	r19, Y+12	; 0x0c
    1ffa:	0e 94 b4 0a 	call	0x1568	; 0x1568 <TSLCDSetWindow>
	TSLCDOutIns(LCD_RW_GRAM);
    1ffe:	82 e2       	ldi	r24, 0x22	; 34
    2000:	90 e0       	ldi	r25, 0x00	; 0
    2002:	0e 94 82 0b 	call	0x1704	; 0x1704 <TSLCDOutIns>

	switch(mode)
    2006:	8f 85       	ldd	r24, Y+15	; 0x0f
    2008:	88 2f       	mov	r24, r24
    200a:	90 e0       	ldi	r25, 0x00	; 0
    200c:	81 30       	cpi	r24, 0x01	; 1
    200e:	91 05       	cpc	r25, r1
    2010:	c9 f1       	breq	.+114    	; 0x2084 <TSLCDFillRect+0xca>
    2012:	82 30       	cpi	r24, 0x02	; 2
    2014:	91 05       	cpc	r25, r1
    2016:	19 f0       	breq	.+6      	; 0x201e <TSLCDFillRect+0x64>
    2018:	00 97       	sbiw	r24, 0x00	; 0
    201a:	09 f0       	breq	.+2      	; 0x201e <TSLCDFillRect+0x64>
    201c:	70 c0       	rjmp	.+224    	; 0x20fe <TSLCDFillRect+0x144>
	{
		case TS_MODE_FULL:
		case TS_MODE_NORMAL:
			for (j=0; j < ey - sy + 1; j++)
    201e:	1c 82       	std	Y+4, r1	; 0x04
    2020:	1b 82       	std	Y+3, r1	; 0x03
    2022:	20 c0       	rjmp	.+64     	; 0x2064 <TSLCDFillRect+0xaa>
				for (i=0; i < ex - sx + 1; i++)
    2024:	1a 82       	std	Y+2, r1	; 0x02
    2026:	19 82       	std	Y+1, r1	; 0x01
    2028:	09 c0       	rjmp	.+18     	; 0x203c <TSLCDFillRect+0x82>
					TSLCDOutDat(color);
    202a:	8d 85       	ldd	r24, Y+13	; 0x0d
    202c:	9e 85       	ldd	r25, Y+14	; 0x0e
    202e:	0e 94 18 0b 	call	0x1630	; 0x1630 <TSLCDOutDat>
	switch(mode)
	{
		case TS_MODE_FULL:
		case TS_MODE_NORMAL:
			for (j=0; j < ey - sy + 1; j++)
				for (i=0; i < ex - sx + 1; i++)
    2032:	89 81       	ldd	r24, Y+1	; 0x01
    2034:	9a 81       	ldd	r25, Y+2	; 0x02
    2036:	01 96       	adiw	r24, 0x01	; 1
    2038:	9a 83       	std	Y+2, r25	; 0x02
    203a:	89 83       	std	Y+1, r24	; 0x01
    203c:	2f 81       	ldd	r18, Y+7	; 0x07
    203e:	38 85       	ldd	r19, Y+8	; 0x08
    2040:	8d 81       	ldd	r24, Y+5	; 0x05
    2042:	9e 81       	ldd	r25, Y+6	; 0x06
    2044:	a9 01       	movw	r20, r18
    2046:	48 1b       	sub	r20, r24
    2048:	59 0b       	sbc	r21, r25
    204a:	ca 01       	movw	r24, r20
    204c:	01 96       	adiw	r24, 0x01	; 1
    204e:	9c 01       	movw	r18, r24
    2050:	89 81       	ldd	r24, Y+1	; 0x01
    2052:	9a 81       	ldd	r25, Y+2	; 0x02
    2054:	82 17       	cp	r24, r18
    2056:	93 07       	cpc	r25, r19
    2058:	40 f3       	brcs	.-48     	; 0x202a <TSLCDFillRect+0x70>

	switch(mode)
	{
		case TS_MODE_FULL:
		case TS_MODE_NORMAL:
			for (j=0; j < ey - sy + 1; j++)
    205a:	8b 81       	ldd	r24, Y+3	; 0x03
    205c:	9c 81       	ldd	r25, Y+4	; 0x04
    205e:	01 96       	adiw	r24, 0x01	; 1
    2060:	9c 83       	std	Y+4, r25	; 0x04
    2062:	8b 83       	std	Y+3, r24	; 0x03
    2064:	2b 85       	ldd	r18, Y+11	; 0x0b
    2066:	3c 85       	ldd	r19, Y+12	; 0x0c
    2068:	89 85       	ldd	r24, Y+9	; 0x09
    206a:	9a 85       	ldd	r25, Y+10	; 0x0a
    206c:	a9 01       	movw	r20, r18
    206e:	48 1b       	sub	r20, r24
    2070:	59 0b       	sbc	r21, r25
    2072:	ca 01       	movw	r24, r20
    2074:	01 96       	adiw	r24, 0x01	; 1
    2076:	9c 01       	movw	r18, r24
    2078:	8b 81       	ldd	r24, Y+3	; 0x03
    207a:	9c 81       	ldd	r25, Y+4	; 0x04
    207c:	82 17       	cp	r24, r18
    207e:	93 07       	cpc	r25, r19
    2080:	88 f2       	brcs	.-94     	; 0x2024 <TSLCDFillRect+0x6a>
				for (i=0; i < ex - sx + 1; i++)
					TSLCDOutDat(color);
			break;
    2082:	3d c0       	rjmp	.+122    	; 0x20fe <TSLCDFillRect+0x144>
		case TS_MODE_INVERSE:
			for (j=0; j < ey - sy + 1; j++)
    2084:	1c 82       	std	Y+4, r1	; 0x04
    2086:	1b 82       	std	Y+3, r1	; 0x03
    2088:	2a c0       	rjmp	.+84     	; 0x20de <TSLCDFillRect+0x124>
				for (i=0; i < ex - sx + 1; i++)
    208a:	1a 82       	std	Y+2, r1	; 0x02
    208c:	19 82       	std	Y+1, r1	; 0x01
    208e:	13 c0       	rjmp	.+38     	; 0x20b6 <TSLCDFillRect+0xfc>
				{
					color = TSLCDInDat(); 		// ignore invalid data
    2090:	0e 94 ec 0b 	call	0x17d8	; 0x17d8 <TSLCDInDat>
    2094:	9e 87       	std	Y+14, r25	; 0x0e
    2096:	8d 87       	std	Y+13, r24	; 0x0d
					color = TSLCDInDat();
    2098:	0e 94 ec 0b 	call	0x17d8	; 0x17d8 <TSLCDInDat>
    209c:	9e 87       	std	Y+14, r25	; 0x0e
    209e:	8d 87       	std	Y+13, r24	; 0x0d
					TSLCDOutDat(~color);
    20a0:	8d 85       	ldd	r24, Y+13	; 0x0d
    20a2:	9e 85       	ldd	r25, Y+14	; 0x0e
    20a4:	80 95       	com	r24
    20a6:	90 95       	com	r25
    20a8:	0e 94 18 0b 	call	0x1630	; 0x1630 <TSLCDOutDat>
				for (i=0; i < ex - sx + 1; i++)
					TSLCDOutDat(color);
			break;
		case TS_MODE_INVERSE:
			for (j=0; j < ey - sy + 1; j++)
				for (i=0; i < ex - sx + 1; i++)
    20ac:	89 81       	ldd	r24, Y+1	; 0x01
    20ae:	9a 81       	ldd	r25, Y+2	; 0x02
    20b0:	01 96       	adiw	r24, 0x01	; 1
    20b2:	9a 83       	std	Y+2, r25	; 0x02
    20b4:	89 83       	std	Y+1, r24	; 0x01
    20b6:	2f 81       	ldd	r18, Y+7	; 0x07
    20b8:	38 85       	ldd	r19, Y+8	; 0x08
    20ba:	8d 81       	ldd	r24, Y+5	; 0x05
    20bc:	9e 81       	ldd	r25, Y+6	; 0x06
    20be:	a9 01       	movw	r20, r18
    20c0:	48 1b       	sub	r20, r24
    20c2:	59 0b       	sbc	r21, r25
    20c4:	ca 01       	movw	r24, r20
    20c6:	01 96       	adiw	r24, 0x01	; 1
    20c8:	9c 01       	movw	r18, r24
    20ca:	89 81       	ldd	r24, Y+1	; 0x01
    20cc:	9a 81       	ldd	r25, Y+2	; 0x02
    20ce:	82 17       	cp	r24, r18
    20d0:	93 07       	cpc	r25, r19
    20d2:	f0 f2       	brcs	.-68     	; 0x2090 <TSLCDFillRect+0xd6>
			for (j=0; j < ey - sy + 1; j++)
				for (i=0; i < ex - sx + 1; i++)
					TSLCDOutDat(color);
			break;
		case TS_MODE_INVERSE:
			for (j=0; j < ey - sy + 1; j++)
    20d4:	8b 81       	ldd	r24, Y+3	; 0x03
    20d6:	9c 81       	ldd	r25, Y+4	; 0x04
    20d8:	01 96       	adiw	r24, 0x01	; 1
    20da:	9c 83       	std	Y+4, r25	; 0x04
    20dc:	8b 83       	std	Y+3, r24	; 0x03
    20de:	2b 85       	ldd	r18, Y+11	; 0x0b
    20e0:	3c 85       	ldd	r19, Y+12	; 0x0c
    20e2:	89 85       	ldd	r24, Y+9	; 0x09
    20e4:	9a 85       	ldd	r25, Y+10	; 0x0a
    20e6:	a9 01       	movw	r20, r18
    20e8:	48 1b       	sub	r20, r24
    20ea:	59 0b       	sbc	r21, r25
    20ec:	ca 01       	movw	r24, r20
    20ee:	01 96       	adiw	r24, 0x01	; 1
    20f0:	9c 01       	movw	r18, r24
    20f2:	8b 81       	ldd	r24, Y+3	; 0x03
    20f4:	9c 81       	ldd	r25, Y+4	; 0x04
    20f6:	82 17       	cp	r24, r18
    20f8:	93 07       	cpc	r25, r19
    20fa:	38 f2       	brcs	.-114    	; 0x208a <TSLCDFillRect+0xd0>
				{
					color = TSLCDInDat(); 		// ignore invalid data
					color = TSLCDInDat();
					TSLCDOutDat(~color);
				}
			break;
    20fc:	00 00       	nop
	}
}
    20fe:	2f 96       	adiw	r28, 0x0f	; 15
    2100:	0f b6       	in	r0, 0x3f	; 63
    2102:	f8 94       	cli
    2104:	de bf       	out	0x3e, r29	; 62
    2106:	0f be       	out	0x3f, r0	; 63
    2108:	cd bf       	out	0x3d, r28	; 61
    210a:	cf 91       	pop	r28
    210c:	df 91       	pop	r29
    210e:	1f 91       	pop	r17
    2110:	0f 91       	pop	r16
    2112:	ef 90       	pop	r14
    2114:	08 95       	ret

00002116 <TSLCDFillCirc>:

void TSLCDFillCirc(int cx,int cy,int rad,unsigned short color, ts_mode_t mode) //draw a circle
{
    2116:	0f 93       	push	r16
    2118:	df 93       	push	r29
    211a:	cf 93       	push	r28
    211c:	cd b7       	in	r28, 0x3d	; 61
    211e:	de b7       	in	r29, 0x3e	; 62
    2120:	61 97       	sbiw	r28, 0x11	; 17
    2122:	0f b6       	in	r0, 0x3f	; 63
    2124:	f8 94       	cli
    2126:	de bf       	out	0x3e, r29	; 62
    2128:	0f be       	out	0x3f, r0	; 63
    212a:	cd bf       	out	0x3d, r28	; 61
    212c:	9a 87       	std	Y+10, r25	; 0x0a
    212e:	89 87       	std	Y+9, r24	; 0x09
    2130:	7c 87       	std	Y+12, r23	; 0x0c
    2132:	6b 87       	std	Y+11, r22	; 0x0b
    2134:	5e 87       	std	Y+14, r21	; 0x0e
    2136:	4d 87       	std	Y+13, r20	; 0x0d
    2138:	38 8b       	std	Y+16, r19	; 0x10
    213a:	2f 87       	std	Y+15, r18	; 0x0f
    213c:	09 8b       	std	Y+17, r16	; 0x11
	int i,j;
	unsigned short color_buf;
	unsigned short rad2 = rad*rad;
    213e:	4d 85       	ldd	r20, Y+13	; 0x0d
    2140:	5e 85       	ldd	r21, Y+14	; 0x0e
    2142:	2d 85       	ldd	r18, Y+13	; 0x0d
    2144:	3e 85       	ldd	r19, Y+14	; 0x0e
    2146:	42 9f       	mul	r20, r18
    2148:	c0 01       	movw	r24, r0
    214a:	43 9f       	mul	r20, r19
    214c:	90 0d       	add	r25, r0
    214e:	52 9f       	mul	r21, r18
    2150:	90 0d       	add	r25, r0
    2152:	11 24       	eor	r1, r1
    2154:	9e 83       	std	Y+6, r25	; 0x06
    2156:	8d 83       	std	Y+5, r24	; 0x05

    TSLCDSetWindow(cx - rad, cx + rad, cy - rad, cy + rad);
    2158:	29 85       	ldd	r18, Y+9	; 0x09
    215a:	3a 85       	ldd	r19, Y+10	; 0x0a
    215c:	8d 85       	ldd	r24, Y+13	; 0x0d
    215e:	9e 85       	ldd	r25, Y+14	; 0x0e
    2160:	a9 01       	movw	r20, r18
    2162:	48 1b       	sub	r20, r24
    2164:	59 0b       	sbc	r21, r25
    2166:	ca 01       	movw	r24, r20
    2168:	49 85       	ldd	r20, Y+9	; 0x09
    216a:	5a 85       	ldd	r21, Y+10	; 0x0a
    216c:	2d 85       	ldd	r18, Y+13	; 0x0d
    216e:	3e 85       	ldd	r19, Y+14	; 0x0e
    2170:	ba 01       	movw	r22, r20
    2172:	62 0f       	add	r22, r18
    2174:	73 1f       	adc	r23, r19
    2176:	4b 85       	ldd	r20, Y+11	; 0x0b
    2178:	5c 85       	ldd	r21, Y+12	; 0x0c
    217a:	2d 85       	ldd	r18, Y+13	; 0x0d
    217c:	3e 85       	ldd	r19, Y+14	; 0x0e
    217e:	42 1b       	sub	r20, r18
    2180:	53 0b       	sbc	r21, r19
    2182:	eb 85       	ldd	r30, Y+11	; 0x0b
    2184:	fc 85       	ldd	r31, Y+12	; 0x0c
    2186:	2d 85       	ldd	r18, Y+13	; 0x0d
    2188:	3e 85       	ldd	r19, Y+14	; 0x0e
    218a:	2e 0f       	add	r18, r30
    218c:	3f 1f       	adc	r19, r31
    218e:	0e 94 b4 0a 	call	0x1568	; 0x1568 <TSLCDSetWindow>
	TSLCDOutIns(LCD_RW_GRAM);
    2192:	82 e2       	ldi	r24, 0x22	; 34
    2194:	90 e0       	ldi	r25, 0x00	; 0
    2196:	0e 94 82 0b 	call	0x1704	; 0x1704 <TSLCDOutIns>

	switch(mode)
    219a:	89 89       	ldd	r24, Y+17	; 0x11
    219c:	88 2f       	mov	r24, r24
    219e:	90 e0       	ldi	r25, 0x00	; 0
    21a0:	81 30       	cpi	r24, 0x01	; 1
    21a2:	91 05       	cpc	r25, r1
    21a4:	09 f4       	brne	.+2      	; 0x21a8 <TSLCDFillCirc+0x92>
    21a6:	58 c0       	rjmp	.+176    	; 0x2258 <TSLCDFillCirc+0x142>
    21a8:	82 30       	cpi	r24, 0x02	; 2
    21aa:	91 05       	cpc	r25, r1
    21ac:	09 f4       	brne	.+2      	; 0x21b0 <TSLCDFillCirc+0x9a>
    21ae:	b8 c0       	rjmp	.+368    	; 0x2320 <TSLCDFillCirc+0x20a>
    21b0:	00 97       	sbiw	r24, 0x00	; 0
    21b2:	09 f0       	breq	.+2      	; 0x21b6 <TSLCDFillCirc+0xa0>
    21b4:	08 c1       	rjmp	.+528    	; 0x23c6 <TSLCDFillCirc+0x2b0>
	{
		case TS_MODE_NORMAL:
			for (j=-rad; j<=rad; j++)
    21b6:	8d 85       	ldd	r24, Y+13	; 0x0d
    21b8:	9e 85       	ldd	r25, Y+14	; 0x0e
    21ba:	90 95       	com	r25
    21bc:	81 95       	neg	r24
    21be:	9f 4f       	sbci	r25, 0xFF	; 255
    21c0:	9c 83       	std	Y+4, r25	; 0x04
    21c2:	8b 83       	std	Y+3, r24	; 0x03
    21c4:	40 c0       	rjmp	.+128    	; 0x2246 <TSLCDFillCirc+0x130>
				for (i=-rad; i<=rad; i++)
    21c6:	8d 85       	ldd	r24, Y+13	; 0x0d
    21c8:	9e 85       	ldd	r25, Y+14	; 0x0e
    21ca:	90 95       	com	r25
    21cc:	81 95       	neg	r24
    21ce:	9f 4f       	sbci	r25, 0xFF	; 255
    21d0:	9a 83       	std	Y+2, r25	; 0x02
    21d2:	89 83       	std	Y+1, r24	; 0x01
    21d4:	2c c0       	rjmp	.+88     	; 0x222e <TSLCDFillCirc+0x118>
					if (i*i + j*j < rad2)
    21d6:	49 81       	ldd	r20, Y+1	; 0x01
    21d8:	5a 81       	ldd	r21, Y+2	; 0x02
    21da:	89 81       	ldd	r24, Y+1	; 0x01
    21dc:	9a 81       	ldd	r25, Y+2	; 0x02
    21de:	48 9f       	mul	r20, r24
    21e0:	90 01       	movw	r18, r0
    21e2:	49 9f       	mul	r20, r25
    21e4:	30 0d       	add	r19, r0
    21e6:	58 9f       	mul	r21, r24
    21e8:	30 0d       	add	r19, r0
    21ea:	11 24       	eor	r1, r1
    21ec:	6b 81       	ldd	r22, Y+3	; 0x03
    21ee:	7c 81       	ldd	r23, Y+4	; 0x04
    21f0:	4b 81       	ldd	r20, Y+3	; 0x03
    21f2:	5c 81       	ldd	r21, Y+4	; 0x04
    21f4:	64 9f       	mul	r22, r20
    21f6:	c0 01       	movw	r24, r0
    21f8:	65 9f       	mul	r22, r21
    21fa:	90 0d       	add	r25, r0
    21fc:	74 9f       	mul	r23, r20
    21fe:	90 0d       	add	r25, r0
    2200:	11 24       	eor	r1, r1
    2202:	82 0f       	add	r24, r18
    2204:	93 1f       	adc	r25, r19
    2206:	9c 01       	movw	r18, r24
    2208:	8d 81       	ldd	r24, Y+5	; 0x05
    220a:	9e 81       	ldd	r25, Y+6	; 0x06
    220c:	28 17       	cp	r18, r24
    220e:	39 07       	cpc	r19, r25
    2210:	28 f4       	brcc	.+10     	; 0x221c <TSLCDFillCirc+0x106>
					{
						TSLCDOutDat(color);
    2212:	8f 85       	ldd	r24, Y+15	; 0x0f
    2214:	98 89       	ldd	r25, Y+16	; 0x10
    2216:	0e 94 18 0b 	call	0x1630	; 0x1630 <TSLCDOutDat>
    221a:	04 c0       	rjmp	.+8      	; 0x2224 <TSLCDFillCirc+0x10e>
					}
					else
					{
						// Perform read to advance address counter
						color_buf = TSLCDInDat(); 		
    221c:	0e 94 ec 0b 	call	0x17d8	; 0x17d8 <TSLCDInDat>
    2220:	98 87       	std	Y+8, r25	; 0x08
    2222:	8f 83       	std	Y+7, r24	; 0x07

	switch(mode)
	{
		case TS_MODE_NORMAL:
			for (j=-rad; j<=rad; j++)
				for (i=-rad; i<=rad; i++)
    2224:	89 81       	ldd	r24, Y+1	; 0x01
    2226:	9a 81       	ldd	r25, Y+2	; 0x02
    2228:	01 96       	adiw	r24, 0x01	; 1
    222a:	9a 83       	std	Y+2, r25	; 0x02
    222c:	89 83       	std	Y+1, r24	; 0x01
    222e:	29 81       	ldd	r18, Y+1	; 0x01
    2230:	3a 81       	ldd	r19, Y+2	; 0x02
    2232:	8d 85       	ldd	r24, Y+13	; 0x0d
    2234:	9e 85       	ldd	r25, Y+14	; 0x0e
    2236:	82 17       	cp	r24, r18
    2238:	93 07       	cpc	r25, r19
    223a:	6c f6       	brge	.-102    	; 0x21d6 <TSLCDFillCirc+0xc0>
	TSLCDOutIns(LCD_RW_GRAM);

	switch(mode)
	{
		case TS_MODE_NORMAL:
			for (j=-rad; j<=rad; j++)
    223c:	8b 81       	ldd	r24, Y+3	; 0x03
    223e:	9c 81       	ldd	r25, Y+4	; 0x04
    2240:	01 96       	adiw	r24, 0x01	; 1
    2242:	9c 83       	std	Y+4, r25	; 0x04
    2244:	8b 83       	std	Y+3, r24	; 0x03
    2246:	2b 81       	ldd	r18, Y+3	; 0x03
    2248:	3c 81       	ldd	r19, Y+4	; 0x04
    224a:	8d 85       	ldd	r24, Y+13	; 0x0d
    224c:	9e 85       	ldd	r25, Y+14	; 0x0e
    224e:	82 17       	cp	r24, r18
    2250:	93 07       	cpc	r25, r19
    2252:	0c f0       	brlt	.+2      	; 0x2256 <TSLCDFillCirc+0x140>
    2254:	b8 cf       	rjmp	.-144    	; 0x21c6 <TSLCDFillCirc+0xb0>
					else
					{
						// Perform read to advance address counter
						color_buf = TSLCDInDat(); 		
					}
			break;
    2256:	b7 c0       	rjmp	.+366    	; 0x23c6 <TSLCDFillCirc+0x2b0>
		case TS_MODE_INVERSE:
			for (j=-rad; j<=rad; j++)
    2258:	8d 85       	ldd	r24, Y+13	; 0x0d
    225a:	9e 85       	ldd	r25, Y+14	; 0x0e
    225c:	90 95       	com	r25
    225e:	81 95       	neg	r24
    2260:	9f 4f       	sbci	r25, 0xFF	; 255
    2262:	9c 83       	std	Y+4, r25	; 0x04
    2264:	8b 83       	std	Y+3, r24	; 0x03
    2266:	53 c0       	rjmp	.+166    	; 0x230e <TSLCDFillCirc+0x1f8>
				for (i=-rad; i<=rad; i++)
    2268:	8d 85       	ldd	r24, Y+13	; 0x0d
    226a:	9e 85       	ldd	r25, Y+14	; 0x0e
    226c:	90 95       	com	r25
    226e:	81 95       	neg	r24
    2270:	9f 4f       	sbci	r25, 0xFF	; 255
    2272:	9a 83       	std	Y+2, r25	; 0x02
    2274:	89 83       	std	Y+1, r24	; 0x01
    2276:	3e c0       	rjmp	.+124    	; 0x22f4 <TSLCDFillCirc+0x1de>
					if (i*i + j*j < rad2)
    2278:	49 81       	ldd	r20, Y+1	; 0x01
    227a:	5a 81       	ldd	r21, Y+2	; 0x02
    227c:	89 81       	ldd	r24, Y+1	; 0x01
    227e:	9a 81       	ldd	r25, Y+2	; 0x02
    2280:	48 9f       	mul	r20, r24
    2282:	90 01       	movw	r18, r0
    2284:	49 9f       	mul	r20, r25
    2286:	30 0d       	add	r19, r0
    2288:	58 9f       	mul	r21, r24
    228a:	30 0d       	add	r19, r0
    228c:	11 24       	eor	r1, r1
    228e:	6b 81       	ldd	r22, Y+3	; 0x03
    2290:	7c 81       	ldd	r23, Y+4	; 0x04
    2292:	4b 81       	ldd	r20, Y+3	; 0x03
    2294:	5c 81       	ldd	r21, Y+4	; 0x04
    2296:	64 9f       	mul	r22, r20
    2298:	c0 01       	movw	r24, r0
    229a:	65 9f       	mul	r22, r21
    229c:	90 0d       	add	r25, r0
    229e:	74 9f       	mul	r23, r20
    22a0:	90 0d       	add	r25, r0
    22a2:	11 24       	eor	r1, r1
    22a4:	82 0f       	add	r24, r18
    22a6:	93 1f       	adc	r25, r19
    22a8:	9c 01       	movw	r18, r24
    22aa:	8d 81       	ldd	r24, Y+5	; 0x05
    22ac:	9e 81       	ldd	r25, Y+6	; 0x06
    22ae:	28 17       	cp	r18, r24
    22b0:	39 07       	cpc	r19, r25
    22b2:	78 f4       	brcc	.+30     	; 0x22d2 <TSLCDFillCirc+0x1bc>
					{
						color_buf = TSLCDInDat(); 		// ignore invalid data
    22b4:	0e 94 ec 0b 	call	0x17d8	; 0x17d8 <TSLCDInDat>
    22b8:	98 87       	std	Y+8, r25	; 0x08
    22ba:	8f 83       	std	Y+7, r24	; 0x07
						color_buf = TSLCDInDat();
    22bc:	0e 94 ec 0b 	call	0x17d8	; 0x17d8 <TSLCDInDat>
    22c0:	98 87       	std	Y+8, r25	; 0x08
    22c2:	8f 83       	std	Y+7, r24	; 0x07
						TSLCDOutDat(~color_buf);
    22c4:	8f 81       	ldd	r24, Y+7	; 0x07
    22c6:	98 85       	ldd	r25, Y+8	; 0x08
    22c8:	80 95       	com	r24
    22ca:	90 95       	com	r25
    22cc:	0e 94 18 0b 	call	0x1630	; 0x1630 <TSLCDOutDat>
    22d0:	0c c0       	rjmp	.+24     	; 0x22ea <TSLCDFillCirc+0x1d4>
					}
					else
					{
						color_buf = TSLCDInDat(); 		// ignore invalid data
    22d2:	0e 94 ec 0b 	call	0x17d8	; 0x17d8 <TSLCDInDat>
    22d6:	98 87       	std	Y+8, r25	; 0x08
    22d8:	8f 83       	std	Y+7, r24	; 0x07
						color_buf = TSLCDInDat();
    22da:	0e 94 ec 0b 	call	0x17d8	; 0x17d8 <TSLCDInDat>
    22de:	98 87       	std	Y+8, r25	; 0x08
    22e0:	8f 83       	std	Y+7, r24	; 0x07
						TSLCDOutDat(color_buf);
    22e2:	8f 81       	ldd	r24, Y+7	; 0x07
    22e4:	98 85       	ldd	r25, Y+8	; 0x08
    22e6:	0e 94 18 0b 	call	0x1630	; 0x1630 <TSLCDOutDat>
						color_buf = TSLCDInDat(); 		
					}
			break;
		case TS_MODE_INVERSE:
			for (j=-rad; j<=rad; j++)
				for (i=-rad; i<=rad; i++)
    22ea:	89 81       	ldd	r24, Y+1	; 0x01
    22ec:	9a 81       	ldd	r25, Y+2	; 0x02
    22ee:	01 96       	adiw	r24, 0x01	; 1
    22f0:	9a 83       	std	Y+2, r25	; 0x02
    22f2:	89 83       	std	Y+1, r24	; 0x01
    22f4:	29 81       	ldd	r18, Y+1	; 0x01
    22f6:	3a 81       	ldd	r19, Y+2	; 0x02
    22f8:	8d 85       	ldd	r24, Y+13	; 0x0d
    22fa:	9e 85       	ldd	r25, Y+14	; 0x0e
    22fc:	82 17       	cp	r24, r18
    22fe:	93 07       	cpc	r25, r19
    2300:	0c f0       	brlt	.+2      	; 0x2304 <TSLCDFillCirc+0x1ee>
    2302:	ba cf       	rjmp	.-140    	; 0x2278 <TSLCDFillCirc+0x162>
						// Perform read to advance address counter
						color_buf = TSLCDInDat(); 		
					}
			break;
		case TS_MODE_INVERSE:
			for (j=-rad; j<=rad; j++)
    2304:	8b 81       	ldd	r24, Y+3	; 0x03
    2306:	9c 81       	ldd	r25, Y+4	; 0x04
    2308:	01 96       	adiw	r24, 0x01	; 1
    230a:	9c 83       	std	Y+4, r25	; 0x04
    230c:	8b 83       	std	Y+3, r24	; 0x03
    230e:	2b 81       	ldd	r18, Y+3	; 0x03
    2310:	3c 81       	ldd	r19, Y+4	; 0x04
    2312:	8d 85       	ldd	r24, Y+13	; 0x0d
    2314:	9e 85       	ldd	r25, Y+14	; 0x0e
    2316:	82 17       	cp	r24, r18
    2318:	93 07       	cpc	r25, r19
    231a:	0c f0       	brlt	.+2      	; 0x231e <TSLCDFillCirc+0x208>
    231c:	a5 cf       	rjmp	.-182    	; 0x2268 <TSLCDFillCirc+0x152>
					{
						color_buf = TSLCDInDat(); 		// ignore invalid data
						color_buf = TSLCDInDat();
						TSLCDOutDat(color_buf);
					}
			break;
    231e:	53 c0       	rjmp	.+166    	; 0x23c6 <TSLCDFillCirc+0x2b0>
		case TS_MODE_FULL:
			for (j=-rad; j<=rad; j++)
    2320:	8d 85       	ldd	r24, Y+13	; 0x0d
    2322:	9e 85       	ldd	r25, Y+14	; 0x0e
    2324:	90 95       	com	r25
    2326:	81 95       	neg	r24
    2328:	9f 4f       	sbci	r25, 0xFF	; 255
    232a:	9c 83       	std	Y+4, r25	; 0x04
    232c:	8b 83       	std	Y+3, r24	; 0x03
    232e:	42 c0       	rjmp	.+132    	; 0x23b4 <TSLCDFillCirc+0x29e>
				for (i=-rad; i<=rad; i++)
    2330:	8d 85       	ldd	r24, Y+13	; 0x0d
    2332:	9e 85       	ldd	r25, Y+14	; 0x0e
    2334:	90 95       	com	r25
    2336:	81 95       	neg	r24
    2338:	9f 4f       	sbci	r25, 0xFF	; 255
    233a:	9a 83       	std	Y+2, r25	; 0x02
    233c:	89 83       	std	Y+1, r24	; 0x01
    233e:	2e c0       	rjmp	.+92     	; 0x239c <TSLCDFillCirc+0x286>
					if (i*i + j*j < rad2)
    2340:	49 81       	ldd	r20, Y+1	; 0x01
    2342:	5a 81       	ldd	r21, Y+2	; 0x02
    2344:	89 81       	ldd	r24, Y+1	; 0x01
    2346:	9a 81       	ldd	r25, Y+2	; 0x02
    2348:	48 9f       	mul	r20, r24
    234a:	90 01       	movw	r18, r0
    234c:	49 9f       	mul	r20, r25
    234e:	30 0d       	add	r19, r0
    2350:	58 9f       	mul	r21, r24
    2352:	30 0d       	add	r19, r0
    2354:	11 24       	eor	r1, r1
    2356:	6b 81       	ldd	r22, Y+3	; 0x03
    2358:	7c 81       	ldd	r23, Y+4	; 0x04
    235a:	4b 81       	ldd	r20, Y+3	; 0x03
    235c:	5c 81       	ldd	r21, Y+4	; 0x04
    235e:	64 9f       	mul	r22, r20
    2360:	c0 01       	movw	r24, r0
    2362:	65 9f       	mul	r22, r21
    2364:	90 0d       	add	r25, r0
    2366:	74 9f       	mul	r23, r20
    2368:	90 0d       	add	r25, r0
    236a:	11 24       	eor	r1, r1
    236c:	82 0f       	add	r24, r18
    236e:	93 1f       	adc	r25, r19
    2370:	9c 01       	movw	r18, r24
    2372:	8d 81       	ldd	r24, Y+5	; 0x05
    2374:	9e 81       	ldd	r25, Y+6	; 0x06
    2376:	28 17       	cp	r18, r24
    2378:	39 07       	cpc	r19, r25
    237a:	28 f4       	brcc	.+10     	; 0x2386 <TSLCDFillCirc+0x270>
					{
						TSLCDOutDat(color);
    237c:	8f 85       	ldd	r24, Y+15	; 0x0f
    237e:	98 89       	ldd	r25, Y+16	; 0x10
    2380:	0e 94 18 0b 	call	0x1630	; 0x1630 <TSLCDOutDat>
    2384:	06 c0       	rjmp	.+12     	; 0x2392 <TSLCDFillCirc+0x27c>
					}
					else
					{
						TSLCDOutDat(back_color);
    2386:	80 91 30 01 	lds	r24, 0x0130
    238a:	90 91 31 01 	lds	r25, 0x0131
    238e:	0e 94 18 0b 	call	0x1630	; 0x1630 <TSLCDOutDat>
						TSLCDOutDat(color_buf);
					}
			break;
		case TS_MODE_FULL:
			for (j=-rad; j<=rad; j++)
				for (i=-rad; i<=rad; i++)
    2392:	89 81       	ldd	r24, Y+1	; 0x01
    2394:	9a 81       	ldd	r25, Y+2	; 0x02
    2396:	01 96       	adiw	r24, 0x01	; 1
    2398:	9a 83       	std	Y+2, r25	; 0x02
    239a:	89 83       	std	Y+1, r24	; 0x01
    239c:	29 81       	ldd	r18, Y+1	; 0x01
    239e:	3a 81       	ldd	r19, Y+2	; 0x02
    23a0:	8d 85       	ldd	r24, Y+13	; 0x0d
    23a2:	9e 85       	ldd	r25, Y+14	; 0x0e
    23a4:	82 17       	cp	r24, r18
    23a6:	93 07       	cpc	r25, r19
    23a8:	5c f6       	brge	.-106    	; 0x2340 <TSLCDFillCirc+0x22a>
						color_buf = TSLCDInDat();
						TSLCDOutDat(color_buf);
					}
			break;
		case TS_MODE_FULL:
			for (j=-rad; j<=rad; j++)
    23aa:	8b 81       	ldd	r24, Y+3	; 0x03
    23ac:	9c 81       	ldd	r25, Y+4	; 0x04
    23ae:	01 96       	adiw	r24, 0x01	; 1
    23b0:	9c 83       	std	Y+4, r25	; 0x04
    23b2:	8b 83       	std	Y+3, r24	; 0x03
    23b4:	2b 81       	ldd	r18, Y+3	; 0x03
    23b6:	3c 81       	ldd	r19, Y+4	; 0x04
    23b8:	8d 85       	ldd	r24, Y+13	; 0x0d
    23ba:	9e 85       	ldd	r25, Y+14	; 0x0e
    23bc:	82 17       	cp	r24, r18
    23be:	93 07       	cpc	r25, r19
    23c0:	0c f0       	brlt	.+2      	; 0x23c4 <TSLCDFillCirc+0x2ae>
    23c2:	b6 cf       	rjmp	.-148    	; 0x2330 <TSLCDFillCirc+0x21a>
					}
					else
					{
						TSLCDOutDat(back_color);
					}
			break;
    23c4:	00 00       	nop
	}
}
    23c6:	61 96       	adiw	r28, 0x11	; 17
    23c8:	0f b6       	in	r0, 0x3f	; 63
    23ca:	f8 94       	cli
    23cc:	de bf       	out	0x3e, r29	; 62
    23ce:	0f be       	out	0x3f, r0	; 63
    23d0:	cd bf       	out	0x3d, r28	; 61
    23d2:	cf 91       	pop	r28
    23d4:	df 91       	pop	r29
    23d6:	0f 91       	pop	r16
    23d8:	08 95       	ret

000023da <TSLCDCharDisp>:

void TSLCDCharDisp(char character,int sx,int sy,ts_mode_t mode) 
{
    23da:	df 93       	push	r29
    23dc:	cf 93       	push	r28
    23de:	cd b7       	in	r28, 0x3d	; 61
    23e0:	de b7       	in	r29, 0x3e	; 62
    23e2:	60 97       	sbiw	r28, 0x10	; 16
    23e4:	0f b6       	in	r0, 0x3f	; 63
    23e6:	f8 94       	cli
    23e8:	de bf       	out	0x3e, r29	; 62
    23ea:	0f be       	out	0x3f, r0	; 63
    23ec:	cd bf       	out	0x3d, r28	; 61
    23ee:	8b 87       	std	Y+11, r24	; 0x0b
    23f0:	7d 87       	std	Y+13, r23	; 0x0d
    23f2:	6c 87       	std	Y+12, r22	; 0x0c
    23f4:	5f 87       	std	Y+15, r21	; 0x0f
    23f6:	4e 87       	std	Y+14, r20	; 0x0e
    23f8:	28 8b       	std	Y+16, r18	; 0x10
	int i,j;
	int ex,ey;
	unsigned short c;

	ex = sx + FONT_WIDTH - 1;
    23fa:	8c 85       	ldd	r24, Y+12	; 0x0c
    23fc:	9d 85       	ldd	r25, Y+13	; 0x0d
    23fe:	07 96       	adiw	r24, 0x07	; 7
    2400:	9e 83       	std	Y+6, r25	; 0x06
    2402:	8d 83       	std	Y+5, r24	; 0x05
	ey = sy + FONT_HEIGHT - 1;
    2404:	8e 85       	ldd	r24, Y+14	; 0x0e
    2406:	9f 85       	ldd	r25, Y+15	; 0x0f
    2408:	0f 96       	adiw	r24, 0x0f	; 15
    240a:	98 87       	std	Y+8, r25	; 0x08
    240c:	8f 83       	std	Y+7, r24	; 0x07

	FBufferStore(character - 0x20);
    240e:	8b 85       	ldd	r24, Y+11	; 0x0b
    2410:	80 52       	subi	r24, 0x20	; 32
    2412:	0e 94 16 0a 	call	0x142c	; 0x142c <FBufferStore>

    TSLCDSetWindow(sx, ex, sy, ey);
    2416:	8c 85       	ldd	r24, Y+12	; 0x0c
    2418:	9d 85       	ldd	r25, Y+13	; 0x0d
    241a:	6d 81       	ldd	r22, Y+5	; 0x05
    241c:	7e 81       	ldd	r23, Y+6	; 0x06
    241e:	4e 85       	ldd	r20, Y+14	; 0x0e
    2420:	5f 85       	ldd	r21, Y+15	; 0x0f
    2422:	2f 81       	ldd	r18, Y+7	; 0x07
    2424:	38 85       	ldd	r19, Y+8	; 0x08
    2426:	0e 94 b4 0a 	call	0x1568	; 0x1568 <TSLCDSetWindow>
	TSLCDOutIns(LCD_RW_GRAM);
    242a:	82 e2       	ldi	r24, 0x22	; 34
    242c:	90 e0       	ldi	r25, 0x00	; 0
    242e:	0e 94 82 0b 	call	0x1704	; 0x1704 <TSLCDOutIns>

	switch(mode)
    2432:	88 89       	ldd	r24, Y+16	; 0x10
    2434:	88 2f       	mov	r24, r24
    2436:	90 e0       	ldi	r25, 0x00	; 0
    2438:	81 30       	cpi	r24, 0x01	; 1
    243a:	91 05       	cpc	r25, r1
    243c:	09 f4       	brne	.+2      	; 0x2440 <TSLCDCharDisp+0x66>
    243e:	46 c0       	rjmp	.+140    	; 0x24cc <TSLCDCharDisp+0xf2>
    2440:	82 30       	cpi	r24, 0x02	; 2
    2442:	91 05       	cpc	r25, r1
    2444:	09 f4       	brne	.+2      	; 0x2448 <TSLCDCharDisp+0x6e>
    2446:	89 c0       	rjmp	.+274    	; 0x255a <TSLCDCharDisp+0x180>
    2448:	00 97       	sbiw	r24, 0x00	; 0
    244a:	09 f0       	breq	.+2      	; 0x244e <TSLCDCharDisp+0x74>
    244c:	c7 c0       	rjmp	.+398    	; 0x25dc <TSLCDCharDisp+0x202>
	{
		case TS_MODE_NORMAL:
			for (j=ey-sy; j>=0; j--)
    244e:	2f 81       	ldd	r18, Y+7	; 0x07
    2450:	38 85       	ldd	r19, Y+8	; 0x08
    2452:	8e 85       	ldd	r24, Y+14	; 0x0e
    2454:	9f 85       	ldd	r25, Y+15	; 0x0f
    2456:	a9 01       	movw	r20, r18
    2458:	48 1b       	sub	r20, r24
    245a:	59 0b       	sbc	r21, r25
    245c:	ca 01       	movw	r24, r20
    245e:	9c 83       	std	Y+4, r25	; 0x04
    2460:	8b 83       	std	Y+3, r24	; 0x03
    2462:	2f c0       	rjmp	.+94     	; 0x24c2 <TSLCDCharDisp+0xe8>
				for (i=0; i<ex - sx + 1; i++)
    2464:	1a 82       	std	Y+2, r1	; 0x02
    2466:	19 82       	std	Y+1, r1	; 0x01
    2468:	17 c0       	rjmp	.+46     	; 0x2498 <TSLCDCharDisp+0xbe>
				{
					if (FBufferRead(i,j))
    246a:	89 81       	ldd	r24, Y+1	; 0x01
    246c:	9b 81       	ldd	r25, Y+3	; 0x03
    246e:	69 2f       	mov	r22, r25
    2470:	0e 94 66 0a 	call	0x14cc	; 0x14cc <FBufferRead>
    2474:	88 23       	and	r24, r24
    2476:	39 f0       	breq	.+14     	; 0x2486 <TSLCDCharDisp+0xac>
					{
						TSLCDOutDat(fore_color);
    2478:	80 91 34 01 	lds	r24, 0x0134
    247c:	90 91 35 01 	lds	r25, 0x0135
    2480:	0e 94 18 0b 	call	0x1630	; 0x1630 <TSLCDOutDat>
    2484:	04 c0       	rjmp	.+8      	; 0x248e <TSLCDCharDisp+0xb4>
					}
					else
					{
						c = TSLCDInDat(); 		// ignore invalid data
    2486:	0e 94 ec 0b 	call	0x17d8	; 0x17d8 <TSLCDInDat>
    248a:	9a 87       	std	Y+10, r25	; 0x0a
    248c:	89 87       	std	Y+9, r24	; 0x09

	switch(mode)
	{
		case TS_MODE_NORMAL:
			for (j=ey-sy; j>=0; j--)
				for (i=0; i<ex - sx + 1; i++)
    248e:	89 81       	ldd	r24, Y+1	; 0x01
    2490:	9a 81       	ldd	r25, Y+2	; 0x02
    2492:	01 96       	adiw	r24, 0x01	; 1
    2494:	9a 83       	std	Y+2, r25	; 0x02
    2496:	89 83       	std	Y+1, r24	; 0x01
    2498:	2d 81       	ldd	r18, Y+5	; 0x05
    249a:	3e 81       	ldd	r19, Y+6	; 0x06
    249c:	8c 85       	ldd	r24, Y+12	; 0x0c
    249e:	9d 85       	ldd	r25, Y+13	; 0x0d
    24a0:	a9 01       	movw	r20, r18
    24a2:	48 1b       	sub	r20, r24
    24a4:	59 0b       	sbc	r21, r25
    24a6:	ca 01       	movw	r24, r20
    24a8:	9c 01       	movw	r18, r24
    24aa:	2f 5f       	subi	r18, 0xFF	; 255
    24ac:	3f 4f       	sbci	r19, 0xFF	; 255
    24ae:	89 81       	ldd	r24, Y+1	; 0x01
    24b0:	9a 81       	ldd	r25, Y+2	; 0x02
    24b2:	82 17       	cp	r24, r18
    24b4:	93 07       	cpc	r25, r19
    24b6:	cc f2       	brlt	.-78     	; 0x246a <TSLCDCharDisp+0x90>
	TSLCDOutIns(LCD_RW_GRAM);

	switch(mode)
	{
		case TS_MODE_NORMAL:
			for (j=ey-sy; j>=0; j--)
    24b8:	8b 81       	ldd	r24, Y+3	; 0x03
    24ba:	9c 81       	ldd	r25, Y+4	; 0x04
    24bc:	01 97       	sbiw	r24, 0x01	; 1
    24be:	9c 83       	std	Y+4, r25	; 0x04
    24c0:	8b 83       	std	Y+3, r24	; 0x03
    24c2:	8b 81       	ldd	r24, Y+3	; 0x03
    24c4:	9c 81       	ldd	r25, Y+4	; 0x04
    24c6:	99 23       	and	r25, r25
    24c8:	6c f6       	brge	.-102    	; 0x2464 <TSLCDCharDisp+0x8a>
						c = TSLCDInDat(); 		// ignore invalid data
	//					c = TSLCDInDat();
	//					TSLCDOutDat(c);
					}
				}
			break;
    24ca:	88 c0       	rjmp	.+272    	; 0x25dc <TSLCDCharDisp+0x202>
		case TS_MODE_INVERSE:
			for (j=ey-sy; j>=0; j--)
    24cc:	2f 81       	ldd	r18, Y+7	; 0x07
    24ce:	38 85       	ldd	r19, Y+8	; 0x08
    24d0:	8e 85       	ldd	r24, Y+14	; 0x0e
    24d2:	9f 85       	ldd	r25, Y+15	; 0x0f
    24d4:	a9 01       	movw	r20, r18
    24d6:	48 1b       	sub	r20, r24
    24d8:	59 0b       	sbc	r21, r25
    24da:	ca 01       	movw	r24, r20
    24dc:	9c 83       	std	Y+4, r25	; 0x04
    24de:	8b 83       	std	Y+3, r24	; 0x03
    24e0:	37 c0       	rjmp	.+110    	; 0x2550 <TSLCDCharDisp+0x176>
				for (i=0; i<ex - sx + 1; i++)
    24e2:	1a 82       	std	Y+2, r1	; 0x02
    24e4:	19 82       	std	Y+1, r1	; 0x01
    24e6:	1f c0       	rjmp	.+62     	; 0x2526 <TSLCDCharDisp+0x14c>
				{
					c = TSLCDInDat(); 			// ignore invalid data
    24e8:	0e 94 ec 0b 	call	0x17d8	; 0x17d8 <TSLCDInDat>
    24ec:	9a 87       	std	Y+10, r25	; 0x0a
    24ee:	89 87       	std	Y+9, r24	; 0x09
					c = TSLCDInDat();
    24f0:	0e 94 ec 0b 	call	0x17d8	; 0x17d8 <TSLCDInDat>
    24f4:	9a 87       	std	Y+10, r25	; 0x0a
    24f6:	89 87       	std	Y+9, r24	; 0x09
					if (FBufferRead(i,j))
    24f8:	89 81       	ldd	r24, Y+1	; 0x01
    24fa:	9b 81       	ldd	r25, Y+3	; 0x03
    24fc:	69 2f       	mov	r22, r25
    24fe:	0e 94 66 0a 	call	0x14cc	; 0x14cc <FBufferRead>
    2502:	88 23       	and	r24, r24
    2504:	39 f0       	breq	.+14     	; 0x2514 <TSLCDCharDisp+0x13a>
					{
						TSLCDOutDat(~c);
    2506:	89 85       	ldd	r24, Y+9	; 0x09
    2508:	9a 85       	ldd	r25, Y+10	; 0x0a
    250a:	80 95       	com	r24
    250c:	90 95       	com	r25
    250e:	0e 94 18 0b 	call	0x1630	; 0x1630 <TSLCDOutDat>
    2512:	04 c0       	rjmp	.+8      	; 0x251c <TSLCDCharDisp+0x142>
					}
					else
					{
						TSLCDOutDat(c);
    2514:	89 85       	ldd	r24, Y+9	; 0x09
    2516:	9a 85       	ldd	r25, Y+10	; 0x0a
    2518:	0e 94 18 0b 	call	0x1630	; 0x1630 <TSLCDOutDat>
					}
				}
			break;
		case TS_MODE_INVERSE:
			for (j=ey-sy; j>=0; j--)
				for (i=0; i<ex - sx + 1; i++)
    251c:	89 81       	ldd	r24, Y+1	; 0x01
    251e:	9a 81       	ldd	r25, Y+2	; 0x02
    2520:	01 96       	adiw	r24, 0x01	; 1
    2522:	9a 83       	std	Y+2, r25	; 0x02
    2524:	89 83       	std	Y+1, r24	; 0x01
    2526:	2d 81       	ldd	r18, Y+5	; 0x05
    2528:	3e 81       	ldd	r19, Y+6	; 0x06
    252a:	8c 85       	ldd	r24, Y+12	; 0x0c
    252c:	9d 85       	ldd	r25, Y+13	; 0x0d
    252e:	a9 01       	movw	r20, r18
    2530:	48 1b       	sub	r20, r24
    2532:	59 0b       	sbc	r21, r25
    2534:	ca 01       	movw	r24, r20
    2536:	9c 01       	movw	r18, r24
    2538:	2f 5f       	subi	r18, 0xFF	; 255
    253a:	3f 4f       	sbci	r19, 0xFF	; 255
    253c:	89 81       	ldd	r24, Y+1	; 0x01
    253e:	9a 81       	ldd	r25, Y+2	; 0x02
    2540:	82 17       	cp	r24, r18
    2542:	93 07       	cpc	r25, r19
    2544:	8c f2       	brlt	.-94     	; 0x24e8 <TSLCDCharDisp+0x10e>
	//					TSLCDOutDat(c);
					}
				}
			break;
		case TS_MODE_INVERSE:
			for (j=ey-sy; j>=0; j--)
    2546:	8b 81       	ldd	r24, Y+3	; 0x03
    2548:	9c 81       	ldd	r25, Y+4	; 0x04
    254a:	01 97       	sbiw	r24, 0x01	; 1
    254c:	9c 83       	std	Y+4, r25	; 0x04
    254e:	8b 83       	std	Y+3, r24	; 0x03
    2550:	8b 81       	ldd	r24, Y+3	; 0x03
    2552:	9c 81       	ldd	r25, Y+4	; 0x04
    2554:	99 23       	and	r25, r25
    2556:	2c f6       	brge	.-118    	; 0x24e2 <TSLCDCharDisp+0x108>
					else
					{
						TSLCDOutDat(c);
					}
				}
			break;
    2558:	41 c0       	rjmp	.+130    	; 0x25dc <TSLCDCharDisp+0x202>
		case TS_MODE_FULL:
			for (j=ey-sy; j>=0; j--)
    255a:	2f 81       	ldd	r18, Y+7	; 0x07
    255c:	38 85       	ldd	r19, Y+8	; 0x08
    255e:	8e 85       	ldd	r24, Y+14	; 0x0e
    2560:	9f 85       	ldd	r25, Y+15	; 0x0f
    2562:	a9 01       	movw	r20, r18
    2564:	48 1b       	sub	r20, r24
    2566:	59 0b       	sbc	r21, r25
    2568:	ca 01       	movw	r24, r20
    256a:	9c 83       	std	Y+4, r25	; 0x04
    256c:	8b 83       	std	Y+3, r24	; 0x03
    256e:	31 c0       	rjmp	.+98     	; 0x25d2 <TSLCDCharDisp+0x1f8>
				for (i=0; i<ex - sx + 1; i++)
    2570:	1a 82       	std	Y+2, r1	; 0x02
    2572:	19 82       	std	Y+1, r1	; 0x01
    2574:	19 c0       	rjmp	.+50     	; 0x25a8 <TSLCDCharDisp+0x1ce>
				{
					if (FBufferRead(i,j))
    2576:	89 81       	ldd	r24, Y+1	; 0x01
    2578:	9b 81       	ldd	r25, Y+3	; 0x03
    257a:	69 2f       	mov	r22, r25
    257c:	0e 94 66 0a 	call	0x14cc	; 0x14cc <FBufferRead>
    2580:	88 23       	and	r24, r24
    2582:	39 f0       	breq	.+14     	; 0x2592 <TSLCDCharDisp+0x1b8>
					{
						TSLCDOutDat(fore_color);
    2584:	80 91 34 01 	lds	r24, 0x0134
    2588:	90 91 35 01 	lds	r25, 0x0135
    258c:	0e 94 18 0b 	call	0x1630	; 0x1630 <TSLCDOutDat>
    2590:	06 c0       	rjmp	.+12     	; 0x259e <TSLCDCharDisp+0x1c4>
					}
					else
					{
						TSLCDOutDat(back_color);
    2592:	80 91 30 01 	lds	r24, 0x0130
    2596:	90 91 31 01 	lds	r25, 0x0131
    259a:	0e 94 18 0b 	call	0x1630	; 0x1630 <TSLCDOutDat>
					}
				}
			break;
		case TS_MODE_FULL:
			for (j=ey-sy; j>=0; j--)
				for (i=0; i<ex - sx + 1; i++)
    259e:	89 81       	ldd	r24, Y+1	; 0x01
    25a0:	9a 81       	ldd	r25, Y+2	; 0x02
    25a2:	01 96       	adiw	r24, 0x01	; 1
    25a4:	9a 83       	std	Y+2, r25	; 0x02
    25a6:	89 83       	std	Y+1, r24	; 0x01
    25a8:	2d 81       	ldd	r18, Y+5	; 0x05
    25aa:	3e 81       	ldd	r19, Y+6	; 0x06
    25ac:	8c 85       	ldd	r24, Y+12	; 0x0c
    25ae:	9d 85       	ldd	r25, Y+13	; 0x0d
    25b0:	a9 01       	movw	r20, r18
    25b2:	48 1b       	sub	r20, r24
    25b4:	59 0b       	sbc	r21, r25
    25b6:	ca 01       	movw	r24, r20
    25b8:	9c 01       	movw	r18, r24
    25ba:	2f 5f       	subi	r18, 0xFF	; 255
    25bc:	3f 4f       	sbci	r19, 0xFF	; 255
    25be:	89 81       	ldd	r24, Y+1	; 0x01
    25c0:	9a 81       	ldd	r25, Y+2	; 0x02
    25c2:	82 17       	cp	r24, r18
    25c4:	93 07       	cpc	r25, r19
    25c6:	bc f2       	brlt	.-82     	; 0x2576 <TSLCDCharDisp+0x19c>
						TSLCDOutDat(c);
					}
				}
			break;
		case TS_MODE_FULL:
			for (j=ey-sy; j>=0; j--)
    25c8:	8b 81       	ldd	r24, Y+3	; 0x03
    25ca:	9c 81       	ldd	r25, Y+4	; 0x04
    25cc:	01 97       	sbiw	r24, 0x01	; 1
    25ce:	9c 83       	std	Y+4, r25	; 0x04
    25d0:	8b 83       	std	Y+3, r24	; 0x03
    25d2:	8b 81       	ldd	r24, Y+3	; 0x03
    25d4:	9c 81       	ldd	r25, Y+4	; 0x04
    25d6:	99 23       	and	r25, r25
    25d8:	5c f6       	brge	.-106    	; 0x2570 <TSLCDCharDisp+0x196>
					else
					{
						TSLCDOutDat(back_color);
					}
				}
			break;
    25da:	00 00       	nop
	}
}
    25dc:	60 96       	adiw	r28, 0x10	; 16
    25de:	0f b6       	in	r0, 0x3f	; 63
    25e0:	f8 94       	cli
    25e2:	de bf       	out	0x3e, r29	; 62
    25e4:	0f be       	out	0x3f, r0	; 63
    25e6:	cd bf       	out	0x3d, r28	; 61
    25e8:	cf 91       	pop	r28
    25ea:	df 91       	pop	r29
    25ec:	08 95       	ret

000025ee <TSLCDPrintStr>:

void TSLCDPrintStr(unsigned char line,unsigned char column,char *str,ts_mode_t mode) 
{
    25ee:	df 93       	push	r29
    25f0:	cf 93       	push	r28
    25f2:	cd b7       	in	r28, 0x3d	; 61
    25f4:	de b7       	in	r29, 0x3e	; 62
    25f6:	2b 97       	sbiw	r28, 0x0b	; 11
    25f8:	0f b6       	in	r0, 0x3f	; 63
    25fa:	f8 94       	cli
    25fc:	de bf       	out	0x3e, r29	; 62
    25fe:	0f be       	out	0x3f, r0	; 63
    2600:	cd bf       	out	0x3d, r28	; 61
    2602:	8f 83       	std	Y+7, r24	; 0x07
    2604:	68 87       	std	Y+8, r22	; 0x08
    2606:	5a 87       	std	Y+10, r21	; 0x0a
    2608:	49 87       	std	Y+9, r20	; 0x09
    260a:	2b 87       	std	Y+11, r18	; 0x0b
	int i = 0;
    260c:	1a 82       	std	Y+2, r1	; 0x02
    260e:	19 82       	std	Y+1, r1	; 0x01
	int posx = offsetx + column*FONT_WIDTH;
    2610:	88 85       	ldd	r24, Y+8	; 0x08
    2612:	88 2f       	mov	r24, r24
    2614:	90 e0       	ldi	r25, 0x00	; 0
    2616:	9c 01       	movw	r18, r24
    2618:	22 0f       	add	r18, r18
    261a:	33 1f       	adc	r19, r19
    261c:	22 0f       	add	r18, r18
    261e:	33 1f       	adc	r19, r19
    2620:	22 0f       	add	r18, r18
    2622:	33 1f       	adc	r19, r19
    2624:	80 91 32 01 	lds	r24, 0x0132
    2628:	90 91 33 01 	lds	r25, 0x0133
    262c:	82 0f       	add	r24, r18
    262e:	93 1f       	adc	r25, r19
    2630:	9c 83       	std	Y+4, r25	; 0x04
    2632:	8b 83       	std	Y+3, r24	; 0x03
	int posy = offsety + line*FONT_HEIGHT;
    2634:	8f 81       	ldd	r24, Y+7	; 0x07
    2636:	88 2f       	mov	r24, r24
    2638:	90 e0       	ldi	r25, 0x00	; 0
    263a:	9c 01       	movw	r18, r24
    263c:	22 95       	swap	r18
    263e:	32 95       	swap	r19
    2640:	30 7f       	andi	r19, 0xF0	; 240
    2642:	32 27       	eor	r19, r18
    2644:	20 7f       	andi	r18, 0xF0	; 240
    2646:	32 27       	eor	r19, r18
    2648:	80 91 1e 01 	lds	r24, 0x011E
    264c:	90 91 1f 01 	lds	r25, 0x011F
    2650:	82 0f       	add	r24, r18
    2652:	93 1f       	adc	r25, r19
    2654:	9e 83       	std	Y+6, r25	; 0x06
    2656:	8d 83       	std	Y+5, r24	; 0x05

	while(str[i])
    2658:	1b c0       	rjmp	.+54     	; 0x2690 <TSLCDPrintStr+0xa2>
	{
		TSLCDCharDisp(str[i],posx,posy,mode);
    265a:	89 81       	ldd	r24, Y+1	; 0x01
    265c:	9a 81       	ldd	r25, Y+2	; 0x02
    265e:	29 85       	ldd	r18, Y+9	; 0x09
    2660:	3a 85       	ldd	r19, Y+10	; 0x0a
    2662:	82 0f       	add	r24, r18
    2664:	93 1f       	adc	r25, r19
    2666:	fc 01       	movw	r30, r24
    2668:	80 81       	ld	r24, Z
    266a:	4b 81       	ldd	r20, Y+3	; 0x03
    266c:	5c 81       	ldd	r21, Y+4	; 0x04
    266e:	2d 81       	ldd	r18, Y+5	; 0x05
    2670:	3e 81       	ldd	r19, Y+6	; 0x06
    2672:	ba 01       	movw	r22, r20
    2674:	a9 01       	movw	r20, r18
    2676:	2b 85       	ldd	r18, Y+11	; 0x0b
    2678:	0e 94 ed 11 	call	0x23da	; 0x23da <TSLCDCharDisp>
		posx += FONT_WIDTH;
    267c:	8b 81       	ldd	r24, Y+3	; 0x03
    267e:	9c 81       	ldd	r25, Y+4	; 0x04
    2680:	08 96       	adiw	r24, 0x08	; 8
    2682:	9c 83       	std	Y+4, r25	; 0x04
    2684:	8b 83       	std	Y+3, r24	; 0x03
		i++;
    2686:	89 81       	ldd	r24, Y+1	; 0x01
    2688:	9a 81       	ldd	r25, Y+2	; 0x02
    268a:	01 96       	adiw	r24, 0x01	; 1
    268c:	9a 83       	std	Y+2, r25	; 0x02
    268e:	89 83       	std	Y+1, r24	; 0x01
{
	int i = 0;
	int posx = offsetx + column*FONT_WIDTH;
	int posy = offsety + line*FONT_HEIGHT;

	while(str[i])
    2690:	89 81       	ldd	r24, Y+1	; 0x01
    2692:	9a 81       	ldd	r25, Y+2	; 0x02
    2694:	29 85       	ldd	r18, Y+9	; 0x09
    2696:	3a 85       	ldd	r19, Y+10	; 0x0a
    2698:	82 0f       	add	r24, r18
    269a:	93 1f       	adc	r25, r19
    269c:	fc 01       	movw	r30, r24
    269e:	80 81       	ld	r24, Z
    26a0:	88 23       	and	r24, r24
    26a2:	d9 f6       	brne	.-74     	; 0x265a <TSLCDPrintStr+0x6c>
	{
		TSLCDCharDisp(str[i],posx,posy,mode);
		posx += FONT_WIDTH;
		i++;
	}
}
    26a4:	2b 96       	adiw	r28, 0x0b	; 11
    26a6:	0f b6       	in	r0, 0x3f	; 63
    26a8:	f8 94       	cli
    26aa:	de bf       	out	0x3e, r29	; 62
    26ac:	0f be       	out	0x3f, r0	; 63
    26ae:	cd bf       	out	0x3d, r28	; 61
    26b0:	cf 91       	pop	r28
    26b2:	df 91       	pop	r29
    26b4:	08 95       	ret

000026b6 <TSLCDPrintTxt>:

void TSLCDPrintTxt(unsigned char line,unsigned char column,const char *txt,ts_mode_t mode)
{
    26b6:	1f 93       	push	r17
    26b8:	df 93       	push	r29
    26ba:	cf 93       	push	r28
    26bc:	cd b7       	in	r28, 0x3d	; 61
    26be:	de b7       	in	r29, 0x3e	; 62
    26c0:	61 97       	sbiw	r28, 0x11	; 17
    26c2:	0f b6       	in	r0, 0x3f	; 63
    26c4:	f8 94       	cli
    26c6:	de bf       	out	0x3e, r29	; 62
    26c8:	0f be       	out	0x3f, r0	; 63
    26ca:	cd bf       	out	0x3d, r28	; 61
    26cc:	8d 87       	std	Y+13, r24	; 0x0d
    26ce:	6e 87       	std	Y+14, r22	; 0x0e
    26d0:	58 8b       	std	Y+16, r21	; 0x10
    26d2:	4f 87       	std	Y+15, r20	; 0x0f
    26d4:	29 8b       	std	Y+17, r18	; 0x11
	// Print text from code memory
	int i = 0;
    26d6:	1a 82       	std	Y+2, r1	; 0x02
    26d8:	19 82       	std	Y+1, r1	; 0x01
	int posx = offsetx + column*FONT_WIDTH;
    26da:	8e 85       	ldd	r24, Y+14	; 0x0e
    26dc:	88 2f       	mov	r24, r24
    26de:	90 e0       	ldi	r25, 0x00	; 0
    26e0:	9c 01       	movw	r18, r24
    26e2:	22 0f       	add	r18, r18
    26e4:	33 1f       	adc	r19, r19
    26e6:	22 0f       	add	r18, r18
    26e8:	33 1f       	adc	r19, r19
    26ea:	22 0f       	add	r18, r18
    26ec:	33 1f       	adc	r19, r19
    26ee:	80 91 32 01 	lds	r24, 0x0132
    26f2:	90 91 33 01 	lds	r25, 0x0133
    26f6:	82 0f       	add	r24, r18
    26f8:	93 1f       	adc	r25, r19
    26fa:	9c 83       	std	Y+4, r25	; 0x04
    26fc:	8b 83       	std	Y+3, r24	; 0x03
	int posy = offsety + line*FONT_HEIGHT;
    26fe:	8d 85       	ldd	r24, Y+13	; 0x0d
    2700:	88 2f       	mov	r24, r24
    2702:	90 e0       	ldi	r25, 0x00	; 0
    2704:	9c 01       	movw	r18, r24
    2706:	22 95       	swap	r18
    2708:	32 95       	swap	r19
    270a:	30 7f       	andi	r19, 0xF0	; 240
    270c:	32 27       	eor	r19, r18
    270e:	20 7f       	andi	r18, 0xF0	; 240
    2710:	32 27       	eor	r19, r18
    2712:	80 91 1e 01 	lds	r24, 0x011E
    2716:	90 91 1f 01 	lds	r25, 0x011F
    271a:	82 0f       	add	r24, r18
    271c:	93 1f       	adc	r25, r19
    271e:	9e 83       	std	Y+6, r25	; 0x06
    2720:	8d 83       	std	Y+5, r24	; 0x05

	while(pgm_read_byte(&txt[i]))
    2722:	21 c0       	rjmp	.+66     	; 0x2766 <TSLCDPrintTxt+0xb0>
	{
		TSLCDCharDisp(pgm_read_byte(&txt[i]),posx,posy,mode);
    2724:	89 81       	ldd	r24, Y+1	; 0x01
    2726:	9a 81       	ldd	r25, Y+2	; 0x02
    2728:	2f 85       	ldd	r18, Y+15	; 0x0f
    272a:	38 89       	ldd	r19, Y+16	; 0x10
    272c:	82 0f       	add	r24, r18
    272e:	93 1f       	adc	r25, r19
    2730:	9b 87       	std	Y+11, r25	; 0x0b
    2732:	8a 87       	std	Y+10, r24	; 0x0a
    2734:	8a 85       	ldd	r24, Y+10	; 0x0a
    2736:	9b 85       	ldd	r25, Y+11	; 0x0b
    2738:	fc 01       	movw	r30, r24
    273a:	14 91       	lpm	r17, Z+
    273c:	1c 87       	std	Y+12, r17	; 0x0c
    273e:	8c 85       	ldd	r24, Y+12	; 0x0c
    2740:	4b 81       	ldd	r20, Y+3	; 0x03
    2742:	5c 81       	ldd	r21, Y+4	; 0x04
    2744:	2d 81       	ldd	r18, Y+5	; 0x05
    2746:	3e 81       	ldd	r19, Y+6	; 0x06
    2748:	ba 01       	movw	r22, r20
    274a:	a9 01       	movw	r20, r18
    274c:	29 89       	ldd	r18, Y+17	; 0x11
    274e:	0e 94 ed 11 	call	0x23da	; 0x23da <TSLCDCharDisp>
		posx += FONT_WIDTH;
    2752:	8b 81       	ldd	r24, Y+3	; 0x03
    2754:	9c 81       	ldd	r25, Y+4	; 0x04
    2756:	08 96       	adiw	r24, 0x08	; 8
    2758:	9c 83       	std	Y+4, r25	; 0x04
    275a:	8b 83       	std	Y+3, r24	; 0x03
		i++;
    275c:	89 81       	ldd	r24, Y+1	; 0x01
    275e:	9a 81       	ldd	r25, Y+2	; 0x02
    2760:	01 96       	adiw	r24, 0x01	; 1
    2762:	9a 83       	std	Y+2, r25	; 0x02
    2764:	89 83       	std	Y+1, r24	; 0x01
	// Print text from code memory
	int i = 0;
	int posx = offsetx + column*FONT_WIDTH;
	int posy = offsety + line*FONT_HEIGHT;

	while(pgm_read_byte(&txt[i]))
    2766:	89 81       	ldd	r24, Y+1	; 0x01
    2768:	9a 81       	ldd	r25, Y+2	; 0x02
    276a:	2f 85       	ldd	r18, Y+15	; 0x0f
    276c:	38 89       	ldd	r19, Y+16	; 0x10
    276e:	82 0f       	add	r24, r18
    2770:	93 1f       	adc	r25, r19
    2772:	98 87       	std	Y+8, r25	; 0x08
    2774:	8f 83       	std	Y+7, r24	; 0x07
    2776:	8f 81       	ldd	r24, Y+7	; 0x07
    2778:	98 85       	ldd	r25, Y+8	; 0x08
    277a:	fc 01       	movw	r30, r24
    277c:	14 91       	lpm	r17, Z+
    277e:	19 87       	std	Y+9, r17	; 0x09
    2780:	89 85       	ldd	r24, Y+9	; 0x09
    2782:	88 23       	and	r24, r24
    2784:	79 f6       	brne	.-98     	; 0x2724 <TSLCDPrintTxt+0x6e>
	{
		TSLCDCharDisp(pgm_read_byte(&txt[i]),posx,posy,mode);
		posx += FONT_WIDTH;
		i++;
	}
}
    2786:	61 96       	adiw	r28, 0x11	; 17
    2788:	0f b6       	in	r0, 0x3f	; 63
    278a:	f8 94       	cli
    278c:	de bf       	out	0x3e, r29	; 62
    278e:	0f be       	out	0x3f, r0	; 63
    2790:	cd bf       	out	0x3d, r28	; 61
    2792:	cf 91       	pop	r28
    2794:	df 91       	pop	r29
    2796:	1f 91       	pop	r17
    2798:	08 95       	ret

0000279a <TSLCDPrintCh>:

void TSLCDPrintCh(unsigned char line,unsigned char column,char c,ts_mode_t mode) //print a character on LCD
{
    279a:	df 93       	push	r29
    279c:	cf 93       	push	r28
    279e:	cd b7       	in	r28, 0x3d	; 61
    27a0:	de b7       	in	r29, 0x3e	; 62
    27a2:	28 97       	sbiw	r28, 0x08	; 8
    27a4:	0f b6       	in	r0, 0x3f	; 63
    27a6:	f8 94       	cli
    27a8:	de bf       	out	0x3e, r29	; 62
    27aa:	0f be       	out	0x3f, r0	; 63
    27ac:	cd bf       	out	0x3d, r28	; 61
    27ae:	8d 83       	std	Y+5, r24	; 0x05
    27b0:	6e 83       	std	Y+6, r22	; 0x06
    27b2:	4f 83       	std	Y+7, r20	; 0x07
    27b4:	28 87       	std	Y+8, r18	; 0x08
	int posx = offsetx + column*FONT_WIDTH;
    27b6:	8e 81       	ldd	r24, Y+6	; 0x06
    27b8:	88 2f       	mov	r24, r24
    27ba:	90 e0       	ldi	r25, 0x00	; 0
    27bc:	9c 01       	movw	r18, r24
    27be:	22 0f       	add	r18, r18
    27c0:	33 1f       	adc	r19, r19
    27c2:	22 0f       	add	r18, r18
    27c4:	33 1f       	adc	r19, r19
    27c6:	22 0f       	add	r18, r18
    27c8:	33 1f       	adc	r19, r19
    27ca:	80 91 32 01 	lds	r24, 0x0132
    27ce:	90 91 33 01 	lds	r25, 0x0133
    27d2:	82 0f       	add	r24, r18
    27d4:	93 1f       	adc	r25, r19
    27d6:	9a 83       	std	Y+2, r25	; 0x02
    27d8:	89 83       	std	Y+1, r24	; 0x01
	int posy = offsety + line*FONT_HEIGHT;
    27da:	8d 81       	ldd	r24, Y+5	; 0x05
    27dc:	88 2f       	mov	r24, r24
    27de:	90 e0       	ldi	r25, 0x00	; 0
    27e0:	9c 01       	movw	r18, r24
    27e2:	22 95       	swap	r18
    27e4:	32 95       	swap	r19
    27e6:	30 7f       	andi	r19, 0xF0	; 240
    27e8:	32 27       	eor	r19, r18
    27ea:	20 7f       	andi	r18, 0xF0	; 240
    27ec:	32 27       	eor	r19, r18
    27ee:	80 91 1e 01 	lds	r24, 0x011E
    27f2:	90 91 1f 01 	lds	r25, 0x011F
    27f6:	82 0f       	add	r24, r18
    27f8:	93 1f       	adc	r25, r19
    27fa:	9c 83       	std	Y+4, r25	; 0x04
    27fc:	8b 83       	std	Y+3, r24	; 0x03

	TSLCDCharDisp(c,posx,posy,mode);
    27fe:	49 81       	ldd	r20, Y+1	; 0x01
    2800:	5a 81       	ldd	r21, Y+2	; 0x02
    2802:	2b 81       	ldd	r18, Y+3	; 0x03
    2804:	3c 81       	ldd	r19, Y+4	; 0x04
    2806:	8f 81       	ldd	r24, Y+7	; 0x07
    2808:	ba 01       	movw	r22, r20
    280a:	a9 01       	movw	r20, r18
    280c:	28 85       	ldd	r18, Y+8	; 0x08
    280e:	0e 94 ed 11 	call	0x23da	; 0x23da <TSLCDCharDisp>
}
    2812:	28 96       	adiw	r28, 0x08	; 8
    2814:	0f b6       	in	r0, 0x3f	; 63
    2816:	f8 94       	cli
    2818:	de bf       	out	0x3e, r29	; 62
    281a:	0f be       	out	0x3f, r0	; 63
    281c:	cd bf       	out	0x3d, r28	; 61
    281e:	cf 91       	pop	r28
    2820:	df 91       	pop	r29
    2822:	08 95       	ret

00002824 <__vector_1>:
//Global Signal for INT0
volatile int TIMES=1;

//Interrupt Service Routine for INT0 to Generate WEN
ISR(INT0_vect)
{
    2824:	1f 92       	push	r1
    2826:	0f 92       	push	r0
    2828:	0f b6       	in	r0, 0x3f	; 63
    282a:	0f 92       	push	r0
    282c:	11 24       	eor	r1, r1
    282e:	2f 93       	push	r18
    2830:	3f 93       	push	r19
    2832:	8f 93       	push	r24
    2834:	9f 93       	push	r25
    2836:	ef 93       	push	r30
    2838:	ff 93       	push	r31
    283a:	df 93       	push	r29
    283c:	cf 93       	push	r28
    283e:	cd b7       	in	r28, 0x3d	; 61
    2840:	de b7       	in	r29, 0x3e	; 62
	if (TIMES==1)
    2842:	80 91 00 01 	lds	r24, 0x0100
    2846:	90 91 01 01 	lds	r25, 0x0101
    284a:	81 30       	cpi	r24, 0x01	; 1
    284c:	91 05       	cpc	r25, r1
    284e:	99 f4       	brne	.+38     	; 0x2876 <__vector_1+0x52>
	{
		FIFO_WEN_SET;
    2850:	8b e2       	ldi	r24, 0x2B	; 43
    2852:	90 e0       	ldi	r25, 0x00	; 0
    2854:	2b e2       	ldi	r18, 0x2B	; 43
    2856:	30 e0       	ldi	r19, 0x00	; 0
    2858:	f9 01       	movw	r30, r18
    285a:	20 81       	ld	r18, Z
    285c:	20 64       	ori	r18, 0x40	; 64
    285e:	fc 01       	movw	r30, r24
    2860:	20 83       	st	Z, r18
		TIMES++;
    2862:	80 91 00 01 	lds	r24, 0x0100
    2866:	90 91 01 01 	lds	r25, 0x0101
    286a:	01 96       	adiw	r24, 0x01	; 1
    286c:	90 93 01 01 	sts	0x0101, r25
    2870:	80 93 00 01 	sts	0x0100, r24
    2874:	31 c0       	rjmp	.+98     	; 0x28d8 <__vector_1+0xb4>
	}
	else if (TIMES==2)
    2876:	80 91 00 01 	lds	r24, 0x0100
    287a:	90 91 01 01 	lds	r25, 0x0101
    287e:	82 30       	cpi	r24, 0x02	; 2
    2880:	91 05       	cpc	r25, r1
    2882:	99 f4       	brne	.+38     	; 0x28aa <__vector_1+0x86>
	{
		FIFO_WEN_CLR;
    2884:	8b e2       	ldi	r24, 0x2B	; 43
    2886:	90 e0       	ldi	r25, 0x00	; 0
    2888:	2b e2       	ldi	r18, 0x2B	; 43
    288a:	30 e0       	ldi	r19, 0x00	; 0
    288c:	f9 01       	movw	r30, r18
    288e:	20 81       	ld	r18, Z
    2890:	2f 7b       	andi	r18, 0xBF	; 191
    2892:	fc 01       	movw	r30, r24
    2894:	20 83       	st	Z, r18
		TIMES++;
    2896:	80 91 00 01 	lds	r24, 0x0100
    289a:	90 91 01 01 	lds	r25, 0x0101
    289e:	01 96       	adiw	r24, 0x01	; 1
    28a0:	90 93 01 01 	sts	0x0101, r25
    28a4:	80 93 00 01 	sts	0x0100, r24
    28a8:	17 c0       	rjmp	.+46     	; 0x28d8 <__vector_1+0xb4>
	}
	else if (TIMES<57)
    28aa:	80 91 00 01 	lds	r24, 0x0100
    28ae:	90 91 01 01 	lds	r25, 0x0101
    28b2:	89 33       	cpi	r24, 0x39	; 57
    28b4:	91 05       	cpc	r25, r1
    28b6:	54 f4       	brge	.+20     	; 0x28cc <__vector_1+0xa8>
	{
		TIMES++;
    28b8:	80 91 00 01 	lds	r24, 0x0100
    28bc:	90 91 01 01 	lds	r25, 0x0101
    28c0:	01 96       	adiw	r24, 0x01	; 1
    28c2:	90 93 01 01 	sts	0x0101, r25
    28c6:	80 93 00 01 	sts	0x0100, r24
    28ca:	06 c0       	rjmp	.+12     	; 0x28d8 <__vector_1+0xb4>
	}
	else
	{
		TIMES=1;
    28cc:	81 e0       	ldi	r24, 0x01	; 1
    28ce:	90 e0       	ldi	r25, 0x00	; 0
    28d0:	90 93 01 01 	sts	0x0101, r25
    28d4:	80 93 00 01 	sts	0x0100, r24
	}
}
    28d8:	cf 91       	pop	r28
    28da:	df 91       	pop	r29
    28dc:	ff 91       	pop	r31
    28de:	ef 91       	pop	r30
    28e0:	9f 91       	pop	r25
    28e2:	8f 91       	pop	r24
    28e4:	3f 91       	pop	r19
    28e6:	2f 91       	pop	r18
    28e8:	0f 90       	pop	r0
    28ea:	0f be       	out	0x3f, r0	; 63
    28ec:	0f 90       	pop	r0
    28ee:	1f 90       	pop	r1
    28f0:	18 95       	reti

000028f2 <main>:



void main(void)
{
    28f2:	ef 92       	push	r14
    28f4:	0f 93       	push	r16
    28f6:	1f 93       	push	r17
    28f8:	df 93       	push	r29
    28fa:	cf 93       	push	r28
    28fc:	00 d0       	rcall	.+0      	; 0x28fe <main+0xc>
    28fe:	00 d0       	rcall	.+0      	; 0x2900 <main+0xe>
    2900:	00 d0       	rcall	.+0      	; 0x2902 <main+0x10>
    2902:	cd b7       	in	r28, 0x3d	; 61
    2904:	de b7       	in	r29, 0x3e	; 62
	delay_ms(100);
    2906:	84 e6       	ldi	r24, 0x64	; 100
    2908:	90 e0       	ldi	r25, 0x00	; 0
    290a:	0e 94 a7 06 	call	0xd4e	; 0xd4e <delay_ms>
	TSLCDReset();
    290e:	0e 94 d4 0c 	call	0x19a8	; 0x19a8 <TSLCDReset>
	TSLCDInit();
    2912:	0e 94 2b 0d 	call	0x1a56	; 0x1a56 <TSLCDInit>
// Example Display
	TSLCDFillRect(0,TS_SIZE_X-1,0,TS_SIZE_Y-1,TS_COL_BLUE,TS_MODE_NORMAL);
    2916:	80 e0       	ldi	r24, 0x00	; 0
    2918:	90 e0       	ldi	r25, 0x00	; 0
    291a:	6f e3       	ldi	r22, 0x3F	; 63
    291c:	71 e0       	ldi	r23, 0x01	; 1
    291e:	40 e0       	ldi	r20, 0x00	; 0
    2920:	50 e0       	ldi	r21, 0x00	; 0
    2922:	2f ed       	ldi	r18, 0xDF	; 223
    2924:	31 e0       	ldi	r19, 0x01	; 1
    2926:	0f e1       	ldi	r16, 0x1F	; 31
    2928:	10 e0       	ldi	r17, 0x00	; 0
    292a:	ee 24       	eor	r14, r14
    292c:	0e 94 dd 0f 	call	0x1fba	; 0x1fba <TSLCDFillRect>
	TSLCDFillRect(0,TS_SIZE_X-1,0,70,TS_COL_WHITE,TS_MODE_NORMAL);
    2930:	80 e0       	ldi	r24, 0x00	; 0
    2932:	90 e0       	ldi	r25, 0x00	; 0
    2934:	6f e3       	ldi	r22, 0x3F	; 63
    2936:	71 e0       	ldi	r23, 0x01	; 1
    2938:	40 e0       	ldi	r20, 0x00	; 0
    293a:	50 e0       	ldi	r21, 0x00	; 0
    293c:	26 e4       	ldi	r18, 0x46	; 70
    293e:	30 e0       	ldi	r19, 0x00	; 0
    2940:	0f ef       	ldi	r16, 0xFF	; 255
    2942:	1f ef       	ldi	r17, 0xFF	; 255
    2944:	ee 24       	eor	r14, r14
    2946:	0e 94 dd 0f 	call	0x1fba	; 0x1fba <TSLCDFillRect>
	TSLCDFillRect(10,60,100,200,TS_COL_RED,TS_MODE_NORMAL);
    294a:	8a e0       	ldi	r24, 0x0A	; 10
    294c:	90 e0       	ldi	r25, 0x00	; 0
    294e:	6c e3       	ldi	r22, 0x3C	; 60
    2950:	70 e0       	ldi	r23, 0x00	; 0
    2952:	44 e6       	ldi	r20, 0x64	; 100
    2954:	50 e0       	ldi	r21, 0x00	; 0
    2956:	28 ec       	ldi	r18, 0xC8	; 200
    2958:	30 e0       	ldi	r19, 0x00	; 0
    295a:	00 e0       	ldi	r16, 0x00	; 0
    295c:	18 ef       	ldi	r17, 0xF8	; 248
    295e:	ee 24       	eor	r14, r14
    2960:	0e 94 dd 0f 	call	0x1fba	; 0x1fba <TSLCDFillRect>
	TSLCDFillRect(20,80,90,130,TS_COL_BLACK,TS_MODE_NORMAL);
    2964:	84 e1       	ldi	r24, 0x14	; 20
    2966:	90 e0       	ldi	r25, 0x00	; 0
    2968:	60 e5       	ldi	r22, 0x50	; 80
    296a:	70 e0       	ldi	r23, 0x00	; 0
    296c:	4a e5       	ldi	r20, 0x5A	; 90
    296e:	50 e0       	ldi	r21, 0x00	; 0
    2970:	22 e8       	ldi	r18, 0x82	; 130
    2972:	30 e0       	ldi	r19, 0x00	; 0
    2974:	00 e0       	ldi	r16, 0x00	; 0
    2976:	10 e0       	ldi	r17, 0x00	; 0
    2978:	ee 24       	eor	r14, r14
    297a:	0e 94 dd 0f 	call	0x1fba	; 0x1fba <TSLCDFillRect>
	TSLCDFillRect(30,90,100,140,TS_COL_YELLOW,TS_MODE_NORMAL);
    297e:	8e e1       	ldi	r24, 0x1E	; 30
    2980:	90 e0       	ldi	r25, 0x00	; 0
    2982:	6a e5       	ldi	r22, 0x5A	; 90
    2984:	70 e0       	ldi	r23, 0x00	; 0
    2986:	44 e6       	ldi	r20, 0x64	; 100
    2988:	50 e0       	ldi	r21, 0x00	; 0
    298a:	2c e8       	ldi	r18, 0x8C	; 140
    298c:	30 e0       	ldi	r19, 0x00	; 0
    298e:	00 ee       	ldi	r16, 0xE0	; 224
    2990:	1f ef       	ldi	r17, 0xFF	; 255
    2992:	ee 24       	eor	r14, r14
    2994:	0e 94 dd 0f 	call	0x1fba	; 0x1fba <TSLCDFillRect>
	TSLCDFillRect(20,80,160,200,TS_COL_BLACK,TS_MODE_NORMAL);
    2998:	84 e1       	ldi	r24, 0x14	; 20
    299a:	90 e0       	ldi	r25, 0x00	; 0
    299c:	60 e5       	ldi	r22, 0x50	; 80
    299e:	70 e0       	ldi	r23, 0x00	; 0
    29a0:	40 ea       	ldi	r20, 0xA0	; 160
    29a2:	50 e0       	ldi	r21, 0x00	; 0
    29a4:	28 ec       	ldi	r18, 0xC8	; 200
    29a6:	30 e0       	ldi	r19, 0x00	; 0
    29a8:	00 e0       	ldi	r16, 0x00	; 0
    29aa:	10 e0       	ldi	r17, 0x00	; 0
    29ac:	ee 24       	eor	r14, r14
    29ae:	0e 94 dd 0f 	call	0x1fba	; 0x1fba <TSLCDFillRect>
	TSLCDFillRect(30,90,170,210,TS_COL_RED,TS_MODE_NORMAL);
    29b2:	8e e1       	ldi	r24, 0x1E	; 30
    29b4:	90 e0       	ldi	r25, 0x00	; 0
    29b6:	6a e5       	ldi	r22, 0x5A	; 90
    29b8:	70 e0       	ldi	r23, 0x00	; 0
    29ba:	4a ea       	ldi	r20, 0xAA	; 170
    29bc:	50 e0       	ldi	r21, 0x00	; 0
    29be:	22 ed       	ldi	r18, 0xD2	; 210
    29c0:	30 e0       	ldi	r19, 0x00	; 0
    29c2:	00 e0       	ldi	r16, 0x00	; 0
    29c4:	18 ef       	ldi	r17, 0xF8	; 248
    29c6:	ee 24       	eor	r14, r14
    29c8:	0e 94 dd 0f 	call	0x1fba	; 0x1fba <TSLCDFillRect>
	TSLCDFillRect(195,205,71,TS_SIZE_Y-1,TS_COL_WHITE,TS_MODE_NORMAL);
    29cc:	83 ec       	ldi	r24, 0xC3	; 195
    29ce:	90 e0       	ldi	r25, 0x00	; 0
    29d0:	6d ec       	ldi	r22, 0xCD	; 205
    29d2:	70 e0       	ldi	r23, 0x00	; 0
    29d4:	47 e4       	ldi	r20, 0x47	; 71
    29d6:	50 e0       	ldi	r21, 0x00	; 0
    29d8:	2f ed       	ldi	r18, 0xDF	; 223
    29da:	31 e0       	ldi	r19, 0x01	; 1
    29dc:	0f ef       	ldi	r16, 0xFF	; 255
    29de:	1f ef       	ldi	r17, 0xFF	; 255
    29e0:	ee 24       	eor	r14, r14
    29e2:	0e 94 dd 0f 	call	0x1fba	; 0x1fba <TSLCDFillRect>
	delay_ms(1000);
    29e6:	88 ee       	ldi	r24, 0xE8	; 232
    29e8:	93 e0       	ldi	r25, 0x03	; 3
    29ea:	0e 94 a7 06 	call	0xd4e	; 0xd4e <delay_ms>
	TSLCDFillCirc(200,155,60,TS_COL_WHITE,TS_MODE_FULL);
    29ee:	88 ec       	ldi	r24, 0xC8	; 200
    29f0:	90 e0       	ldi	r25, 0x00	; 0
    29f2:	6b e9       	ldi	r22, 0x9B	; 155
    29f4:	70 e0       	ldi	r23, 0x00	; 0
    29f6:	4c e3       	ldi	r20, 0x3C	; 60
    29f8:	50 e0       	ldi	r21, 0x00	; 0
    29fa:	2f ef       	ldi	r18, 0xFF	; 255
    29fc:	3f ef       	ldi	r19, 0xFF	; 255
    29fe:	02 e0       	ldi	r16, 0x02	; 2
    2a00:	0e 94 8b 10 	call	0x2116	; 0x2116 <TSLCDFillCirc>
	TSLCDFillCirc(200,155,50,TS_COL_BLUE,TS_MODE_FULL);
    2a04:	88 ec       	ldi	r24, 0xC8	; 200
    2a06:	90 e0       	ldi	r25, 0x00	; 0
    2a08:	6b e9       	ldi	r22, 0x9B	; 155
    2a0a:	70 e0       	ldi	r23, 0x00	; 0
    2a0c:	42 e3       	ldi	r20, 0x32	; 50
    2a0e:	50 e0       	ldi	r21, 0x00	; 0
    2a10:	2f e1       	ldi	r18, 0x1F	; 31
    2a12:	30 e0       	ldi	r19, 0x00	; 0
    2a14:	02 e0       	ldi	r16, 0x02	; 2
    2a16:	0e 94 8b 10 	call	0x2116	; 0x2116 <TSLCDFillCirc>
	TSLCDFillCirc(200,155,40,TS_COL_BLACK,TS_MODE_FULL);
    2a1a:	88 ec       	ldi	r24, 0xC8	; 200
    2a1c:	90 e0       	ldi	r25, 0x00	; 0
    2a1e:	6b e9       	ldi	r22, 0x9B	; 155
    2a20:	70 e0       	ldi	r23, 0x00	; 0
    2a22:	48 e2       	ldi	r20, 0x28	; 40
    2a24:	50 e0       	ldi	r21, 0x00	; 0
    2a26:	20 e0       	ldi	r18, 0x00	; 0
    2a28:	30 e0       	ldi	r19, 0x00	; 0
    2a2a:	02 e0       	ldi	r16, 0x02	; 2
    2a2c:	0e 94 8b 10 	call	0x2116	; 0x2116 <TSLCDFillCirc>
	TSLCDFillCirc(200,155,30,TS_COL_RED,TS_MODE_FULL);
    2a30:	88 ec       	ldi	r24, 0xC8	; 200
    2a32:	90 e0       	ldi	r25, 0x00	; 0
    2a34:	6b e9       	ldi	r22, 0x9B	; 155
    2a36:	70 e0       	ldi	r23, 0x00	; 0
    2a38:	4e e1       	ldi	r20, 0x1E	; 30
    2a3a:	50 e0       	ldi	r21, 0x00	; 0
    2a3c:	20 e0       	ldi	r18, 0x00	; 0
    2a3e:	38 ef       	ldi	r19, 0xF8	; 248
    2a40:	02 e0       	ldi	r16, 0x02	; 2
    2a42:	0e 94 8b 10 	call	0x2116	; 0x2116 <TSLCDFillCirc>
	delay_ms(1000);
    2a46:	88 ee       	ldi	r24, 0xE8	; 232
    2a48:	93 e0       	ldi	r25, 0x03	; 3
    2a4a:	0e 94 a7 06 	call	0xd4e	; 0xd4e <delay_ms>
	TSLCDSetBackColor(TS_COL_BLACK);
    2a4e:	80 e0       	ldi	r24, 0x00	; 0
    2a50:	90 e0       	ldi	r25, 0x00	; 0
    2a52:	0e 94 b3 0e 	call	0x1d66	; 0x1d66 <TSLCDSetBackColor>
	TSLCDSetForeColor(TS_COL_YELLOW);
    2a56:	80 ee       	ldi	r24, 0xE0	; 224
    2a58:	9f ef       	ldi	r25, 0xFF	; 255
    2a5a:	0e 94 a1 0e 	call	0x1d42	; 0x1d42 <TSLCDSetForeColor>
	TSLCDPrintStr(2,6,"** LCD Initial Succeed! **",TS_MODE_FULL);
    2a5e:	22 e0       	ldi	r18, 0x02	; 2
    2a60:	31 e0       	ldi	r19, 0x01	; 1
    2a62:	82 e0       	ldi	r24, 0x02	; 2
    2a64:	66 e0       	ldi	r22, 0x06	; 6
    2a66:	a9 01       	movw	r20, r18
    2a68:	22 e0       	ldi	r18, 0x02	; 2
    2a6a:	0e 94 f7 12 	call	0x25ee	; 0x25ee <TSLCDPrintStr>

//	DDRA = 0b00000000;
//	PORTB &= ~(1<<LCD_CS_PIN);
//	PORTB &= ~(1<<LCD_WR_PIN);
	delay_ms(100);
    2a6e:	84 e6       	ldi	r24, 0x64	; 100
    2a70:	90 e0       	ldi	r25, 0x00	; 0
    2a72:	0e 94 a7 06 	call	0xd4e	; 0xd4e <delay_ms>
	   while(1!=OV7670_init());		//initial ov7660
    2a76:	00 00       	nop
    2a78:	0e 94 41 07 	call	0xe82	; 0xe82 <OV7670_init>
    2a7c:	81 30       	cpi	r24, 0x01	; 1
    2a7e:	e1 f7       	brne	.-8      	; 0x2a78 <main+0x186>
	delay_ms(100);
    2a80:	84 e6       	ldi	r24, 0x64	; 100
    2a82:	90 e0       	ldi	r25, 0x00	; 0
    2a84:	0e 94 a7 06 	call	0xd4e	; 0xd4e <delay_ms>
	   while(1!=FIFO_init());		//initial FIFO reading sequence
    2a88:	00 00       	nop
    2a8a:	0e 94 9f 07 	call	0xf3e	; 0xf3e <FIFO_init>
    2a8e:	81 30       	cpi	r24, 0x01	; 1
    2a90:	e1 f7       	brne	.-8      	; 0x2a8a <main+0x198>
	 delay_ms(100);
	 PORTD &= ~(1<<5);
	 */

// initial the int0 interrupt for WEN   
	  DDRD &= ~(1<<OV7670_SYNC);		//set OV7670_SYNC as input for INT0
    2a92:	8a e2       	ldi	r24, 0x2A	; 42
    2a94:	90 e0       	ldi	r25, 0x00	; 0
    2a96:	2a e2       	ldi	r18, 0x2A	; 42
    2a98:	30 e0       	ldi	r19, 0x00	; 0
    2a9a:	f9 01       	movw	r30, r18
    2a9c:	20 81       	ld	r18, Z
    2a9e:	2b 7f       	andi	r18, 0xFB	; 251
    2aa0:	fc 01       	movw	r30, r24
    2aa2:	20 83       	st	Z, r18
	  PORTD |= (1<<OV7670_SYNC);		//Enable OV7670_SYNC pull-up resistor
    2aa4:	8b e2       	ldi	r24, 0x2B	; 43
    2aa6:	90 e0       	ldi	r25, 0x00	; 0
    2aa8:	2b e2       	ldi	r18, 0x2B	; 43
    2aaa:	30 e0       	ldi	r19, 0x00	; 0
    2aac:	f9 01       	movw	r30, r18
    2aae:	20 81       	ld	r18, Z
    2ab0:	24 60       	ori	r18, 0x04	; 4
    2ab2:	fc 01       	movw	r30, r24
    2ab4:	20 83       	st	Z, r18
	  
	  EIMSK = 1<<INT0;				//Enable INT0
    2ab6:	8d e3       	ldi	r24, 0x3D	; 61
    2ab8:	90 e0       	ldi	r25, 0x00	; 0
    2aba:	21 e0       	ldi	r18, 0x01	; 1
    2abc:	fc 01       	movw	r30, r24
    2abe:	20 83       	st	Z, r18
	  EICRA = 1<<ISC01;				//Trigger INT0 on the falling edge
    2ac0:	89 e6       	ldi	r24, 0x69	; 105
    2ac2:	90 e0       	ldi	r25, 0x00	; 0
    2ac4:	22 e0       	ldi	r18, 0x02	; 2
    2ac6:	fc 01       	movw	r30, r24
    2ac8:	20 83       	st	Z, r18
	  
	  sei();						//Enable Global Interrupt
    2aca:	78 94       	sei
	  
		TSLCDSetWindow(0,319,0,479);
    2acc:	80 e0       	ldi	r24, 0x00	; 0
    2ace:	90 e0       	ldi	r25, 0x00	; 0
    2ad0:	6f e3       	ldi	r22, 0x3F	; 63
    2ad2:	71 e0       	ldi	r23, 0x01	; 1
    2ad4:	40 e0       	ldi	r20, 0x00	; 0
    2ad6:	50 e0       	ldi	r21, 0x00	; 0
    2ad8:	2f ed       	ldi	r18, 0xDF	; 223
    2ada:	31 e0       	ldi	r19, 0x01	; 1
    2adc:	0e 94 b4 0a 	call	0x1568	; 0x1568 <TSLCDSetWindow>
		TSLCDOutIns(LCD_RW_GRAM);
    2ae0:	82 e2       	ldi	r24, 0x22	; 34
    2ae2:	90 e0       	ldi	r25, 0x00	; 0
    2ae4:	0e 94 82 0b 	call	0x1704	; 0x1704 <TSLCDOutIns>
	
	  while (1)						//Main routine to display on TFT
	  {
		  if (TIMES=2)
    2ae8:	82 e0       	ldi	r24, 0x02	; 2
    2aea:	90 e0       	ldi	r25, 0x00	; 0
    2aec:	90 93 01 01 	sts	0x0101, r25
    2af0:	80 93 00 01 	sts	0x0100, r24
			  	unsigned int i,j;
				unsigned short Temp;
				

				
				for (j=0; j < 480; j++)
    2af4:	1c 82       	std	Y+4, r1	; 0x04
    2af6:	1b 82       	std	Y+3, r1	; 0x03
    2af8:	44 c0       	rjmp	.+136    	; 0x2b82 <main+0x290>
				{
						if (j==240)
    2afa:	8b 81       	ldd	r24, Y+3	; 0x03
    2afc:	9c 81       	ldd	r25, Y+4	; 0x04
    2afe:	80 3f       	cpi	r24, 0xF0	; 240
    2b00:	91 05       	cpc	r25, r1
    2b02:	21 f5       	brne	.+72     	; 0x2b4c <main+0x25a>
						{
							FIFO_nRRST_CLR;
    2b04:	8b e2       	ldi	r24, 0x2B	; 43
    2b06:	90 e0       	ldi	r25, 0x00	; 0
    2b08:	2b e2       	ldi	r18, 0x2B	; 43
    2b0a:	30 e0       	ldi	r19, 0x00	; 0
    2b0c:	f9 01       	movw	r30, r18
    2b0e:	20 81       	ld	r18, Z
    2b10:	2f 77       	andi	r18, 0x7F	; 127
    2b12:	fc 01       	movw	r30, r24
    2b14:	20 83       	st	Z, r18
							FIFO_RCLK_SET;
    2b16:	8b e2       	ldi	r24, 0x2B	; 43
    2b18:	90 e0       	ldi	r25, 0x00	; 0
    2b1a:	2b e2       	ldi	r18, 0x2B	; 43
    2b1c:	30 e0       	ldi	r19, 0x00	; 0
    2b1e:	f9 01       	movw	r30, r18
    2b20:	20 81       	ld	r18, Z
    2b22:	20 61       	ori	r18, 0x10	; 16
    2b24:	fc 01       	movw	r30, r24
    2b26:	20 83       	st	Z, r18
							FIFO_RCLK_CLR;
    2b28:	8b e2       	ldi	r24, 0x2B	; 43
    2b2a:	90 e0       	ldi	r25, 0x00	; 0
    2b2c:	2b e2       	ldi	r18, 0x2B	; 43
    2b2e:	30 e0       	ldi	r19, 0x00	; 0
    2b30:	f9 01       	movw	r30, r18
    2b32:	20 81       	ld	r18, Z
    2b34:	2f 7e       	andi	r18, 0xEF	; 239
    2b36:	fc 01       	movw	r30, r24
    2b38:	20 83       	st	Z, r18
							FIFO_nRRST_SET;
    2b3a:	8b e2       	ldi	r24, 0x2B	; 43
    2b3c:	90 e0       	ldi	r25, 0x00	; 0
    2b3e:	2b e2       	ldi	r18, 0x2B	; 43
    2b40:	30 e0       	ldi	r19, 0x00	; 0
    2b42:	f9 01       	movw	r30, r18
    2b44:	20 81       	ld	r18, Z
    2b46:	20 68       	ori	r18, 0x80	; 128
    2b48:	fc 01       	movw	r30, r24
    2b4a:	20 83       	st	Z, r18
						}
					for (i=0; i < 320; i++)
    2b4c:	1a 82       	std	Y+2, r1	; 0x02
    2b4e:	19 82       	std	Y+1, r1	; 0x01
    2b50:	0d c0       	rjmp	.+26     	; 0x2b6c <main+0x27a>
					{
							Temp=FIFO_TO_AVR();
    2b52:	0e 94 27 08 	call	0x104e	; 0x104e <FIFO_TO_AVR>
    2b56:	9e 83       	std	Y+6, r25	; 0x06
    2b58:	8d 83       	std	Y+5, r24	; 0x05
							TSLCDOutDat(Temp);					
    2b5a:	8d 81       	ldd	r24, Y+5	; 0x05
    2b5c:	9e 81       	ldd	r25, Y+6	; 0x06
    2b5e:	0e 94 18 0b 	call	0x1630	; 0x1630 <TSLCDOutDat>
							FIFO_nRRST_CLR;
							FIFO_RCLK_SET;
							FIFO_RCLK_CLR;
							FIFO_nRRST_SET;
						}
					for (i=0; i < 320; i++)
    2b62:	89 81       	ldd	r24, Y+1	; 0x01
    2b64:	9a 81       	ldd	r25, Y+2	; 0x02
    2b66:	01 96       	adiw	r24, 0x01	; 1
    2b68:	9a 83       	std	Y+2, r25	; 0x02
    2b6a:	89 83       	std	Y+1, r24	; 0x01
    2b6c:	89 81       	ldd	r24, Y+1	; 0x01
    2b6e:	9a 81       	ldd	r25, Y+2	; 0x02
    2b70:	f1 e0       	ldi	r31, 0x01	; 1
    2b72:	80 34       	cpi	r24, 0x40	; 64
    2b74:	9f 07       	cpc	r25, r31
    2b76:	68 f3       	brcs	.-38     	; 0x2b52 <main+0x260>
			  	unsigned int i,j;
				unsigned short Temp;
				

				
				for (j=0; j < 480; j++)
    2b78:	8b 81       	ldd	r24, Y+3	; 0x03
    2b7a:	9c 81       	ldd	r25, Y+4	; 0x04
    2b7c:	01 96       	adiw	r24, 0x01	; 1
    2b7e:	9c 83       	std	Y+4, r25	; 0x04
    2b80:	8b 83       	std	Y+3, r24	; 0x03
    2b82:	8b 81       	ldd	r24, Y+3	; 0x03
    2b84:	9c 81       	ldd	r25, Y+4	; 0x04
    2b86:	21 e0       	ldi	r18, 0x01	; 1
    2b88:	80 3e       	cpi	r24, 0xE0	; 224
    2b8a:	92 07       	cpc	r25, r18
    2b8c:	08 f4       	brcc	.+2      	; 0x2b90 <main+0x29e>
    2b8e:	b5 cf       	rjmp	.-150    	; 0x2afa <main+0x208>
							Temp=FIFO_TO_AVR();
							TSLCDOutDat(Temp);					
					}

				}				
			FIFO_nRRST_CLR;
    2b90:	8b e2       	ldi	r24, 0x2B	; 43
    2b92:	90 e0       	ldi	r25, 0x00	; 0
    2b94:	2b e2       	ldi	r18, 0x2B	; 43
    2b96:	30 e0       	ldi	r19, 0x00	; 0
    2b98:	f9 01       	movw	r30, r18
    2b9a:	20 81       	ld	r18, Z
    2b9c:	2f 77       	andi	r18, 0x7F	; 127
    2b9e:	fc 01       	movw	r30, r24
    2ba0:	20 83       	st	Z, r18
			FIFO_RCLK_SET;
    2ba2:	8b e2       	ldi	r24, 0x2B	; 43
    2ba4:	90 e0       	ldi	r25, 0x00	; 0
    2ba6:	2b e2       	ldi	r18, 0x2B	; 43
    2ba8:	30 e0       	ldi	r19, 0x00	; 0
    2baa:	f9 01       	movw	r30, r18
    2bac:	20 81       	ld	r18, Z
    2bae:	20 61       	ori	r18, 0x10	; 16
    2bb0:	fc 01       	movw	r30, r24
    2bb2:	20 83       	st	Z, r18
			FIFO_RCLK_CLR;
    2bb4:	8b e2       	ldi	r24, 0x2B	; 43
    2bb6:	90 e0       	ldi	r25, 0x00	; 0
    2bb8:	2b e2       	ldi	r18, 0x2B	; 43
    2bba:	30 e0       	ldi	r19, 0x00	; 0
    2bbc:	f9 01       	movw	r30, r18
    2bbe:	20 81       	ld	r18, Z
    2bc0:	2f 7e       	andi	r18, 0xEF	; 239
    2bc2:	fc 01       	movw	r30, r24
    2bc4:	20 83       	st	Z, r18
			FIFO_nRRST_SET;
    2bc6:	8b e2       	ldi	r24, 0x2B	; 43
    2bc8:	90 e0       	ldi	r25, 0x00	; 0
    2bca:	2b e2       	ldi	r18, 0x2B	; 43
    2bcc:	30 e0       	ldi	r19, 0x00	; 0
    2bce:	f9 01       	movw	r30, r18
    2bd0:	20 81       	ld	r18, Z
    2bd2:	20 68       	ori	r18, 0x80	; 128
    2bd4:	fc 01       	movw	r30, r24
    2bd6:	20 83       	st	Z, r18
		  }
	  }
    2bd8:	87 cf       	rjmp	.-242    	; 0x2ae8 <main+0x1f6>

00002bda <_exit>:
    2bda:	f8 94       	cli

00002bdc <__stop_program>:
    2bdc:	ff cf       	rjmp	.-2      	; 0x2bdc <__stop_program>
